
gpib_004.elf:     file format elf32-avr

Sections:
Idx Name          Size      VMA       LMA       File off  Algn
  0 .text         00002c72  00000000  00000000  00000074  2**1
                  CONTENTS, ALLOC, LOAD, READONLY, CODE
  1 .data         000003f8  00800060  00002c72  00002ce6  2**0
                  CONTENTS, ALLOC, LOAD, DATA
  2 .bss          00000170  00800458  0000306a  000030de  2**0
                  ALLOC
  3 .stab         00005940  00000000  00000000  000030e0  2**2
                  CONTENTS, READONLY, DEBUGGING
  4 .stabstr      0000291e  00000000  00000000  00008a20  2**0
                  CONTENTS, READONLY, DEBUGGING
Disassembly of section .text:

00000000 <__vectors>:
       0:	0c 94 6b 01 	jmp	0x2d6	; 0x2d6 <__ctors_end>
       4:	0c 94 88 01 	jmp	0x310	; 0x310 <__bad_interrupt>
       8:	0c 94 88 01 	jmp	0x310	; 0x310 <__bad_interrupt>
       c:	0c 94 88 01 	jmp	0x310	; 0x310 <__bad_interrupt>
      10:	0c 94 88 01 	jmp	0x310	; 0x310 <__bad_interrupt>
      14:	0c 94 88 01 	jmp	0x310	; 0x310 <__bad_interrupt>
      18:	0c 94 88 01 	jmp	0x310	; 0x310 <__bad_interrupt>
      1c:	0c 94 c2 13 	jmp	0x2784	; 0x2784 <__vector_7>
      20:	0c 94 88 01 	jmp	0x310	; 0x310 <__bad_interrupt>
      24:	0c 94 88 01 	jmp	0x310	; 0x310 <__bad_interrupt>
      28:	0c 94 88 01 	jmp	0x310	; 0x310 <__bad_interrupt>
      2c:	0c 94 88 01 	jmp	0x310	; 0x310 <__bad_interrupt>
      30:	0c 94 88 01 	jmp	0x310	; 0x310 <__bad_interrupt>
      34:	0c 94 1a 14 	jmp	0x2834	; 0x2834 <__vector_13>
      38:	0c 94 a1 14 	jmp	0x2942	; 0x2942 <__vector_14>
      3c:	0c 94 88 01 	jmp	0x310	; 0x310 <__bad_interrupt>
      40:	0c 94 88 01 	jmp	0x310	; 0x310 <__bad_interrupt>
      44:	0c 94 88 01 	jmp	0x310	; 0x310 <__bad_interrupt>
      48:	0c 94 88 01 	jmp	0x310	; 0x310 <__bad_interrupt>
      4c:	0c 94 88 01 	jmp	0x310	; 0x310 <__bad_interrupt>
      50:	0c 94 88 01 	jmp	0x310	; 0x310 <__bad_interrupt>

00000054 <__c.1870>:
      54:	42 75 66 66 65 72 20 6f 76 65 72 66 6c 6f 77 20     Buffer overflow 
      64:	65 72 72 6f 72 3a 20 00                             error: .

0000006c <__c.1868>:
      6c:	55 41 52 54 20 4f 76 65 72 72 75 6e 20 45 72 72     UART Overrun Err
      7c:	6f 72 3a 20 00                                      or: .

00000081 <__c.1866>:
      81:	55 41 52 54 20 46 72 61 6d 65 20 45 72 72 6f 72     UART Frame Error
      91:	3a 20 00                                            : .

00000094 <__c.1894>:
      94:	43 6f 6d 6d 61 6e 64 20 6f 76 65 72 66 6c 6f 77     Command overflow
      a4:	2e 00                                               ..

000000a6 <__c.1970>:
      a6:	75 6e 6b 6e 6f 77 6e 20 63 6f 6d 6d 61 6e 64 0a     unknown command.
      b6:	0d 00                                               ..

000000b8 <__c.1966>:
      b8:	43 68 65 63 6b 20 65 72 72 6f 72 73 0a 0d 00        Check errors...

000000c7 <__c.1961>:
      c7:	78 6f 6e 2f 78 6f 66 66 20 66 6c 6f 77 63 6f 6e     xon/xoff flowcon
      d7:	74 72 6f 6c 20 6f 66 66 0a 0d 00                    trol off...

000000e2 <__c.1959>:
      e2:	78 6f 6e 2f 78 6f 66 66 20 66 6c 6f 77 63 6f 6e     xon/xoff flowcon
      f2:	74 72 6f 6c 20 6f 6e 0a 0d 00                       trol on...

000000fc <__c.2016>:
      fc:	0a 0d 00                                            ...

000000ff <__c.2033>:
      ff:	0a 0d 53 52 51 20 64 65 74 65 63 74 65 64 2e 0a     ..SRQ detected..
     10f:	0d 00                                               ..

00000111 <__c.2063>:
     111:	0a 0d 53 52 51 73 20 61 72 65 20 64 69 73 61 62     ..SRQs are disab
     121:	6c 65 64 20 6e 6f 77 2e 0a 0d 00                    led now....

0000012c <__c.2061>:
     12c:	0a 0d 53 52 51 20 65 6d 69 74 74 65 72 20 69 73     ..SRQ emitter is
     13c:	20 6e 6f 74 20 69 6e 20 6c 69 73 74 20 6f 66 20      not in list of 
     14c:	6b 6e 6f 77 6e 20 64 65 76 69 63 65 73 2e 20 53     known devices. S
     15c:	52 51 20 49 67 6e 6f 72 65 64 2e 0a 0d 00           RQ Ignored....

0000016a <__c.2096>:
     16a:	2e 69 20 2d 20 64 75 6d 70 20 69 6e 66 6f 20 61     .i - dump info a
     17a:	62 6f 75 74 20 47 50 49 42 20 6c 69 6e 65 73 2e     bout GPIB lines.
     18a:	0a 0d 00                                            ...

0000018d <__c.2094>:
     18d:	2e 68 20 2d 20 70 72 69 6e 74 20 68 65 6c 70 2e     .h - print help.
     19d:	0a 0d 00                                            ...

000001a0 <__c.2092>:
     1a0:	2e 78 20 2d 20 74 6f 67 67 6c 65 20 58 6f 6e 2f     .x - toggle Xon/
     1b0:	58 6f 66 66 20 66 6c 6f 77 20 63 6f 6e 74 72 6f     Xoff flow contro
     1c0:	6c 2e 0a 0d 00                                      l....

000001c5 <__c.2090>:
     1c5:	2e 2d 20 3c 6e 3e 20 2d 20 72 65 6d 6f 76 65 20     .- <n> - remove 
     1d5:	70 61 72 74 6e 65 72 20 64 65 76 69 63 65 20 61     partner device a
     1e5:	64 64 72 65 73 73 20 66 72 6f 6d 20 6c 69 73 74     ddress from list
     1f5:	20 6f 66 20 6b 6e 6f 77 6e 20 64 65 76 69 63 65      of known device
     205:	73 2e 0a 0d 00                                      s....

0000020a <__c.2088>:
     20a:	2e 2b 20 3c 6e 3e 20 2d 20 61 64 64 20 70 61 72     .+ <n> - add par
     21a:	74 6e 65 72 20 64 65 76 69 63 65 20 61 64 64 72     tner device addr
     22a:	65 73 73 20 74 6f 20 6c 69 73 74 20 6f 66 20 6b     ess to list of k
     23a:	6e 6f 77 6e 20 64 65 76 69 63 65 73 2e 0a 0d 00     nown devices....

0000024a <__c.2086>:
     24a:	2e 73 20 3c 73 65 63 6f 6e 64 61 72 79 3e 20 2d     .s <secondary> -
     25a:	20 73 65 74 20 73 65 63 6f 6e 64 61 72 79 20 61      set secondary a
     26a:	64 64 72 65 73 73 20 6f 66 20 72 65 6d 6f 74 65     ddress of remote
     27a:	20 64 65 76 69 63 65 0a 0d 00                        device...

00000284 <__c.2084>:
     284:	49 6e 74 65 72 6e 61 6c 20 63 6f 6d 6d 61 6e 64     Internal command
     294:	73 3a 0a 0d 00                                      s:...

00000299 <__c.2118>:
     299:	0a 0d 00                                            ...

0000029c <__c.2116>:
     29c:	0a 0d 00                                            ...

0000029f <__c.2113>:
     29f:	44 65 76 69 63 65 20 61 64 64 72 65 73 73 20 69     Device address i
     2af:	73 20 6e 6f 74 20 73 65 74 2e 20 43 61 6e 20 6e     s not set. Can n
     2bf:	6f 74 20 73 65 6e 64 20 63 6f 6d 6d 61 6e 64 2e     ot send command.
     2cf:	0a 0d 00                                            ...

000002d2 <__c.2111>:
     2d2:	0a 0d 00 00                                         ....

000002d6 <__ctors_end>:
     2d6:	11 24       	eor	r1, r1
     2d8:	1f be       	out	0x3f, r1	; 63
     2da:	cf e5       	ldi	r28, 0x5F	; 95
     2dc:	d8 e0       	ldi	r29, 0x08	; 8
     2de:	de bf       	out	0x3e, r29	; 62
     2e0:	cd bf       	out	0x3d, r28	; 61

000002e2 <__do_copy_data>:
     2e2:	14 e0       	ldi	r17, 0x04	; 4
     2e4:	a0 e6       	ldi	r26, 0x60	; 96
     2e6:	b0 e0       	ldi	r27, 0x00	; 0
     2e8:	e2 e7       	ldi	r30, 0x72	; 114
     2ea:	fc e2       	ldi	r31, 0x2C	; 44
     2ec:	02 c0       	rjmp	.+4      	; 0x2f2 <.do_copy_data_start>

000002ee <.do_copy_data_loop>:
     2ee:	05 90       	lpm	r0, Z+
     2f0:	0d 92       	st	X+, r0

000002f2 <.do_copy_data_start>:
     2f2:	a8 35       	cpi	r26, 0x58	; 88
     2f4:	b1 07       	cpc	r27, r17
     2f6:	d9 f7       	brne	.-10     	; 0x2ee <.do_copy_data_loop>

000002f8 <__do_clear_bss>:
     2f8:	15 e0       	ldi	r17, 0x05	; 5
     2fa:	a8 e5       	ldi	r26, 0x58	; 88
     2fc:	b4 e0       	ldi	r27, 0x04	; 4
     2fe:	01 c0       	rjmp	.+2      	; 0x302 <.do_clear_bss_start>

00000300 <.do_clear_bss_loop>:
     300:	1d 92       	st	X+, r1

00000302 <.do_clear_bss_start>:
     302:	a8 3c       	cpi	r26, 0xC8	; 200
     304:	b1 07       	cpc	r27, r17
     306:	e1 f7       	brne	.-8      	; 0x300 <.do_clear_bss_loop>
     308:	0e 94 a2 13 	call	0x2744	; 0x2744 <main>
     30c:	0c 94 37 16 	jmp	0x2c6e	; 0x2c6e <_exit>

00000310 <__bad_interrupt>:
     310:	0c 94 00 00 	jmp	0	; 0x0 <__heap_end>

00000314 <atoi>:
     314:	fc 01       	movw	r30, r24
     316:	88 27       	eor	r24, r24
     318:	99 27       	eor	r25, r25
     31a:	e8 94       	clt
     31c:	21 91       	ld	r18, Z+
     31e:	20 32       	cpi	r18, 0x20	; 32
     320:	e9 f3       	breq	.-6      	; 0x31c <atoi+0x8>
     322:	29 30       	cpi	r18, 0x09	; 9
     324:	10 f0       	brcs	.+4      	; 0x32a <atoi+0x16>
     326:	2e 30       	cpi	r18, 0x0E	; 14
     328:	c8 f3       	brcs	.-14     	; 0x31c <atoi+0x8>
     32a:	2b 32       	cpi	r18, 0x2B	; 43
     32c:	41 f0       	breq	.+16     	; 0x33e <atoi+0x2a>
     32e:	2d 32       	cpi	r18, 0x2D	; 45
     330:	39 f4       	brne	.+14     	; 0x340 <atoi+0x2c>
     332:	68 94       	set
     334:	04 c0       	rjmp	.+8      	; 0x33e <atoi+0x2a>
     336:	0e 94 e8 01 	call	0x3d0	; 0x3d0 <__mulhi_const_10>
     33a:	82 0f       	add	r24, r18
     33c:	91 1d       	adc	r25, r1
     33e:	21 91       	ld	r18, Z+
     340:	20 53       	subi	r18, 0x30	; 48
     342:	2a 30       	cpi	r18, 0x0A	; 10
     344:	c0 f3       	brcs	.-16     	; 0x336 <atoi+0x22>
     346:	1e f4       	brtc	.+6      	; 0x34e <atoi+0x3a>
     348:	90 95       	com	r25
     34a:	81 95       	neg	r24
     34c:	9f 4f       	sbci	r25, 0xFF	; 255
     34e:	08 95       	ret

00000350 <strtok>:
     350:	48 e5       	ldi	r20, 0x58	; 88
     352:	54 e0       	ldi	r21, 0x04	; 4
     354:	0e 94 b6 01 	call	0x36c	; 0x36c <strtok_r>
     358:	08 95       	ret

0000035a <strlen>:
     35a:	fc 01       	movw	r30, r24
     35c:	01 90       	ld	r0, Z+
     35e:	00 20       	and	r0, r0
     360:	e9 f7       	brne	.-6      	; 0x35c <strlen+0x2>
     362:	80 95       	com	r24
     364:	90 95       	com	r25
     366:	8e 0f       	add	r24, r30
     368:	9f 1f       	adc	r25, r31
     36a:	08 95       	ret

0000036c <strtok_r>:
     36c:	00 97       	sbiw	r24, 0x00	; 0
     36e:	31 f4       	brne	.+12     	; 0x37c <strtok_r+0x10>
     370:	da 01       	movw	r26, r20
     372:	8d 91       	ld	r24, X+
     374:	9c 91       	ld	r25, X
     376:	00 97       	sbiw	r24, 0x00	; 0
     378:	09 f4       	brne	.+2      	; 0x37c <strtok_r+0x10>
     37a:	0e c0       	rjmp	.+28     	; 0x398 <strtok_r+0x2c>
     37c:	dc 01       	movw	r26, r24
     37e:	fb 01       	movw	r30, r22
     380:	3d 91       	ld	r19, X+
     382:	21 91       	ld	r18, Z+
     384:	22 23       	and	r18, r18
     386:	19 f0       	breq	.+6      	; 0x38e <strtok_r+0x22>
     388:	32 17       	cp	r19, r18
     38a:	c9 f3       	breq	.-14     	; 0x37e <strtok_r+0x12>
     38c:	fa cf       	rjmp	.-12     	; 0x382 <strtok_r+0x16>
     38e:	33 23       	and	r19, r19
     390:	31 f4       	brne	.+12     	; 0x39e <strtok_r+0x32>
     392:	da 01       	movw	r26, r20
     394:	1d 92       	st	X+, r1
     396:	1c 92       	st	X, r1
     398:	88 27       	eor	r24, r24
     39a:	99 27       	eor	r25, r25
     39c:	08 95       	ret
     39e:	11 97       	sbiw	r26, 0x01	; 1
     3a0:	af 93       	push	r26
     3a2:	bf 93       	push	r27
     3a4:	fb 01       	movw	r30, r22
     3a6:	3d 91       	ld	r19, X+
     3a8:	21 91       	ld	r18, Z+
     3aa:	32 17       	cp	r19, r18
     3ac:	71 f4       	brne	.+28     	; 0x3ca <strtok_r+0x5e>
     3ae:	33 23       	and	r19, r19
     3b0:	21 f4       	brne	.+8      	; 0x3ba <strtok_r+0x4e>
     3b2:	88 27       	eor	r24, r24
     3b4:	99 27       	eor	r25, r25
     3b6:	11 97       	sbiw	r26, 0x01	; 1
     3b8:	02 c0       	rjmp	.+4      	; 0x3be <strtok_r+0x52>
     3ba:	1e 92       	st	-X, r1
     3bc:	11 96       	adiw	r26, 0x01	; 1
     3be:	fa 01       	movw	r30, r20
     3c0:	a1 93       	st	Z+, r26
     3c2:	b0 83       	st	Z, r27
     3c4:	9f 91       	pop	r25
     3c6:	8f 91       	pop	r24
     3c8:	08 95       	ret
     3ca:	22 23       	and	r18, r18
     3cc:	69 f7       	brne	.-38     	; 0x3a8 <strtok_r+0x3c>
     3ce:	ea cf       	rjmp	.-44     	; 0x3a4 <strtok_r+0x38>

000003d0 <__mulhi_const_10>:
     3d0:	7a e0       	ldi	r23, 0x0A	; 10
     3d2:	97 9f       	mul	r25, r23
     3d4:	90 2d       	mov	r25, r0
     3d6:	87 9f       	mul	r24, r23
     3d8:	80 2d       	mov	r24, r0
     3da:	91 0d       	add	r25, r1
     3dc:	11 24       	eor	r1, r1
     3de:	08 95       	ret

000003e0 <sprintf>:
     3e0:	ae e0       	ldi	r26, 0x0E	; 14
     3e2:	b0 e0       	ldi	r27, 0x00	; 0
     3e4:	e6 ef       	ldi	r30, 0xF6	; 246
     3e6:	f1 e0       	ldi	r31, 0x01	; 1
     3e8:	0c 94 0e 16 	jmp	0x2c1c	; 0x2c1c <__prologue_saves__+0x1c>
     3ec:	0d 89       	ldd	r16, Y+21	; 0x15
     3ee:	1e 89       	ldd	r17, Y+22	; 0x16
     3f0:	86 e0       	ldi	r24, 0x06	; 6
     3f2:	8c 83       	std	Y+4, r24	; 0x04
     3f4:	1a 83       	std	Y+2, r17	; 0x02
     3f6:	09 83       	std	Y+1, r16	; 0x01
     3f8:	8f ef       	ldi	r24, 0xFF	; 255
     3fa:	9f e7       	ldi	r25, 0x7F	; 127
     3fc:	9e 83       	std	Y+6, r25	; 0x06
     3fe:	8d 83       	std	Y+5, r24	; 0x05
     400:	9e 01       	movw	r18, r28
     402:	27 5e       	subi	r18, 0xE7	; 231
     404:	3f 4f       	sbci	r19, 0xFF	; 255
     406:	ce 01       	movw	r24, r28
     408:	01 96       	adiw	r24, 0x01	; 1
     40a:	6f 89       	ldd	r22, Y+23	; 0x17
     40c:	78 8d       	ldd	r23, Y+24	; 0x18
     40e:	a9 01       	movw	r20, r18
     410:	0e 94 14 02 	call	0x428	; 0x428 <vfprintf>
     414:	2f 81       	ldd	r18, Y+7	; 0x07
     416:	38 85       	ldd	r19, Y+8	; 0x08
     418:	02 0f       	add	r16, r18
     41a:	13 1f       	adc	r17, r19
     41c:	f8 01       	movw	r30, r16
     41e:	10 82       	st	Z, r1
     420:	2e 96       	adiw	r28, 0x0e	; 14
     422:	e4 e0       	ldi	r30, 0x04	; 4
     424:	0c 94 2a 16 	jmp	0x2c54	; 0x2c54 <__epilogue_restores__+0x1c>

00000428 <vfprintf>:
     428:	ab e0       	ldi	r26, 0x0B	; 11
     42a:	b0 e0       	ldi	r27, 0x00	; 0
     42c:	ea e1       	ldi	r30, 0x1A	; 26
     42e:	f2 e0       	ldi	r31, 0x02	; 2
     430:	0c 94 00 16 	jmp	0x2c00	; 0x2c00 <__prologue_saves__>
     434:	3c 01       	movw	r6, r24
     436:	2b 01       	movw	r4, r22
     438:	5a 01       	movw	r10, r20
     43a:	fc 01       	movw	r30, r24
     43c:	17 82       	std	Z+7, r1	; 0x07
     43e:	16 82       	std	Z+6, r1	; 0x06
     440:	83 81       	ldd	r24, Z+3	; 0x03
     442:	81 fd       	sbrc	r24, 1
     444:	03 c0       	rjmp	.+6      	; 0x44c <vfprintf+0x24>
     446:	6f ef       	ldi	r22, 0xFF	; 255
     448:	7f ef       	ldi	r23, 0xFF	; 255
     44a:	c6 c1       	rjmp	.+908    	; 0x7d8 <vfprintf+0x3b0>
     44c:	9a e0       	ldi	r25, 0x0A	; 10
     44e:	89 2e       	mov	r8, r25
     450:	1e 01       	movw	r2, r28
     452:	08 94       	sec
     454:	21 1c       	adc	r2, r1
     456:	31 1c       	adc	r3, r1
     458:	f3 01       	movw	r30, r6
     45a:	23 81       	ldd	r18, Z+3	; 0x03
     45c:	f2 01       	movw	r30, r4
     45e:	23 fd       	sbrc	r18, 3
     460:	85 91       	lpm	r24, Z+
     462:	23 ff       	sbrs	r18, 3
     464:	81 91       	ld	r24, Z+
     466:	2f 01       	movw	r4, r30
     468:	88 23       	and	r24, r24
     46a:	09 f4       	brne	.+2      	; 0x46e <vfprintf+0x46>
     46c:	b2 c1       	rjmp	.+868    	; 0x7d2 <vfprintf+0x3aa>
     46e:	85 32       	cpi	r24, 0x25	; 37
     470:	39 f4       	brne	.+14     	; 0x480 <vfprintf+0x58>
     472:	23 fd       	sbrc	r18, 3
     474:	85 91       	lpm	r24, Z+
     476:	23 ff       	sbrs	r18, 3
     478:	81 91       	ld	r24, Z+
     47a:	2f 01       	movw	r4, r30
     47c:	85 32       	cpi	r24, 0x25	; 37
     47e:	29 f4       	brne	.+10     	; 0x48a <vfprintf+0x62>
     480:	90 e0       	ldi	r25, 0x00	; 0
     482:	b3 01       	movw	r22, r6
     484:	0e 94 07 04 	call	0x80e	; 0x80e <fputc>
     488:	e7 cf       	rjmp	.-50     	; 0x458 <vfprintf+0x30>
     48a:	98 2f       	mov	r25, r24
     48c:	ff 24       	eor	r15, r15
     48e:	ee 24       	eor	r14, r14
     490:	99 24       	eor	r9, r9
     492:	ff e1       	ldi	r31, 0x1F	; 31
     494:	ff 15       	cp	r31, r15
     496:	d0 f0       	brcs	.+52     	; 0x4cc <vfprintf+0xa4>
     498:	9b 32       	cpi	r25, 0x2B	; 43
     49a:	69 f0       	breq	.+26     	; 0x4b6 <vfprintf+0x8e>
     49c:	9c 32       	cpi	r25, 0x2C	; 44
     49e:	28 f4       	brcc	.+10     	; 0x4aa <vfprintf+0x82>
     4a0:	90 32       	cpi	r25, 0x20	; 32
     4a2:	59 f0       	breq	.+22     	; 0x4ba <vfprintf+0x92>
     4a4:	93 32       	cpi	r25, 0x23	; 35
     4a6:	91 f4       	brne	.+36     	; 0x4cc <vfprintf+0xa4>
     4a8:	0e c0       	rjmp	.+28     	; 0x4c6 <vfprintf+0x9e>
     4aa:	9d 32       	cpi	r25, 0x2D	; 45
     4ac:	49 f0       	breq	.+18     	; 0x4c0 <vfprintf+0x98>
     4ae:	90 33       	cpi	r25, 0x30	; 48
     4b0:	69 f4       	brne	.+26     	; 0x4cc <vfprintf+0xa4>
     4b2:	41 e0       	ldi	r20, 0x01	; 1
     4b4:	24 c0       	rjmp	.+72     	; 0x4fe <vfprintf+0xd6>
     4b6:	52 e0       	ldi	r21, 0x02	; 2
     4b8:	f5 2a       	or	r15, r21
     4ba:	84 e0       	ldi	r24, 0x04	; 4
     4bc:	f8 2a       	or	r15, r24
     4be:	28 c0       	rjmp	.+80     	; 0x510 <vfprintf+0xe8>
     4c0:	98 e0       	ldi	r25, 0x08	; 8
     4c2:	f9 2a       	or	r15, r25
     4c4:	25 c0       	rjmp	.+74     	; 0x510 <vfprintf+0xe8>
     4c6:	e0 e1       	ldi	r30, 0x10	; 16
     4c8:	fe 2a       	or	r15, r30
     4ca:	22 c0       	rjmp	.+68     	; 0x510 <vfprintf+0xe8>
     4cc:	f7 fc       	sbrc	r15, 7
     4ce:	29 c0       	rjmp	.+82     	; 0x522 <vfprintf+0xfa>
     4d0:	89 2f       	mov	r24, r25
     4d2:	80 53       	subi	r24, 0x30	; 48
     4d4:	8a 30       	cpi	r24, 0x0A	; 10
     4d6:	70 f4       	brcc	.+28     	; 0x4f4 <vfprintf+0xcc>
     4d8:	f6 fe       	sbrs	r15, 6
     4da:	05 c0       	rjmp	.+10     	; 0x4e6 <vfprintf+0xbe>
     4dc:	98 9c       	mul	r9, r8
     4de:	90 2c       	mov	r9, r0
     4e0:	11 24       	eor	r1, r1
     4e2:	98 0e       	add	r9, r24
     4e4:	15 c0       	rjmp	.+42     	; 0x510 <vfprintf+0xe8>
     4e6:	e8 9c       	mul	r14, r8
     4e8:	e0 2c       	mov	r14, r0
     4ea:	11 24       	eor	r1, r1
     4ec:	e8 0e       	add	r14, r24
     4ee:	f0 e2       	ldi	r31, 0x20	; 32
     4f0:	ff 2a       	or	r15, r31
     4f2:	0e c0       	rjmp	.+28     	; 0x510 <vfprintf+0xe8>
     4f4:	9e 32       	cpi	r25, 0x2E	; 46
     4f6:	29 f4       	brne	.+10     	; 0x502 <vfprintf+0xda>
     4f8:	f6 fc       	sbrc	r15, 6
     4fa:	6b c1       	rjmp	.+726    	; 0x7d2 <vfprintf+0x3aa>
     4fc:	40 e4       	ldi	r20, 0x40	; 64
     4fe:	f4 2a       	or	r15, r20
     500:	07 c0       	rjmp	.+14     	; 0x510 <vfprintf+0xe8>
     502:	9c 36       	cpi	r25, 0x6C	; 108
     504:	19 f4       	brne	.+6      	; 0x50c <vfprintf+0xe4>
     506:	50 e8       	ldi	r21, 0x80	; 128
     508:	f5 2a       	or	r15, r21
     50a:	02 c0       	rjmp	.+4      	; 0x510 <vfprintf+0xe8>
     50c:	98 36       	cpi	r25, 0x68	; 104
     50e:	49 f4       	brne	.+18     	; 0x522 <vfprintf+0xfa>
     510:	f2 01       	movw	r30, r4
     512:	23 fd       	sbrc	r18, 3
     514:	95 91       	lpm	r25, Z+
     516:	23 ff       	sbrs	r18, 3
     518:	91 91       	ld	r25, Z+
     51a:	2f 01       	movw	r4, r30
     51c:	99 23       	and	r25, r25
     51e:	09 f0       	breq	.+2      	; 0x522 <vfprintf+0xfa>
     520:	b8 cf       	rjmp	.-144    	; 0x492 <vfprintf+0x6a>
     522:	89 2f       	mov	r24, r25
     524:	85 54       	subi	r24, 0x45	; 69
     526:	83 30       	cpi	r24, 0x03	; 3
     528:	18 f0       	brcs	.+6      	; 0x530 <vfprintf+0x108>
     52a:	80 52       	subi	r24, 0x20	; 32
     52c:	83 30       	cpi	r24, 0x03	; 3
     52e:	38 f4       	brcc	.+14     	; 0x53e <vfprintf+0x116>
     530:	44 e0       	ldi	r20, 0x04	; 4
     532:	50 e0       	ldi	r21, 0x00	; 0
     534:	a4 0e       	add	r10, r20
     536:	b5 1e       	adc	r11, r21
     538:	5f e3       	ldi	r21, 0x3F	; 63
     53a:	59 83       	std	Y+1, r21	; 0x01
     53c:	0f c0       	rjmp	.+30     	; 0x55c <vfprintf+0x134>
     53e:	93 36       	cpi	r25, 0x63	; 99
     540:	31 f0       	breq	.+12     	; 0x54e <vfprintf+0x126>
     542:	93 37       	cpi	r25, 0x73	; 115
     544:	79 f0       	breq	.+30     	; 0x564 <vfprintf+0x13c>
     546:	93 35       	cpi	r25, 0x53	; 83
     548:	09 f0       	breq	.+2      	; 0x54c <vfprintf+0x124>
     54a:	56 c0       	rjmp	.+172    	; 0x5f8 <vfprintf+0x1d0>
     54c:	20 c0       	rjmp	.+64     	; 0x58e <vfprintf+0x166>
     54e:	f5 01       	movw	r30, r10
     550:	80 81       	ld	r24, Z
     552:	89 83       	std	Y+1, r24	; 0x01
     554:	42 e0       	ldi	r20, 0x02	; 2
     556:	50 e0       	ldi	r21, 0x00	; 0
     558:	a4 0e       	add	r10, r20
     55a:	b5 1e       	adc	r11, r21
     55c:	61 01       	movw	r12, r2
     55e:	01 e0       	ldi	r16, 0x01	; 1
     560:	10 e0       	ldi	r17, 0x00	; 0
     562:	12 c0       	rjmp	.+36     	; 0x588 <vfprintf+0x160>
     564:	f5 01       	movw	r30, r10
     566:	c0 80       	ld	r12, Z
     568:	d1 80       	ldd	r13, Z+1	; 0x01
     56a:	f6 fc       	sbrc	r15, 6
     56c:	03 c0       	rjmp	.+6      	; 0x574 <vfprintf+0x14c>
     56e:	6f ef       	ldi	r22, 0xFF	; 255
     570:	7f ef       	ldi	r23, 0xFF	; 255
     572:	02 c0       	rjmp	.+4      	; 0x578 <vfprintf+0x150>
     574:	69 2d       	mov	r22, r9
     576:	70 e0       	ldi	r23, 0x00	; 0
     578:	42 e0       	ldi	r20, 0x02	; 2
     57a:	50 e0       	ldi	r21, 0x00	; 0
     57c:	a4 0e       	add	r10, r20
     57e:	b5 1e       	adc	r11, r21
     580:	c6 01       	movw	r24, r12
     582:	0e 94 fc 03 	call	0x7f8	; 0x7f8 <strnlen>
     586:	8c 01       	movw	r16, r24
     588:	5f e7       	ldi	r21, 0x7F	; 127
     58a:	f5 22       	and	r15, r21
     58c:	14 c0       	rjmp	.+40     	; 0x5b6 <vfprintf+0x18e>
     58e:	f5 01       	movw	r30, r10
     590:	c0 80       	ld	r12, Z
     592:	d1 80       	ldd	r13, Z+1	; 0x01
     594:	f6 fc       	sbrc	r15, 6
     596:	03 c0       	rjmp	.+6      	; 0x59e <vfprintf+0x176>
     598:	6f ef       	ldi	r22, 0xFF	; 255
     59a:	7f ef       	ldi	r23, 0xFF	; 255
     59c:	02 c0       	rjmp	.+4      	; 0x5a2 <vfprintf+0x17a>
     59e:	69 2d       	mov	r22, r9
     5a0:	70 e0       	ldi	r23, 0x00	; 0
     5a2:	42 e0       	ldi	r20, 0x02	; 2
     5a4:	50 e0       	ldi	r21, 0x00	; 0
     5a6:	a4 0e       	add	r10, r20
     5a8:	b5 1e       	adc	r11, r21
     5aa:	c6 01       	movw	r24, r12
     5ac:	0e 94 f1 03 	call	0x7e2	; 0x7e2 <strnlen_P>
     5b0:	8c 01       	movw	r16, r24
     5b2:	50 e8       	ldi	r21, 0x80	; 128
     5b4:	f5 2a       	or	r15, r21
     5b6:	f3 fe       	sbrs	r15, 3
     5b8:	07 c0       	rjmp	.+14     	; 0x5c8 <vfprintf+0x1a0>
     5ba:	1a c0       	rjmp	.+52     	; 0x5f0 <vfprintf+0x1c8>
     5bc:	80 e2       	ldi	r24, 0x20	; 32
     5be:	90 e0       	ldi	r25, 0x00	; 0
     5c0:	b3 01       	movw	r22, r6
     5c2:	0e 94 07 04 	call	0x80e	; 0x80e <fputc>
     5c6:	ea 94       	dec	r14
     5c8:	8e 2d       	mov	r24, r14
     5ca:	90 e0       	ldi	r25, 0x00	; 0
     5cc:	08 17       	cp	r16, r24
     5ce:	19 07       	cpc	r17, r25
     5d0:	a8 f3       	brcs	.-22     	; 0x5bc <vfprintf+0x194>
     5d2:	0e c0       	rjmp	.+28     	; 0x5f0 <vfprintf+0x1c8>
     5d4:	f6 01       	movw	r30, r12
     5d6:	f7 fc       	sbrc	r15, 7
     5d8:	85 91       	lpm	r24, Z+
     5da:	f7 fe       	sbrs	r15, 7
     5dc:	81 91       	ld	r24, Z+
     5de:	6f 01       	movw	r12, r30
     5e0:	90 e0       	ldi	r25, 0x00	; 0
     5e2:	b3 01       	movw	r22, r6
     5e4:	0e 94 07 04 	call	0x80e	; 0x80e <fputc>
     5e8:	e1 10       	cpse	r14, r1
     5ea:	ea 94       	dec	r14
     5ec:	01 50       	subi	r16, 0x01	; 1
     5ee:	10 40       	sbci	r17, 0x00	; 0
     5f0:	01 15       	cp	r16, r1
     5f2:	11 05       	cpc	r17, r1
     5f4:	79 f7       	brne	.-34     	; 0x5d4 <vfprintf+0x1ac>
     5f6:	ea c0       	rjmp	.+468    	; 0x7cc <vfprintf+0x3a4>
     5f8:	94 36       	cpi	r25, 0x64	; 100
     5fa:	11 f0       	breq	.+4      	; 0x600 <vfprintf+0x1d8>
     5fc:	99 36       	cpi	r25, 0x69	; 105
     5fe:	69 f5       	brne	.+90     	; 0x65a <vfprintf+0x232>
     600:	f7 fe       	sbrs	r15, 7
     602:	08 c0       	rjmp	.+16     	; 0x614 <vfprintf+0x1ec>
     604:	f5 01       	movw	r30, r10
     606:	20 81       	ld	r18, Z
     608:	31 81       	ldd	r19, Z+1	; 0x01
     60a:	42 81       	ldd	r20, Z+2	; 0x02
     60c:	53 81       	ldd	r21, Z+3	; 0x03
     60e:	84 e0       	ldi	r24, 0x04	; 4
     610:	90 e0       	ldi	r25, 0x00	; 0
     612:	0a c0       	rjmp	.+20     	; 0x628 <vfprintf+0x200>
     614:	f5 01       	movw	r30, r10
     616:	80 81       	ld	r24, Z
     618:	91 81       	ldd	r25, Z+1	; 0x01
     61a:	9c 01       	movw	r18, r24
     61c:	44 27       	eor	r20, r20
     61e:	37 fd       	sbrc	r19, 7
     620:	40 95       	com	r20
     622:	54 2f       	mov	r21, r20
     624:	82 e0       	ldi	r24, 0x02	; 2
     626:	90 e0       	ldi	r25, 0x00	; 0
     628:	a8 0e       	add	r10, r24
     62a:	b9 1e       	adc	r11, r25
     62c:	9f e6       	ldi	r25, 0x6F	; 111
     62e:	f9 22       	and	r15, r25
     630:	57 ff       	sbrs	r21, 7
     632:	09 c0       	rjmp	.+18     	; 0x646 <vfprintf+0x21e>
     634:	50 95       	com	r21
     636:	40 95       	com	r20
     638:	30 95       	com	r19
     63a:	21 95       	neg	r18
     63c:	3f 4f       	sbci	r19, 0xFF	; 255
     63e:	4f 4f       	sbci	r20, 0xFF	; 255
     640:	5f 4f       	sbci	r21, 0xFF	; 255
     642:	e0 e8       	ldi	r30, 0x80	; 128
     644:	fe 2a       	or	r15, r30
     646:	ca 01       	movw	r24, r20
     648:	b9 01       	movw	r22, r18
     64a:	a1 01       	movw	r20, r2
     64c:	2a e0       	ldi	r18, 0x0A	; 10
     64e:	30 e0       	ldi	r19, 0x00	; 0
     650:	0e 94 33 04 	call	0x866	; 0x866 <__ultoa_invert>
     654:	d8 2e       	mov	r13, r24
     656:	d2 18       	sub	r13, r2
     658:	40 c0       	rjmp	.+128    	; 0x6da <vfprintf+0x2b2>
     65a:	95 37       	cpi	r25, 0x75	; 117
     65c:	29 f4       	brne	.+10     	; 0x668 <vfprintf+0x240>
     65e:	1f 2d       	mov	r17, r15
     660:	1f 7e       	andi	r17, 0xEF	; 239
     662:	2a e0       	ldi	r18, 0x0A	; 10
     664:	30 e0       	ldi	r19, 0x00	; 0
     666:	1d c0       	rjmp	.+58     	; 0x6a2 <vfprintf+0x27a>
     668:	1f 2d       	mov	r17, r15
     66a:	19 7f       	andi	r17, 0xF9	; 249
     66c:	9f 36       	cpi	r25, 0x6F	; 111
     66e:	61 f0       	breq	.+24     	; 0x688 <vfprintf+0x260>
     670:	90 37       	cpi	r25, 0x70	; 112
     672:	20 f4       	brcc	.+8      	; 0x67c <vfprintf+0x254>
     674:	98 35       	cpi	r25, 0x58	; 88
     676:	09 f0       	breq	.+2      	; 0x67a <vfprintf+0x252>
     678:	ac c0       	rjmp	.+344    	; 0x7d2 <vfprintf+0x3aa>
     67a:	0f c0       	rjmp	.+30     	; 0x69a <vfprintf+0x272>
     67c:	90 37       	cpi	r25, 0x70	; 112
     67e:	39 f0       	breq	.+14     	; 0x68e <vfprintf+0x266>
     680:	98 37       	cpi	r25, 0x78	; 120
     682:	09 f0       	breq	.+2      	; 0x686 <vfprintf+0x25e>
     684:	a6 c0       	rjmp	.+332    	; 0x7d2 <vfprintf+0x3aa>
     686:	04 c0       	rjmp	.+8      	; 0x690 <vfprintf+0x268>
     688:	28 e0       	ldi	r18, 0x08	; 8
     68a:	30 e0       	ldi	r19, 0x00	; 0
     68c:	0a c0       	rjmp	.+20     	; 0x6a2 <vfprintf+0x27a>
     68e:	10 61       	ori	r17, 0x10	; 16
     690:	14 fd       	sbrc	r17, 4
     692:	14 60       	ori	r17, 0x04	; 4
     694:	20 e1       	ldi	r18, 0x10	; 16
     696:	30 e0       	ldi	r19, 0x00	; 0
     698:	04 c0       	rjmp	.+8      	; 0x6a2 <vfprintf+0x27a>
     69a:	14 fd       	sbrc	r17, 4
     69c:	16 60       	ori	r17, 0x06	; 6
     69e:	20 e1       	ldi	r18, 0x10	; 16
     6a0:	32 e0       	ldi	r19, 0x02	; 2
     6a2:	17 ff       	sbrs	r17, 7
     6a4:	08 c0       	rjmp	.+16     	; 0x6b6 <vfprintf+0x28e>
     6a6:	f5 01       	movw	r30, r10
     6a8:	60 81       	ld	r22, Z
     6aa:	71 81       	ldd	r23, Z+1	; 0x01
     6ac:	82 81       	ldd	r24, Z+2	; 0x02
     6ae:	93 81       	ldd	r25, Z+3	; 0x03
     6b0:	44 e0       	ldi	r20, 0x04	; 4
     6b2:	50 e0       	ldi	r21, 0x00	; 0
     6b4:	08 c0       	rjmp	.+16     	; 0x6c6 <vfprintf+0x29e>
     6b6:	f5 01       	movw	r30, r10
     6b8:	80 81       	ld	r24, Z
     6ba:	91 81       	ldd	r25, Z+1	; 0x01
     6bc:	bc 01       	movw	r22, r24
     6be:	80 e0       	ldi	r24, 0x00	; 0
     6c0:	90 e0       	ldi	r25, 0x00	; 0
     6c2:	42 e0       	ldi	r20, 0x02	; 2
     6c4:	50 e0       	ldi	r21, 0x00	; 0
     6c6:	a4 0e       	add	r10, r20
     6c8:	b5 1e       	adc	r11, r21
     6ca:	a1 01       	movw	r20, r2
     6cc:	0e 94 33 04 	call	0x866	; 0x866 <__ultoa_invert>
     6d0:	d8 2e       	mov	r13, r24
     6d2:	d2 18       	sub	r13, r2
     6d4:	8f e7       	ldi	r24, 0x7F	; 127
     6d6:	f8 2e       	mov	r15, r24
     6d8:	f1 22       	and	r15, r17
     6da:	f6 fe       	sbrs	r15, 6
     6dc:	0b c0       	rjmp	.+22     	; 0x6f4 <vfprintf+0x2cc>
     6de:	5e ef       	ldi	r21, 0xFE	; 254
     6e0:	f5 22       	and	r15, r21
     6e2:	d9 14       	cp	r13, r9
     6e4:	38 f4       	brcc	.+14     	; 0x6f4 <vfprintf+0x2cc>
     6e6:	f4 fe       	sbrs	r15, 4
     6e8:	07 c0       	rjmp	.+14     	; 0x6f8 <vfprintf+0x2d0>
     6ea:	f2 fc       	sbrc	r15, 2
     6ec:	05 c0       	rjmp	.+10     	; 0x6f8 <vfprintf+0x2d0>
     6ee:	8f ee       	ldi	r24, 0xEF	; 239
     6f0:	f8 22       	and	r15, r24
     6f2:	02 c0       	rjmp	.+4      	; 0x6f8 <vfprintf+0x2d0>
     6f4:	1d 2d       	mov	r17, r13
     6f6:	01 c0       	rjmp	.+2      	; 0x6fa <vfprintf+0x2d2>
     6f8:	19 2d       	mov	r17, r9
     6fa:	f4 fe       	sbrs	r15, 4
     6fc:	0d c0       	rjmp	.+26     	; 0x718 <vfprintf+0x2f0>
     6fe:	fe 01       	movw	r30, r28
     700:	ed 0d       	add	r30, r13
     702:	f1 1d       	adc	r31, r1
     704:	80 81       	ld	r24, Z
     706:	80 33       	cpi	r24, 0x30	; 48
     708:	19 f4       	brne	.+6      	; 0x710 <vfprintf+0x2e8>
     70a:	99 ee       	ldi	r25, 0xE9	; 233
     70c:	f9 22       	and	r15, r25
     70e:	08 c0       	rjmp	.+16     	; 0x720 <vfprintf+0x2f8>
     710:	1f 5f       	subi	r17, 0xFF	; 255
     712:	f2 fe       	sbrs	r15, 2
     714:	05 c0       	rjmp	.+10     	; 0x720 <vfprintf+0x2f8>
     716:	03 c0       	rjmp	.+6      	; 0x71e <vfprintf+0x2f6>
     718:	8f 2d       	mov	r24, r15
     71a:	86 78       	andi	r24, 0x86	; 134
     71c:	09 f0       	breq	.+2      	; 0x720 <vfprintf+0x2f8>
     71e:	1f 5f       	subi	r17, 0xFF	; 255
     720:	0f 2d       	mov	r16, r15
     722:	f3 fc       	sbrc	r15, 3
     724:	14 c0       	rjmp	.+40     	; 0x74e <vfprintf+0x326>
     726:	f0 fe       	sbrs	r15, 0
     728:	0f c0       	rjmp	.+30     	; 0x748 <vfprintf+0x320>
     72a:	1e 15       	cp	r17, r14
     72c:	10 f0       	brcs	.+4      	; 0x732 <vfprintf+0x30a>
     72e:	9d 2c       	mov	r9, r13
     730:	0b c0       	rjmp	.+22     	; 0x748 <vfprintf+0x320>
     732:	9d 2c       	mov	r9, r13
     734:	9e 0c       	add	r9, r14
     736:	91 1a       	sub	r9, r17
     738:	1e 2d       	mov	r17, r14
     73a:	06 c0       	rjmp	.+12     	; 0x748 <vfprintf+0x320>
     73c:	80 e2       	ldi	r24, 0x20	; 32
     73e:	90 e0       	ldi	r25, 0x00	; 0
     740:	b3 01       	movw	r22, r6
     742:	0e 94 07 04 	call	0x80e	; 0x80e <fputc>
     746:	1f 5f       	subi	r17, 0xFF	; 255
     748:	1e 15       	cp	r17, r14
     74a:	c0 f3       	brcs	.-16     	; 0x73c <vfprintf+0x314>
     74c:	04 c0       	rjmp	.+8      	; 0x756 <vfprintf+0x32e>
     74e:	1e 15       	cp	r17, r14
     750:	10 f4       	brcc	.+4      	; 0x756 <vfprintf+0x32e>
     752:	e1 1a       	sub	r14, r17
     754:	01 c0       	rjmp	.+2      	; 0x758 <vfprintf+0x330>
     756:	ee 24       	eor	r14, r14
     758:	04 ff       	sbrs	r16, 4
     75a:	0f c0       	rjmp	.+30     	; 0x77a <vfprintf+0x352>
     75c:	80 e3       	ldi	r24, 0x30	; 48
     75e:	90 e0       	ldi	r25, 0x00	; 0
     760:	b3 01       	movw	r22, r6
     762:	0e 94 07 04 	call	0x80e	; 0x80e <fputc>
     766:	02 ff       	sbrs	r16, 2
     768:	1d c0       	rjmp	.+58     	; 0x7a4 <vfprintf+0x37c>
     76a:	01 fd       	sbrc	r16, 1
     76c:	03 c0       	rjmp	.+6      	; 0x774 <vfprintf+0x34c>
     76e:	88 e7       	ldi	r24, 0x78	; 120
     770:	90 e0       	ldi	r25, 0x00	; 0
     772:	0e c0       	rjmp	.+28     	; 0x790 <vfprintf+0x368>
     774:	88 e5       	ldi	r24, 0x58	; 88
     776:	90 e0       	ldi	r25, 0x00	; 0
     778:	0b c0       	rjmp	.+22     	; 0x790 <vfprintf+0x368>
     77a:	80 2f       	mov	r24, r16
     77c:	86 78       	andi	r24, 0x86	; 134
     77e:	91 f0       	breq	.+36     	; 0x7a4 <vfprintf+0x37c>
     780:	01 ff       	sbrs	r16, 1
     782:	02 c0       	rjmp	.+4      	; 0x788 <vfprintf+0x360>
     784:	8b e2       	ldi	r24, 0x2B	; 43
     786:	01 c0       	rjmp	.+2      	; 0x78a <vfprintf+0x362>
     788:	80 e2       	ldi	r24, 0x20	; 32
     78a:	f7 fc       	sbrc	r15, 7
     78c:	8d e2       	ldi	r24, 0x2D	; 45
     78e:	90 e0       	ldi	r25, 0x00	; 0
     790:	b3 01       	movw	r22, r6
     792:	0e 94 07 04 	call	0x80e	; 0x80e <fputc>
     796:	06 c0       	rjmp	.+12     	; 0x7a4 <vfprintf+0x37c>
     798:	80 e3       	ldi	r24, 0x30	; 48
     79a:	90 e0       	ldi	r25, 0x00	; 0
     79c:	b3 01       	movw	r22, r6
     79e:	0e 94 07 04 	call	0x80e	; 0x80e <fputc>
     7a2:	9a 94       	dec	r9
     7a4:	d9 14       	cp	r13, r9
     7a6:	c0 f3       	brcs	.-16     	; 0x798 <vfprintf+0x370>
     7a8:	da 94       	dec	r13
     7aa:	f1 01       	movw	r30, r2
     7ac:	ed 0d       	add	r30, r13
     7ae:	f1 1d       	adc	r31, r1
     7b0:	80 81       	ld	r24, Z
     7b2:	90 e0       	ldi	r25, 0x00	; 0
     7b4:	b3 01       	movw	r22, r6
     7b6:	0e 94 07 04 	call	0x80e	; 0x80e <fputc>
     7ba:	dd 20       	and	r13, r13
     7bc:	a9 f7       	brne	.-22     	; 0x7a8 <vfprintf+0x380>
     7be:	06 c0       	rjmp	.+12     	; 0x7cc <vfprintf+0x3a4>
     7c0:	80 e2       	ldi	r24, 0x20	; 32
     7c2:	90 e0       	ldi	r25, 0x00	; 0
     7c4:	b3 01       	movw	r22, r6
     7c6:	0e 94 07 04 	call	0x80e	; 0x80e <fputc>
     7ca:	ea 94       	dec	r14
     7cc:	ee 20       	and	r14, r14
     7ce:	c1 f7       	brne	.-16     	; 0x7c0 <vfprintf+0x398>
     7d0:	43 ce       	rjmp	.-890    	; 0x458 <vfprintf+0x30>
     7d2:	f3 01       	movw	r30, r6
     7d4:	66 81       	ldd	r22, Z+6	; 0x06
     7d6:	77 81       	ldd	r23, Z+7	; 0x07
     7d8:	cb 01       	movw	r24, r22
     7da:	2b 96       	adiw	r28, 0x0b	; 11
     7dc:	e2 e1       	ldi	r30, 0x12	; 18
     7de:	0c 94 1c 16 	jmp	0x2c38	; 0x2c38 <__epilogue_restores__>

000007e2 <strnlen_P>:
     7e2:	fc 01       	movw	r30, r24
     7e4:	05 90       	lpm	r0, Z+
     7e6:	61 50       	subi	r22, 0x01	; 1
     7e8:	70 40       	sbci	r23, 0x00	; 0
     7ea:	01 10       	cpse	r0, r1
     7ec:	d8 f7       	brcc	.-10     	; 0x7e4 <strnlen_P+0x2>
     7ee:	80 95       	com	r24
     7f0:	90 95       	com	r25
     7f2:	8e 0f       	add	r24, r30
     7f4:	9f 1f       	adc	r25, r31
     7f6:	08 95       	ret

000007f8 <strnlen>:
     7f8:	fc 01       	movw	r30, r24
     7fa:	61 50       	subi	r22, 0x01	; 1
     7fc:	70 40       	sbci	r23, 0x00	; 0
     7fe:	01 90       	ld	r0, Z+
     800:	01 10       	cpse	r0, r1
     802:	d8 f7       	brcc	.-10     	; 0x7fa <strnlen+0x2>
     804:	80 95       	com	r24
     806:	90 95       	com	r25
     808:	8e 0f       	add	r24, r30
     80a:	9f 1f       	adc	r25, r31
     80c:	08 95       	ret

0000080e <fputc>:
     80e:	0f 93       	push	r16
     810:	1f 93       	push	r17
     812:	cf 93       	push	r28
     814:	df 93       	push	r29
     816:	8c 01       	movw	r16, r24
     818:	eb 01       	movw	r28, r22
     81a:	8b 81       	ldd	r24, Y+3	; 0x03
     81c:	81 ff       	sbrs	r24, 1
     81e:	1b c0       	rjmp	.+54     	; 0x856 <fputc+0x48>
     820:	82 ff       	sbrs	r24, 2
     822:	0d c0       	rjmp	.+26     	; 0x83e <fputc+0x30>
     824:	2e 81       	ldd	r18, Y+6	; 0x06
     826:	3f 81       	ldd	r19, Y+7	; 0x07
     828:	8c 81       	ldd	r24, Y+4	; 0x04
     82a:	9d 81       	ldd	r25, Y+5	; 0x05
     82c:	28 17       	cp	r18, r24
     82e:	39 07       	cpc	r19, r25
     830:	64 f4       	brge	.+24     	; 0x84a <fputc+0x3c>
     832:	e8 81       	ld	r30, Y
     834:	f9 81       	ldd	r31, Y+1	; 0x01
     836:	01 93       	st	Z+, r16
     838:	f9 83       	std	Y+1, r31	; 0x01
     83a:	e8 83       	st	Y, r30
     83c:	06 c0       	rjmp	.+12     	; 0x84a <fputc+0x3c>
     83e:	e8 85       	ldd	r30, Y+8	; 0x08
     840:	f9 85       	ldd	r31, Y+9	; 0x09
     842:	80 2f       	mov	r24, r16
     844:	09 95       	icall
     846:	89 2b       	or	r24, r25
     848:	31 f4       	brne	.+12     	; 0x856 <fputc+0x48>
     84a:	8e 81       	ldd	r24, Y+6	; 0x06
     84c:	9f 81       	ldd	r25, Y+7	; 0x07
     84e:	01 96       	adiw	r24, 0x01	; 1
     850:	9f 83       	std	Y+7, r25	; 0x07
     852:	8e 83       	std	Y+6, r24	; 0x06
     854:	02 c0       	rjmp	.+4      	; 0x85a <fputc+0x4c>
     856:	0f ef       	ldi	r16, 0xFF	; 255
     858:	1f ef       	ldi	r17, 0xFF	; 255
     85a:	c8 01       	movw	r24, r16
     85c:	df 91       	pop	r29
     85e:	cf 91       	pop	r28
     860:	1f 91       	pop	r17
     862:	0f 91       	pop	r16
     864:	08 95       	ret

00000866 <__ultoa_invert>:
     866:	fa 01       	movw	r30, r20
     868:	aa 27       	eor	r26, r26
     86a:	28 30       	cpi	r18, 0x08	; 8
     86c:	51 f1       	breq	.+84     	; 0x8c2 <__ultoa_invert+0x5c>
     86e:	20 31       	cpi	r18, 0x10	; 16
     870:	81 f1       	breq	.+96     	; 0x8d2 <__ultoa_invert+0x6c>
     872:	e8 94       	clt
     874:	6f 93       	push	r22
     876:	6e 7f       	andi	r22, 0xFE	; 254
     878:	6e 5f       	subi	r22, 0xFE	; 254
     87a:	7f 4f       	sbci	r23, 0xFF	; 255
     87c:	8f 4f       	sbci	r24, 0xFF	; 255
     87e:	9f 4f       	sbci	r25, 0xFF	; 255
     880:	af 4f       	sbci	r26, 0xFF	; 255
     882:	b1 e0       	ldi	r27, 0x01	; 1
     884:	3e d0       	rcall	.+124    	; 0x902 <__ultoa_invert+0x9c>
     886:	b4 e0       	ldi	r27, 0x04	; 4
     888:	3c d0       	rcall	.+120    	; 0x902 <__ultoa_invert+0x9c>
     88a:	67 0f       	add	r22, r23
     88c:	78 1f       	adc	r23, r24
     88e:	89 1f       	adc	r24, r25
     890:	9a 1f       	adc	r25, r26
     892:	a1 1d       	adc	r26, r1
     894:	68 0f       	add	r22, r24
     896:	79 1f       	adc	r23, r25
     898:	8a 1f       	adc	r24, r26
     89a:	91 1d       	adc	r25, r1
     89c:	a1 1d       	adc	r26, r1
     89e:	6a 0f       	add	r22, r26
     8a0:	71 1d       	adc	r23, r1
     8a2:	81 1d       	adc	r24, r1
     8a4:	91 1d       	adc	r25, r1
     8a6:	a1 1d       	adc	r26, r1
     8a8:	20 d0       	rcall	.+64     	; 0x8ea <__ultoa_invert+0x84>
     8aa:	09 f4       	brne	.+2      	; 0x8ae <__ultoa_invert+0x48>
     8ac:	68 94       	set
     8ae:	3f 91       	pop	r19
     8b0:	2a e0       	ldi	r18, 0x0A	; 10
     8b2:	26 9f       	mul	r18, r22
     8b4:	11 24       	eor	r1, r1
     8b6:	30 19       	sub	r19, r0
     8b8:	30 5d       	subi	r19, 0xD0	; 208
     8ba:	31 93       	st	Z+, r19
     8bc:	de f6       	brtc	.-74     	; 0x874 <__ultoa_invert+0xe>
     8be:	cf 01       	movw	r24, r30
     8c0:	08 95       	ret
     8c2:	46 2f       	mov	r20, r22
     8c4:	47 70       	andi	r20, 0x07	; 7
     8c6:	40 5d       	subi	r20, 0xD0	; 208
     8c8:	41 93       	st	Z+, r20
     8ca:	b3 e0       	ldi	r27, 0x03	; 3
     8cc:	0f d0       	rcall	.+30     	; 0x8ec <__ultoa_invert+0x86>
     8ce:	c9 f7       	brne	.-14     	; 0x8c2 <__ultoa_invert+0x5c>
     8d0:	f6 cf       	rjmp	.-20     	; 0x8be <__ultoa_invert+0x58>
     8d2:	46 2f       	mov	r20, r22
     8d4:	4f 70       	andi	r20, 0x0F	; 15
     8d6:	40 5d       	subi	r20, 0xD0	; 208
     8d8:	4a 33       	cpi	r20, 0x3A	; 58
     8da:	18 f0       	brcs	.+6      	; 0x8e2 <__ultoa_invert+0x7c>
     8dc:	49 5d       	subi	r20, 0xD9	; 217
     8de:	31 fd       	sbrc	r19, 1
     8e0:	40 52       	subi	r20, 0x20	; 32
     8e2:	41 93       	st	Z+, r20
     8e4:	02 d0       	rcall	.+4      	; 0x8ea <__ultoa_invert+0x84>
     8e6:	a9 f7       	brne	.-22     	; 0x8d2 <__ultoa_invert+0x6c>
     8e8:	ea cf       	rjmp	.-44     	; 0x8be <__ultoa_invert+0x58>
     8ea:	b4 e0       	ldi	r27, 0x04	; 4
     8ec:	a6 95       	lsr	r26
     8ee:	97 95       	ror	r25
     8f0:	87 95       	ror	r24
     8f2:	77 95       	ror	r23
     8f4:	67 95       	ror	r22
     8f6:	ba 95       	dec	r27
     8f8:	c9 f7       	brne	.-14     	; 0x8ec <__ultoa_invert+0x86>
     8fa:	00 97       	sbiw	r24, 0x00	; 0
     8fc:	61 05       	cpc	r22, r1
     8fe:	71 05       	cpc	r23, r1
     900:	08 95       	ret
     902:	9b 01       	movw	r18, r22
     904:	ac 01       	movw	r20, r24
     906:	0a 2e       	mov	r0, r26
     908:	06 94       	lsr	r0
     90a:	57 95       	ror	r21
     90c:	47 95       	ror	r20
     90e:	37 95       	ror	r19
     910:	27 95       	ror	r18
     912:	ba 95       	dec	r27
     914:	c9 f7       	brne	.-14     	; 0x908 <__ultoa_invert+0xa2>
     916:	62 0f       	add	r22, r18
     918:	73 1f       	adc	r23, r19
     91a:	84 1f       	adc	r24, r20
     91c:	95 1f       	adc	r25, r21
     91e:	a0 1d       	adc	r26, r0
     920:	08 95       	ret

00000922 <delay_ms>:
uchar buf[80];

/**
 * Some basic delay function
 */
void delay_ms(unsigned short ms) {
     922:	df 93       	push	r29
     924:	cf 93       	push	r28
     926:	00 d0       	rcall	.+0      	; 0x928 <delay_ms+0x6>
     928:	00 d0       	rcall	.+0      	; 0x92a <delay_ms+0x8>
     92a:	00 d0       	rcall	.+0      	; 0x92c <delay_ms+0xa>
     92c:	cd b7       	in	r28, 0x3d	; 61
     92e:	de b7       	in	r29, 0x3e	; 62
     930:	9e 83       	std	Y+6, r25	; 0x06
     932:	8d 83       	std	Y+5, r24	; 0x05
	unsigned short outer1, outer2;
	outer1 = 200 * 12;
     934:	80 e6       	ldi	r24, 0x60	; 96
     936:	99 e0       	ldi	r25, 0x09	; 9
     938:	9c 83       	std	Y+4, r25	; 0x04
     93a:	8b 83       	std	Y+3, r24	; 0x03
     93c:	1c c0       	rjmp	.+56     	; 0x976 <delay_ms+0x54>

	while (outer1) {
		outer2 = 100;
     93e:	84 e6       	ldi	r24, 0x64	; 100
     940:	90 e0       	ldi	r25, 0x00	; 0
     942:	9a 83       	std	Y+2, r25	; 0x02
     944:	89 83       	std	Y+1, r24	; 0x01
     946:	0e c0       	rjmp	.+28     	; 0x964 <delay_ms+0x42>
		while (outer2) {
			while (ms)
				ms--;
     948:	8d 81       	ldd	r24, Y+5	; 0x05
     94a:	9e 81       	ldd	r25, Y+6	; 0x06
     94c:	01 97       	sbiw	r24, 0x01	; 1
     94e:	9e 83       	std	Y+6, r25	; 0x06
     950:	8d 83       	std	Y+5, r24	; 0x05
	outer1 = 200 * 12;

	while (outer1) {
		outer2 = 100;
		while (outer2) {
			while (ms)
     952:	8d 81       	ldd	r24, Y+5	; 0x05
     954:	9e 81       	ldd	r25, Y+6	; 0x06
     956:	00 97       	sbiw	r24, 0x00	; 0
     958:	b9 f7       	brne	.-18     	; 0x948 <delay_ms+0x26>
				ms--;
			outer2--;
     95a:	89 81       	ldd	r24, Y+1	; 0x01
     95c:	9a 81       	ldd	r25, Y+2	; 0x02
     95e:	01 97       	sbiw	r24, 0x01	; 1
     960:	9a 83       	std	Y+2, r25	; 0x02
     962:	89 83       	std	Y+1, r24	; 0x01
	unsigned short outer1, outer2;
	outer1 = 200 * 12;

	while (outer1) {
		outer2 = 100;
		while (outer2) {
     964:	89 81       	ldd	r24, Y+1	; 0x01
     966:	9a 81       	ldd	r25, Y+2	; 0x02
     968:	00 97       	sbiw	r24, 0x00	; 0
     96a:	99 f7       	brne	.-26     	; 0x952 <delay_ms+0x30>
			while (ms)
				ms--;
			outer2--;
		}
		outer1--;
     96c:	8b 81       	ldd	r24, Y+3	; 0x03
     96e:	9c 81       	ldd	r25, Y+4	; 0x04
     970:	01 97       	sbiw	r24, 0x01	; 1
     972:	9c 83       	std	Y+4, r25	; 0x04
     974:	8b 83       	std	Y+3, r24	; 0x03
 */
void delay_ms(unsigned short ms) {
	unsigned short outer1, outer2;
	outer1 = 200 * 12;

	while (outer1) {
     976:	8b 81       	ldd	r24, Y+3	; 0x03
     978:	9c 81       	ldd	r25, Y+4	; 0x04
     97a:	00 97       	sbiw	r24, 0x00	; 0
     97c:	01 f7       	brne	.-64     	; 0x93e <delay_ms+0x1c>
				ms--;
			outer2--;
		}
		outer1--;
	}
}
     97e:	26 96       	adiw	r28, 0x06	; 6
     980:	0f b6       	in	r0, 0x3f	; 63
     982:	f8 94       	cli
     984:	de bf       	out	0x3e, r29	; 62
     986:	0f be       	out	0x3f, r0	; 63
     988:	cd bf       	out	0x3d, r28	; 61
     98a:	cf 91       	pop	r28
     98c:	df 91       	pop	r29
     98e:	08 95       	ret

00000990 <gpib_init>:
 * Init GPIB pins and variables.
 * \brief All signal lines not related to the controller part
 * 		are initialized with useful values.
 *		(The controller part initialization is done on gpib_controller_assert())
 */
void gpib_init(void) {
     990:	df 93       	push	r29
     992:	cf 93       	push	r28
     994:	cd b7       	in	r28, 0x3d	; 61
     996:	de b7       	in	r29, 0x3e	; 62
	// data lines - complete port A as input
	DDRA = 0x00;
     998:	ea e3       	ldi	r30, 0x3A	; 58
     99a:	f0 e0       	ldi	r31, 0x00	; 0
     99c:	10 82       	st	Z, r1

	// handshake lines - on port D , everything as input
	DDRD &= ~_BV(G_DAV); // DAV 
     99e:	a1 e3       	ldi	r26, 0x31	; 49
     9a0:	b0 e0       	ldi	r27, 0x00	; 0
     9a2:	e1 e3       	ldi	r30, 0x31	; 49
     9a4:	f0 e0       	ldi	r31, 0x00	; 0
     9a6:	80 81       	ld	r24, Z
     9a8:	8b 7f       	andi	r24, 0xFB	; 251
     9aa:	8c 93       	st	X, r24
	DDRD &= ~_BV(G_EOI); // EOI 
     9ac:	a1 e3       	ldi	r26, 0x31	; 49
     9ae:	b0 e0       	ldi	r27, 0x00	; 0
     9b0:	e1 e3       	ldi	r30, 0x31	; 49
     9b2:	f0 e0       	ldi	r31, 0x00	; 0
     9b4:	80 81       	ld	r24, Z
     9b6:	8f 7e       	andi	r24, 0xEF	; 239
     9b8:	8c 93       	st	X, r24
	DDRD &= ~_BV(G_SRQ); // SRQ 
     9ba:	a1 e3       	ldi	r26, 0x31	; 49
     9bc:	b0 e0       	ldi	r27, 0x00	; 0
     9be:	e1 e3       	ldi	r30, 0x31	; 49
     9c0:	f0 e0       	ldi	r31, 0x00	; 0
     9c2:	80 81       	ld	r24, Z
     9c4:	8f 7b       	andi	r24, 0xBF	; 191
     9c6:	8c 93       	st	X, r24
	DDRD &= ~_BV(G_ATN); // ATN  
     9c8:	a1 e3       	ldi	r26, 0x31	; 49
     9ca:	b0 e0       	ldi	r27, 0x00	; 0
     9cc:	e1 e3       	ldi	r30, 0x31	; 49
     9ce:	f0 e0       	ldi	r31, 0x00	; 0
     9d0:	80 81       	ld	r24, Z
     9d2:	8f 77       	andi	r24, 0x7F	; 127
     9d4:	8c 93       	st	X, r24
	DDRB &= ~_BV(G_REN); // REN  
     9d6:	a7 e3       	ldi	r26, 0x37	; 55
     9d8:	b0 e0       	ldi	r27, 0x00	; 0
     9da:	e7 e3       	ldi	r30, 0x37	; 55
     9dc:	f0 e0       	ldi	r31, 0x00	; 0
     9de:	80 81       	ld	r24, Z
     9e0:	8d 7f       	andi	r24, 0xFD	; 253
     9e2:	8c 93       	st	X, r24
	DDRB &= ~_BV(G_IFC); // IFC  
     9e4:	a7 e3       	ldi	r26, 0x37	; 55
     9e6:	b0 e0       	ldi	r27, 0x00	; 0
     9e8:	e7 e3       	ldi	r30, 0x37	; 55
     9ea:	f0 e0       	ldi	r31, 0x00	; 0
     9ec:	80 81       	ld	r24, Z
     9ee:	8e 7f       	andi	r24, 0xFE	; 254
     9f0:	8c 93       	st	X, r24

	// init handshake lines
	assign_bit(DDRD, PORTD, G_NRFD);
     9f2:	a2 e3       	ldi	r26, 0x32	; 50
     9f4:	b0 e0       	ldi	r27, 0x00	; 0
     9f6:	e2 e3       	ldi	r30, 0x32	; 50
     9f8:	f0 e0       	ldi	r31, 0x00	; 0
     9fa:	80 81       	ld	r24, Z
     9fc:	87 7f       	andi	r24, 0xF7	; 247
     9fe:	8c 93       	st	X, r24
     a00:	a1 e3       	ldi	r26, 0x31	; 49
     a02:	b0 e0       	ldi	r27, 0x00	; 0
     a04:	e1 e3       	ldi	r30, 0x31	; 49
     a06:	f0 e0       	ldi	r31, 0x00	; 0
     a08:	80 81       	ld	r24, Z
     a0a:	88 60       	ori	r24, 0x08	; 8
     a0c:	8c 93       	st	X, r24
     a0e:	a2 e3       	ldi	r26, 0x32	; 50
     a10:	b0 e0       	ldi	r27, 0x00	; 0
     a12:	e2 e3       	ldi	r30, 0x32	; 50
     a14:	f0 e0       	ldi	r31, 0x00	; 0
     a16:	80 81       	ld	r24, Z
     a18:	87 7f       	andi	r24, 0xF7	; 247
     a1a:	8c 93       	st	X, r24
	// not ready for data now
	release_bit(DDRD, PORTD, G_NDAC);
     a1c:	a1 e3       	ldi	r26, 0x31	; 49
     a1e:	b0 e0       	ldi	r27, 0x00	; 0
     a20:	e1 e3       	ldi	r30, 0x31	; 49
     a22:	f0 e0       	ldi	r31, 0x00	; 0
     a24:	80 81       	ld	r24, Z
     a26:	8f 7d       	andi	r24, 0xDF	; 223
     a28:	8c 93       	st	X, r24
     a2a:	a2 e3       	ldi	r26, 0x32	; 50
     a2c:	b0 e0       	ldi	r27, 0x00	; 0
     a2e:	e2 e3       	ldi	r30, 0x32	; 50
     a30:	f0 e0       	ldi	r31, 0x00	; 0
     a32:	80 81       	ld	r24, Z
     a34:	80 62       	ori	r24, 0x20	; 32
     a36:	8c 93       	st	X, r24
	// initially: ok so far
}
     a38:	cf 91       	pop	r28
     a3a:	df 91       	pop	r29
     a3c:	08 95       	ret

00000a3e <gpib_prepare_write>:

/**
 * Prepare partner for writing
 */
void gpib_prepare_write() {
     a3e:	df 93       	push	r29
     a40:	cf 93       	push	r28
     a42:	cd b7       	in	r28, 0x3d	; 61
     a44:	de b7       	in	r29, 0x3e	; 62
     a46:	28 97       	sbiw	r28, 0x08	; 8
     a48:	0f b6       	in	r0, 0x3f	; 63
     a4a:	f8 94       	cli
     a4c:	de bf       	out	0x3e, r29	; 62
     a4e:	0f be       	out	0x3f, r0	; 63
     a50:	cd bf       	out	0x3d, r28	; 61
	uchar controlString[8];
	// send UNT and UNL commands (unlisten and untalk)
	// effect: all talker stop talking and all listeners stop listening
	// untalk/unlisten all partbners
	gpib_untalkUnlisten();
     a52:	0e 94 8d 05 	call	0xb1a	; 0xb1a <gpib_untalkUnlisten>
	// set device to listener mode
	controlString[0] = address2ListenerAddress(gpib_get_partner_pad());
     a56:	0e 94 23 0d 	call	0x1a46	; 0x1a46 <gpib_get_partner_pad>
     a5a:	80 5e       	subi	r24, 0xE0	; 224
     a5c:	89 83       	std	Y+1, r24	; 0x01
	gpib_cmd(controlString, 1);
     a5e:	ce 01       	movw	r24, r28
     a60:	01 96       	adiw	r24, 0x01	; 1
     a62:	61 e0       	ldi	r22, 0x01	; 1
     a64:	70 e0       	ldi	r23, 0x00	; 0
     a66:	0e 94 31 07 	call	0xe62	; 0xe62 <gpib_cmd>
	// send secondary address if required
	if (gpib_get_partner_sad() != ADDRESS_NOT_SET) {
     a6a:	0e 94 2c 0d 	call	0x1a58	; 0x1a58 <gpib_get_partner_sad>
     a6e:	8f 3f       	cpi	r24, 0xFF	; 255
     a70:	51 f0       	breq	.+20     	; 0xa86 <gpib_prepare_write+0x48>
		controlString[0] = secondaryAdressToAdressByte(gpib_get_partner_sad());
     a72:	0e 94 2c 0d 	call	0x1a58	; 0x1a58 <gpib_get_partner_sad>
     a76:	80 66       	ori	r24, 0x60	; 96
     a78:	89 83       	std	Y+1, r24	; 0x01
		gpib_cmd(controlString, 1);
     a7a:	ce 01       	movw	r24, r28
     a7c:	01 96       	adiw	r24, 0x01	; 1
     a7e:	61 e0       	ldi	r22, 0x01	; 1
     a80:	70 e0       	ldi	r23, 0x00	; 0
     a82:	0e 94 31 07 	call	0xe62	; 0xe62 <gpib_cmd>
	}
	// set myself (controller) to talker mode
	controlString[0] = address2TalkerAddress(gpib_get_address());
     a86:	0e 94 35 0d 	call	0x1a6a	; 0x1a6a <gpib_get_address>
     a8a:	80 5c       	subi	r24, 0xC0	; 192
     a8c:	89 83       	std	Y+1, r24	; 0x01
	gpib_cmd(controlString, 1);
     a8e:	ce 01       	movw	r24, r28
     a90:	01 96       	adiw	r24, 0x01	; 1
     a92:	61 e0       	ldi	r22, 0x01	; 1
     a94:	70 e0       	ldi	r23, 0x00	; 0
     a96:	0e 94 31 07 	call	0xe62	; 0xe62 <gpib_cmd>
}
     a9a:	28 96       	adiw	r28, 0x08	; 8
     a9c:	0f b6       	in	r0, 0x3f	; 63
     a9e:	f8 94       	cli
     aa0:	de bf       	out	0x3e, r29	; 62
     aa2:	0f be       	out	0x3f, r0	; 63
     aa4:	cd bf       	out	0x3d, r28	; 61
     aa6:	cf 91       	pop	r28
     aa8:	df 91       	pop	r29
     aaa:	08 95       	ret

00000aac <gpib_prepare_read>:

/**
 * Prepare partner for writing
 */
void gpib_prepare_read() {
     aac:	df 93       	push	r29
     aae:	cf 93       	push	r28
     ab0:	cd b7       	in	r28, 0x3d	; 61
     ab2:	de b7       	in	r29, 0x3e	; 62
     ab4:	28 97       	sbiw	r28, 0x08	; 8
     ab6:	0f b6       	in	r0, 0x3f	; 63
     ab8:	f8 94       	cli
     aba:	de bf       	out	0x3e, r29	; 62
     abc:	0f be       	out	0x3f, r0	; 63
     abe:	cd bf       	out	0x3d, r28	; 61
	uchar controlString[8];
	// untalk/unlisten all partbners
	gpib_untalkUnlisten();
     ac0:	0e 94 8d 05 	call	0xb1a	; 0xb1a <gpib_untalkUnlisten>
	// set myself (controller) to listener mode
	controlString[0] = address2ListenerAddress(gpib_get_address());
     ac4:	0e 94 35 0d 	call	0x1a6a	; 0x1a6a <gpib_get_address>
     ac8:	80 5e       	subi	r24, 0xE0	; 224
     aca:	89 83       	std	Y+1, r24	; 0x01
	gpib_cmd(controlString, 1);
     acc:	ce 01       	movw	r24, r28
     ace:	01 96       	adiw	r24, 0x01	; 1
     ad0:	61 e0       	ldi	r22, 0x01	; 1
     ad2:	70 e0       	ldi	r23, 0x00	; 0
     ad4:	0e 94 31 07 	call	0xe62	; 0xe62 <gpib_cmd>
	// set device to talker mode
	controlString[0] = address2TalkerAddress(gpib_get_partner_pad());
     ad8:	0e 94 23 0d 	call	0x1a46	; 0x1a46 <gpib_get_partner_pad>
     adc:	80 5c       	subi	r24, 0xC0	; 192
     ade:	89 83       	std	Y+1, r24	; 0x01
	gpib_cmd(controlString, 1);
     ae0:	ce 01       	movw	r24, r28
     ae2:	01 96       	adiw	r24, 0x01	; 1
     ae4:	61 e0       	ldi	r22, 0x01	; 1
     ae6:	70 e0       	ldi	r23, 0x00	; 0
     ae8:	0e 94 31 07 	call	0xe62	; 0xe62 <gpib_cmd>
	// secondary address if required
	if (gpib_get_partner_sad() != ADDRESS_NOT_SET) {
     aec:	0e 94 2c 0d 	call	0x1a58	; 0x1a58 <gpib_get_partner_sad>
     af0:	8f 3f       	cpi	r24, 0xFF	; 255
     af2:	51 f0       	breq	.+20     	; 0xb08 <gpib_prepare_read+0x5c>
		controlString[0] = secondaryAdressToAdressByte(gpib_get_partner_sad());
     af4:	0e 94 2c 0d 	call	0x1a58	; 0x1a58 <gpib_get_partner_sad>
     af8:	80 66       	ori	r24, 0x60	; 96
     afa:	89 83       	std	Y+1, r24	; 0x01
		gpib_cmd(controlString, 1);
     afc:	ce 01       	movw	r24, r28
     afe:	01 96       	adiw	r24, 0x01	; 1
     b00:	61 e0       	ldi	r22, 0x01	; 1
     b02:	70 e0       	ldi	r23, 0x00	; 0
     b04:	0e 94 31 07 	call	0xe62	; 0xe62 <gpib_cmd>
	}
}
     b08:	28 96       	adiw	r28, 0x08	; 8
     b0a:	0f b6       	in	r0, 0x3f	; 63
     b0c:	f8 94       	cli
     b0e:	de bf       	out	0x3e, r29	; 62
     b10:	0f be       	out	0x3f, r0	; 63
     b12:	cd bf       	out	0x3d, r28	; 61
     b14:	cf 91       	pop	r28
     b16:	df 91       	pop	r29
     b18:	08 95       	ret

00000b1a <gpib_untalkUnlisten>:

/**
 * Untalk / unlisten all partners on bus.
 */
void gpib_untalkUnlisten() {
     b1a:	df 93       	push	r29
     b1c:	cf 93       	push	r28
     b1e:	cd b7       	in	r28, 0x3d	; 61
     b20:	de b7       	in	r29, 0x3e	; 62
     b22:	28 97       	sbiw	r28, 0x08	; 8
     b24:	0f b6       	in	r0, 0x3f	; 63
     b26:	f8 94       	cli
     b28:	de bf       	out	0x3e, r29	; 62
     b2a:	0f be       	out	0x3f, r0	; 63
     b2c:	cd bf       	out	0x3d, r28	; 61
	uchar controlString[8];
	// send UNT and UNL commands (unlisten and untalk)
	// effect: all talker stop talking and all listeners stop listening
	controlString[0] = G_CMD_UNT;
     b2e:	8f e5       	ldi	r24, 0x5F	; 95
     b30:	89 83       	std	Y+1, r24	; 0x01
	gpib_cmd(controlString, 1);
     b32:	ce 01       	movw	r24, r28
     b34:	01 96       	adiw	r24, 0x01	; 1
     b36:	61 e0       	ldi	r22, 0x01	; 1
     b38:	70 e0       	ldi	r23, 0x00	; 0
     b3a:	0e 94 31 07 	call	0xe62	; 0xe62 <gpib_cmd>
	controlString[0] = G_CMD_UNL;
     b3e:	8f e3       	ldi	r24, 0x3F	; 63
     b40:	89 83       	std	Y+1, r24	; 0x01
	gpib_cmd(controlString, 1);
     b42:	ce 01       	movw	r24, r28
     b44:	01 96       	adiw	r24, 0x01	; 1
     b46:	61 e0       	ldi	r22, 0x01	; 1
     b48:	70 e0       	ldi	r23, 0x00	; 0
     b4a:	0e 94 31 07 	call	0xe62	; 0xe62 <gpib_cmd>
}
     b4e:	28 96       	adiw	r28, 0x08	; 8
     b50:	0f b6       	in	r0, 0x3f	; 63
     b52:	f8 94       	cli
     b54:	de bf       	out	0x3e, r29	; 62
     b56:	0f be       	out	0x3f, r0	; 63
     b58:	cd bf       	out	0x3d, r28	; 61
     b5a:	cf 91       	pop	r28
     b5c:	df 91       	pop	r29
     b5e:	08 95       	ret

00000b60 <gpib_receive>:
 *  \returns		On any error, 0xff is returned. in this case, the value of parameter *_byte is undefined.
 * 		Otherwise the value of the EOI signal line during read is returned. If EOI was assigned, a 0x01 is
 * 		returned. If EOI was not assigned, a 0x00 is returned. Assignment of EOI means that the talker
 * 		is sending the last character for this transmission.
 */
uchar gpib_receive(uchar* _byte) {
     b60:	df 93       	push	r29
     b62:	cf 93       	push	r28
     b64:	cd b7       	in	r28, 0x3d	; 61
     b66:	de b7       	in	r29, 0x3e	; 62
     b68:	27 97       	sbiw	r28, 0x07	; 7
     b6a:	0f b6       	in	r0, 0x3f	; 63
     b6c:	f8 94       	cli
     b6e:	de bf       	out	0x3e, r29	; 62
     b70:	0f be       	out	0x3f, r0	; 63
     b72:	cd bf       	out	0x3d, r28	; 61
     b74:	9e 83       	std	Y+6, r25	; 0x06
     b76:	8d 83       	std	Y+5, r24	; 0x05
	int timeout;
	uchar byte, eoi;

	//uart_puts("\n\rgpib_receive()\n\r");

	if (controller.talks == 1) {
     b78:	80 91 5d 04 	lds	r24, 0x045D
     b7c:	81 30       	cpi	r24, 0x01	; 1
     b7e:	39 f4       	brne	.+14     	; 0xb8e <gpib_receive+0x2e>
		*_byte = 0xff;
     b80:	ed 81       	ldd	r30, Y+5	; 0x05
     b82:	fe 81       	ldd	r31, Y+6	; 0x06
     b84:	8f ef       	ldi	r24, 0xFF	; 255
     b86:	80 83       	st	Z, r24
		return 0xff;
     b88:	8f ef       	ldi	r24, 0xFF	; 255
     b8a:	8f 83       	std	Y+7, r24	; 0x07
     b8c:	c6 c0       	rjmp	.+396    	; 0xd1a <gpib_receive+0x1ba>
	}

	// handshake: set nrfd, means i am ready to receive some data
	release_bit(DDRD, PORTD, G_NRFD);
     b8e:	a1 e3       	ldi	r26, 0x31	; 49
     b90:	b0 e0       	ldi	r27, 0x00	; 0
     b92:	e1 e3       	ldi	r30, 0x31	; 49
     b94:	f0 e0       	ldi	r31, 0x00	; 0
     b96:	80 81       	ld	r24, Z
     b98:	87 7f       	andi	r24, 0xF7	; 247
     b9a:	8c 93       	st	X, r24
     b9c:	a2 e3       	ldi	r26, 0x32	; 50
     b9e:	b0 e0       	ldi	r27, 0x00	; 0
     ba0:	e2 e3       	ldi	r30, 0x32	; 50
     ba2:	f0 e0       	ldi	r31, 0x00	; 0
     ba4:	80 81       	ld	r24, Z
     ba6:	88 60       	ori	r24, 0x08	; 8
     ba8:	8c 93       	st	X, r24
	assign_bit(DDRD, PORTD, G_NDAC);
     baa:	a2 e3       	ldi	r26, 0x32	; 50
     bac:	b0 e0       	ldi	r27, 0x00	; 0
     bae:	e2 e3       	ldi	r30, 0x32	; 50
     bb0:	f0 e0       	ldi	r31, 0x00	; 0
     bb2:	80 81       	ld	r24, Z
     bb4:	8f 7d       	andi	r24, 0xDF	; 223
     bb6:	8c 93       	st	X, r24
     bb8:	a1 e3       	ldi	r26, 0x31	; 49
     bba:	b0 e0       	ldi	r27, 0x00	; 0
     bbc:	e1 e3       	ldi	r30, 0x31	; 49
     bbe:	f0 e0       	ldi	r31, 0x00	; 0
     bc0:	80 81       	ld	r24, Z
     bc2:	80 62       	ori	r24, 0x20	; 32
     bc4:	8c 93       	st	X, r24
     bc6:	a2 e3       	ldi	r26, 0x32	; 50
     bc8:	b0 e0       	ldi	r27, 0x00	; 0
     bca:	e2 e3       	ldi	r30, 0x32	; 50
     bcc:	f0 e0       	ldi	r31, 0x00	; 0
     bce:	80 81       	ld	r24, Z
     bd0:	8f 7d       	andi	r24, 0xDF	; 223
     bd2:	8c 93       	st	X, r24

	//gpib_info();

#ifdef WITH_TIMEOUT
	timeout = s + 5;
     bd4:	80 91 c7 05 	lds	r24, 0x05C7
     bd8:	88 2f       	mov	r24, r24
     bda:	90 e0       	ldi	r25, 0x00	; 0
     bdc:	05 96       	adiw	r24, 0x05	; 5
     bde:	9c 83       	std	Y+4, r25	; 0x04
     be0:	8b 83       	std	Y+3, r24	; 0x03
     be2:	10 c0       	rjmp	.+32     	; 0xc04 <gpib_receive+0xa4>
	//gpib_info();
	while ((PIND & _BV(G_DAV)) && (s <= timeout)) {
		if (s == timeout) {
     be4:	80 91 c7 05 	lds	r24, 0x05C7
     be8:	28 2f       	mov	r18, r24
     bea:	30 e0       	ldi	r19, 0x00	; 0
     bec:	8b 81       	ldd	r24, Y+3	; 0x03
     bee:	9c 81       	ldd	r25, Y+4	; 0x04
     bf0:	28 17       	cp	r18, r24
     bf2:	39 07       	cpc	r19, r25
     bf4:	39 f4       	brne	.+14     	; 0xc04 <gpib_receive+0xa4>
			uart_puts("\n\rError: DAV timeout (1)\n\r");
     bf6:	80 e6       	ldi	r24, 0x60	; 96
     bf8:	90 e0       	ldi	r25, 0x00	; 0
     bfa:	0e 94 94 15 	call	0x2b28	; 0x2b28 <uart_puts>
			return 0xff;
     bfe:	8f ef       	ldi	r24, 0xFF	; 255
     c00:	8f 83       	std	Y+7, r24	; 0x07
     c02:	8b c0       	rjmp	.+278    	; 0xd1a <gpib_receive+0x1ba>
	//gpib_info();

#ifdef WITH_TIMEOUT
	timeout = s + 5;
	//gpib_info();
	while ((PIND & _BV(G_DAV)) && (s <= timeout)) {
     c04:	e0 e3       	ldi	r30, 0x30	; 48
     c06:	f0 e0       	ldi	r31, 0x00	; 0
     c08:	80 81       	ld	r24, Z
     c0a:	88 2f       	mov	r24, r24
     c0c:	90 e0       	ldi	r25, 0x00	; 0
     c0e:	84 70       	andi	r24, 0x04	; 4
     c10:	90 70       	andi	r25, 0x00	; 0
     c12:	00 97       	sbiw	r24, 0x00	; 0
     c14:	49 f0       	breq	.+18     	; 0xc28 <gpib_receive+0xc8>
     c16:	80 91 c7 05 	lds	r24, 0x05C7
     c1a:	28 2f       	mov	r18, r24
     c1c:	30 e0       	ldi	r19, 0x00	; 0
     c1e:	8b 81       	ldd	r24, Y+3	; 0x03
     c20:	9c 81       	ldd	r25, Y+4	; 0x04
     c22:	82 17       	cp	r24, r18
     c24:	93 07       	cpc	r25, r19
     c26:	f4 f6       	brge	.-68     	; 0xbe4 <gpib_receive+0x84>
#else
	loop_until_bit_is_clear(PIND,G_DAV);
#endif

	// handshake: clear NRFD, means i am busy now to read data
	assign_bit(DDRD, PORTD, G_NRFD);
     c28:	a2 e3       	ldi	r26, 0x32	; 50
     c2a:	b0 e0       	ldi	r27, 0x00	; 0
     c2c:	e2 e3       	ldi	r30, 0x32	; 50
     c2e:	f0 e0       	ldi	r31, 0x00	; 0
     c30:	80 81       	ld	r24, Z
     c32:	87 7f       	andi	r24, 0xF7	; 247
     c34:	8c 93       	st	X, r24
     c36:	a1 e3       	ldi	r26, 0x31	; 49
     c38:	b0 e0       	ldi	r27, 0x00	; 0
     c3a:	e1 e3       	ldi	r30, 0x31	; 49
     c3c:	f0 e0       	ldi	r31, 0x00	; 0
     c3e:	80 81       	ld	r24, Z
     c40:	88 60       	ori	r24, 0x08	; 8
     c42:	8c 93       	st	X, r24
     c44:	a2 e3       	ldi	r26, 0x32	; 50
     c46:	b0 e0       	ldi	r27, 0x00	; 0
     c48:	e2 e3       	ldi	r30, 0x32	; 50
     c4a:	f0 e0       	ldi	r31, 0x00	; 0
     c4c:	80 81       	ld	r24, Z
     c4e:	87 7f       	andi	r24, 0xF7	; 247
     c50:	8c 93       	st	X, r24
	// read data
	byte = PINA ^ 0xff;
     c52:	e9 e3       	ldi	r30, 0x39	; 57
     c54:	f0 e0       	ldi	r31, 0x00	; 0
     c56:	80 81       	ld	r24, Z
     c58:	80 95       	com	r24
     c5a:	8a 83       	std	Y+2, r24	; 0x02

	// handshake: set ndac, means i have completed/accepted the read
	release_bit(DDRD, PORTD, G_NDAC);
     c5c:	a1 e3       	ldi	r26, 0x31	; 49
     c5e:	b0 e0       	ldi	r27, 0x00	; 0
     c60:	e1 e3       	ldi	r30, 0x31	; 49
     c62:	f0 e0       	ldi	r31, 0x00	; 0
     c64:	80 81       	ld	r24, Z
     c66:	8f 7d       	andi	r24, 0xDF	; 223
     c68:	8c 93       	st	X, r24
     c6a:	a2 e3       	ldi	r26, 0x32	; 50
     c6c:	b0 e0       	ldi	r27, 0x00	; 0
     c6e:	e2 e3       	ldi	r30, 0x32	; 50
     c70:	f0 e0       	ldi	r31, 0x00	; 0
     c72:	80 81       	ld	r24, Z
     c74:	80 62       	ori	r24, 0x20	; 32
     c76:	8c 93       	st	X, r24

#ifdef WITH_TIMEOUT
	timeout = s + 5;
     c78:	80 91 c7 05 	lds	r24, 0x05C7
     c7c:	88 2f       	mov	r24, r24
     c7e:	90 e0       	ldi	r25, 0x00	; 0
     c80:	05 96       	adiw	r24, 0x05	; 5
     c82:	9c 83       	std	Y+4, r25	; 0x04
     c84:	8b 83       	std	Y+3, r24	; 0x03
     c86:	10 c0       	rjmp	.+32     	; 0xca8 <gpib_receive+0x148>
	//gpib_info();
	while (!(PIND & _BV(G_DAV)) && (s <= timeout)) {
		if (s == timeout) {
     c88:	80 91 c7 05 	lds	r24, 0x05C7
     c8c:	28 2f       	mov	r18, r24
     c8e:	30 e0       	ldi	r19, 0x00	; 0
     c90:	8b 81       	ldd	r24, Y+3	; 0x03
     c92:	9c 81       	ldd	r25, Y+4	; 0x04
     c94:	28 17       	cp	r18, r24
     c96:	39 07       	cpc	r19, r25
     c98:	39 f4       	brne	.+14     	; 0xca8 <gpib_receive+0x148>
			uart_puts("\n\rError: DAV timeout (2)\n\r");
     c9a:	8b e7       	ldi	r24, 0x7B	; 123
     c9c:	90 e0       	ldi	r25, 0x00	; 0
     c9e:	0e 94 94 15 	call	0x2b28	; 0x2b28 <uart_puts>
			return 0xff;
     ca2:	8f ef       	ldi	r24, 0xFF	; 255
     ca4:	8f 83       	std	Y+7, r24	; 0x07
     ca6:	39 c0       	rjmp	.+114    	; 0xd1a <gpib_receive+0x1ba>
	release_bit(DDRD, PORTD, G_NDAC);

#ifdef WITH_TIMEOUT
	timeout = s + 5;
	//gpib_info();
	while (!(PIND & _BV(G_DAV)) && (s <= timeout)) {
     ca8:	e0 e3       	ldi	r30, 0x30	; 48
     caa:	f0 e0       	ldi	r31, 0x00	; 0
     cac:	80 81       	ld	r24, Z
     cae:	88 2f       	mov	r24, r24
     cb0:	90 e0       	ldi	r25, 0x00	; 0
     cb2:	84 70       	andi	r24, 0x04	; 4
     cb4:	90 70       	andi	r25, 0x00	; 0
     cb6:	00 97       	sbiw	r24, 0x00	; 0
     cb8:	49 f4       	brne	.+18     	; 0xccc <gpib_receive+0x16c>
     cba:	80 91 c7 05 	lds	r24, 0x05C7
     cbe:	28 2f       	mov	r18, r24
     cc0:	30 e0       	ldi	r19, 0x00	; 0
     cc2:	8b 81       	ldd	r24, Y+3	; 0x03
     cc4:	9c 81       	ldd	r25, Y+4	; 0x04
     cc6:	82 17       	cp	r24, r18
     cc8:	93 07       	cpc	r25, r19
     cca:	f4 f6       	brge	.-68     	; 0xc88 <gpib_receive+0x128>
	}
#else
	loop_until_bit_is_set(PIND,G_DAV);
#endif
	// handshake: clear ndac (this is a prerequisite for receive next byte)
	assign_bit(DDRD, PORTD, G_NDAC);
     ccc:	a2 e3       	ldi	r26, 0x32	; 50
     cce:	b0 e0       	ldi	r27, 0x00	; 0
     cd0:	e2 e3       	ldi	r30, 0x32	; 50
     cd2:	f0 e0       	ldi	r31, 0x00	; 0
     cd4:	80 81       	ld	r24, Z
     cd6:	8f 7d       	andi	r24, 0xDF	; 223
     cd8:	8c 93       	st	X, r24
     cda:	a1 e3       	ldi	r26, 0x31	; 49
     cdc:	b0 e0       	ldi	r27, 0x00	; 0
     cde:	e1 e3       	ldi	r30, 0x31	; 49
     ce0:	f0 e0       	ldi	r31, 0x00	; 0
     ce2:	80 81       	ld	r24, Z
     ce4:	80 62       	ori	r24, 0x20	; 32
     ce6:	8c 93       	st	X, r24
     ce8:	a2 e3       	ldi	r26, 0x32	; 50
     cea:	b0 e0       	ldi	r27, 0x00	; 0
     cec:	e2 e3       	ldi	r30, 0x32	; 50
     cee:	f0 e0       	ldi	r31, 0x00	; 0
     cf0:	80 81       	ld	r24, Z
     cf2:	8f 7d       	andi	r24, 0xDF	; 223
     cf4:	8c 93       	st	X, r24

	// check if last byte of transmission
	eoi = bit_is_clear(PIND, G_EOI);
     cf6:	e0 e3       	ldi	r30, 0x30	; 48
     cf8:	f0 e0       	ldi	r31, 0x00	; 0
     cfa:	80 81       	ld	r24, Z
     cfc:	88 2f       	mov	r24, r24
     cfe:	90 e0       	ldi	r25, 0x00	; 0
     d00:	80 71       	andi	r24, 0x10	; 16
     d02:	90 70       	andi	r25, 0x00	; 0
     d04:	19 82       	std	Y+1, r1	; 0x01
     d06:	00 97       	sbiw	r24, 0x00	; 0
     d08:	11 f4       	brne	.+4      	; 0xd0e <gpib_receive+0x1ae>
     d0a:	81 e0       	ldi	r24, 0x01	; 1
     d0c:	89 83       	std	Y+1, r24	; 0x01

	*_byte = byte;
     d0e:	ed 81       	ldd	r30, Y+5	; 0x05
     d10:	fe 81       	ldd	r31, Y+6	; 0x06
     d12:	8a 81       	ldd	r24, Y+2	; 0x02
     d14:	80 83       	st	Z, r24

	return eoi;
     d16:	89 81       	ldd	r24, Y+1	; 0x01
     d18:	8f 83       	std	Y+7, r24	; 0x07
     d1a:	8f 81       	ldd	r24, Y+7	; 0x07
}
     d1c:	27 96       	adiw	r28, 0x07	; 7
     d1e:	0f b6       	in	r0, 0x3f	; 63
     d20:	f8 94       	cli
     d22:	de bf       	out	0x3e, r29	; 62
     d24:	0f be       	out	0x3f, r0	; 63
     d26:	cd bf       	out	0x3d, r28	; 61
     d28:	cf 91       	pop	r28
     d2a:	df 91       	pop	r29
     d2c:	08 95       	ret

00000d2e <gpib_controller_assign>:
 * You have to change the initialization of the partner array according to your environment.
 * The partners-array is used by gpib_serial_poll() for looping over all existing devices.
 * 
 * \param address the address to be used by the controller. Usually 0x00.
 */
void gpib_controller_assign(uchar address) {
     d2e:	df 93       	push	r29
     d30:	cf 93       	push	r28
     d32:	0f 92       	push	r0
     d34:	cd b7       	in	r28, 0x3d	; 61
     d36:	de b7       	in	r29, 0x3e	; 62
     d38:	89 83       	std	Y+1, r24	; 0x01
	controller.myaddress = address;
     d3a:	89 81       	ldd	r24, Y+1	; 0x01
     d3c:	80 93 5a 04 	sts	0x045A, r24
	controller.talks = 0;
     d40:	10 92 5d 04 	sts	0x045D, r1
	controller.partner.primary = ADDRESS_NOT_SET; // init default active partner
     d44:	8f ef       	ldi	r24, 0xFF	; 255
     d46:	80 93 5b 04 	sts	0x045B, r24
	controller.partner.secondary = ADDRESS_NOT_SET;
     d4a:	8f ef       	ldi	r24, 0xFF	; 255
     d4c:	80 93 5c 04 	sts	0x045C, r24
	controller.flavour = FLAVOUR_NONE;
     d50:	10 92 5e 04 	sts	0x045E, r1
	/** clear list of partners */
	gpib_clear_partners();
     d54:	0e 94 54 0d 	call	0x1aa8	; 0x1aa8 <gpib_clear_partners>
	// set up initial state of bus
	assign_bit(DDRB, PORTB, G_IFC);
     d58:	a8 e3       	ldi	r26, 0x38	; 56
     d5a:	b0 e0       	ldi	r27, 0x00	; 0
     d5c:	e8 e3       	ldi	r30, 0x38	; 56
     d5e:	f0 e0       	ldi	r31, 0x00	; 0
     d60:	80 81       	ld	r24, Z
     d62:	8e 7f       	andi	r24, 0xFE	; 254
     d64:	8c 93       	st	X, r24
     d66:	a7 e3       	ldi	r26, 0x37	; 55
     d68:	b0 e0       	ldi	r27, 0x00	; 0
     d6a:	e7 e3       	ldi	r30, 0x37	; 55
     d6c:	f0 e0       	ldi	r31, 0x00	; 0
     d6e:	80 81       	ld	r24, Z
     d70:	81 60       	ori	r24, 0x01	; 1
     d72:	8c 93       	st	X, r24
     d74:	a8 e3       	ldi	r26, 0x38	; 56
     d76:	b0 e0       	ldi	r27, 0x00	; 0
     d78:	e8 e3       	ldi	r30, 0x38	; 56
     d7a:	f0 e0       	ldi	r31, 0x00	; 0
     d7c:	80 81       	ld	r24, Z
     d7e:	8e 7f       	andi	r24, 0xFE	; 254
     d80:	8c 93       	st	X, r24
	delay_ms(200);
     d82:	88 ec       	ldi	r24, 0xC8	; 200
     d84:	90 e0       	ldi	r25, 0x00	; 0
     d86:	0e 94 91 04 	call	0x922	; 0x922 <delay_ms>
	release_bit(DDRB, PORTB, G_IFC);
     d8a:	a7 e3       	ldi	r26, 0x37	; 55
     d8c:	b0 e0       	ldi	r27, 0x00	; 0
     d8e:	e7 e3       	ldi	r30, 0x37	; 55
     d90:	f0 e0       	ldi	r31, 0x00	; 0
     d92:	80 81       	ld	r24, Z
     d94:	8e 7f       	andi	r24, 0xFE	; 254
     d96:	8c 93       	st	X, r24
     d98:	a8 e3       	ldi	r26, 0x38	; 56
     d9a:	b0 e0       	ldi	r27, 0x00	; 0
     d9c:	e8 e3       	ldi	r30, 0x38	; 56
     d9e:	f0 e0       	ldi	r31, 0x00	; 0
     da0:	80 81       	ld	r24, Z
     da2:	81 60       	ori	r24, 0x01	; 1
     da4:	8c 93       	st	X, r24
	// set up all devices for remote control
	assign_bit(DDRB, PORTB, G_REN);
     da6:	a8 e3       	ldi	r26, 0x38	; 56
     da8:	b0 e0       	ldi	r27, 0x00	; 0
     daa:	e8 e3       	ldi	r30, 0x38	; 56
     dac:	f0 e0       	ldi	r31, 0x00	; 0
     dae:	80 81       	ld	r24, Z
     db0:	8d 7f       	andi	r24, 0xFD	; 253
     db2:	8c 93       	st	X, r24
     db4:	a7 e3       	ldi	r26, 0x37	; 55
     db6:	b0 e0       	ldi	r27, 0x00	; 0
     db8:	e7 e3       	ldi	r30, 0x37	; 55
     dba:	f0 e0       	ldi	r31, 0x00	; 0
     dbc:	80 81       	ld	r24, Z
     dbe:	82 60       	ori	r24, 0x02	; 2
     dc0:	8c 93       	st	X, r24
     dc2:	a8 e3       	ldi	r26, 0x38	; 56
     dc4:	b0 e0       	ldi	r27, 0x00	; 0
     dc6:	e8 e3       	ldi	r30, 0x38	; 56
     dc8:	f0 e0       	ldi	r31, 0x00	; 0
     dca:	80 81       	ld	r24, Z
     dcc:	8d 7f       	andi	r24, 0xFD	; 253
     dce:	8c 93       	st	X, r24

	// DCL - device clear for all devices on bus
	cmd_buf[0] = G_CMD_DCL;
     dd0:	84 e1       	ldi	r24, 0x14	; 20
     dd2:	80 93 12 05 	sts	0x0512, r24
	gpib_cmd(cmd_buf, 1);
     dd6:	82 e1       	ldi	r24, 0x12	; 18
     dd8:	95 e0       	ldi	r25, 0x05	; 5
     dda:	61 e0       	ldi	r22, 0x01	; 1
     ddc:	70 e0       	ldi	r23, 0x00	; 0
     dde:	0e 94 31 07 	call	0xe62	; 0xe62 <gpib_cmd>
}
     de2:	0f 90       	pop	r0
     de4:	cf 91       	pop	r28
     de6:	df 91       	pop	r29
     de8:	08 95       	ret

00000dea <gpib_controller_release>:

/**
 * Release bus 
 */
void gpib_controller_release(void) {
     dea:	df 93       	push	r29
     dec:	cf 93       	push	r28
     dee:	cd b7       	in	r28, 0x3d	; 61
     df0:	de b7       	in	r29, 0x3e	; 62
	// set up initial state of bus
	assign_bit(DDRB, PORTB, G_IFC);
     df2:	a8 e3       	ldi	r26, 0x38	; 56
     df4:	b0 e0       	ldi	r27, 0x00	; 0
     df6:	e8 e3       	ldi	r30, 0x38	; 56
     df8:	f0 e0       	ldi	r31, 0x00	; 0
     dfa:	80 81       	ld	r24, Z
     dfc:	8e 7f       	andi	r24, 0xFE	; 254
     dfe:	8c 93       	st	X, r24
     e00:	a7 e3       	ldi	r26, 0x37	; 55
     e02:	b0 e0       	ldi	r27, 0x00	; 0
     e04:	e7 e3       	ldi	r30, 0x37	; 55
     e06:	f0 e0       	ldi	r31, 0x00	; 0
     e08:	80 81       	ld	r24, Z
     e0a:	81 60       	ori	r24, 0x01	; 1
     e0c:	8c 93       	st	X, r24
     e0e:	a8 e3       	ldi	r26, 0x38	; 56
     e10:	b0 e0       	ldi	r27, 0x00	; 0
     e12:	e8 e3       	ldi	r30, 0x38	; 56
     e14:	f0 e0       	ldi	r31, 0x00	; 0
     e16:	80 81       	ld	r24, Z
     e18:	8e 7f       	andi	r24, 0xFE	; 254
     e1a:	8c 93       	st	X, r24
	delay_ms(200);
     e1c:	88 ec       	ldi	r24, 0xC8	; 200
     e1e:	90 e0       	ldi	r25, 0x00	; 0
     e20:	0e 94 91 04 	call	0x922	; 0x922 <delay_ms>
	release_bit(DDRB, PORTB, G_IFC);
     e24:	a7 e3       	ldi	r26, 0x37	; 55
     e26:	b0 e0       	ldi	r27, 0x00	; 0
     e28:	e7 e3       	ldi	r30, 0x37	; 55
     e2a:	f0 e0       	ldi	r31, 0x00	; 0
     e2c:	80 81       	ld	r24, Z
     e2e:	8e 7f       	andi	r24, 0xFE	; 254
     e30:	8c 93       	st	X, r24
     e32:	a8 e3       	ldi	r26, 0x38	; 56
     e34:	b0 e0       	ldi	r27, 0x00	; 0
     e36:	e8 e3       	ldi	r30, 0x38	; 56
     e38:	f0 e0       	ldi	r31, 0x00	; 0
     e3a:	80 81       	ld	r24, Z
     e3c:	81 60       	ori	r24, 0x01	; 1
     e3e:	8c 93       	st	X, r24
	// set up all devices for local control
	release_bit(DDRB, PORTB, G_REN);
     e40:	a7 e3       	ldi	r26, 0x37	; 55
     e42:	b0 e0       	ldi	r27, 0x00	; 0
     e44:	e7 e3       	ldi	r30, 0x37	; 55
     e46:	f0 e0       	ldi	r31, 0x00	; 0
     e48:	80 81       	ld	r24, Z
     e4a:	8d 7f       	andi	r24, 0xFD	; 253
     e4c:	8c 93       	st	X, r24
     e4e:	a8 e3       	ldi	r26, 0x38	; 56
     e50:	b0 e0       	ldi	r27, 0x00	; 0
     e52:	e8 e3       	ldi	r30, 0x38	; 56
     e54:	f0 e0       	ldi	r31, 0x00	; 0
     e56:	80 81       	ld	r24, Z
     e58:	82 60       	ori	r24, 0x02	; 2
     e5a:	8c 93       	st	X, r24
}
     e5c:	cf 91       	pop	r28
     e5e:	df 91       	pop	r29
     e60:	08 95       	ret

00000e62 <gpib_cmd>:
 * \param bytes byte array containing bytes to be send
 * \param length length of valid bytes in byte array or zero.
 * for binary data, lenght must be defined. For strings, length can be set to zero. Then the length of
 * the string is calculated internally.
  */
uchar gpib_cmd(uchar *bytes, int length) {
     e62:	df 93       	push	r29
     e64:	cf 93       	push	r28
     e66:	cd b7       	in	r28, 0x3d	; 61
     e68:	de b7       	in	r29, 0x3e	; 62
     e6a:	2b 97       	sbiw	r28, 0x0b	; 11
     e6c:	0f b6       	in	r0, 0x3f	; 63
     e6e:	f8 94       	cli
     e70:	de bf       	out	0x3e, r29	; 62
     e72:	0f be       	out	0x3f, r0	; 63
     e74:	cd bf       	out	0x3d, r28	; 61
     e76:	9f 83       	std	Y+7, r25	; 0x07
     e78:	8e 83       	std	Y+6, r24	; 0x06
     e7a:	79 87       	std	Y+9, r23	; 0x09
     e7c:	68 87       	std	Y+8, r22	; 0x08
	uchar c;
	int i;
	// set attention arg true for commands
	uchar attention = 1;
     e7e:	81 e0       	ldi	r24, 0x01	; 1
     e80:	8a 83       	std	Y+2, r24	; 0x02

	gpib_write_prologue(attention);
     e82:	8a 81       	ldd	r24, Y+2	; 0x02
     e84:	0e 94 8d 07 	call	0xf1a	; 0xf1a <gpib_write_prologue>

	if (length == 0) {
     e88:	88 85       	ldd	r24, Y+8	; 0x08
     e8a:	99 85       	ldd	r25, Y+9	; 0x09
     e8c:	00 97       	sbiw	r24, 0x00	; 0
     e8e:	31 f4       	brne	.+12     	; 0xe9c <gpib_cmd+0x3a>
		// length==0 means this is a common C string, null-terminated.
		// then, length can be easily calculated
		length = strlen((char*) bytes);
     e90:	8e 81       	ldd	r24, Y+6	; 0x06
     e92:	9f 81       	ldd	r25, Y+7	; 0x07
     e94:	0e 94 ad 01 	call	0x35a	; 0x35a <strlen>
     e98:	99 87       	std	Y+9, r25	; 0x09
     e9a:	88 87       	std	Y+8, r24	; 0x08
		sprintf(buf, "gpib_write: 0x%02x\n\r", bytes[0]);
		uart_puts((char*) buf);
	}
#endif

	for (i = 0; i < length; i++) {
     e9c:	1c 82       	std	Y+4, r1	; 0x04
     e9e:	1b 82       	std	Y+3, r1	; 0x03
     ea0:	28 c0       	rjmp	.+80     	; 0xef2 <gpib_cmd+0x90>
		// put data on bus
		c = bytes[i];
     ea2:	2b 81       	ldd	r18, Y+3	; 0x03
     ea4:	3c 81       	ldd	r19, Y+4	; 0x04
     ea6:	8e 81       	ldd	r24, Y+6	; 0x06
     ea8:	9f 81       	ldd	r25, Y+7	; 0x07
     eaa:	fc 01       	movw	r30, r24
     eac:	e2 0f       	add	r30, r18
     eae:	f3 1f       	adc	r31, r19
     eb0:	80 81       	ld	r24, Z
     eb2:	8d 83       	std	Y+5, r24	; 0x05
		//sprintf( buf, "char: %c\n\r", c );
		//uart_puts(buf);

		uchar isLastByte = (i == length - 1) && !attention;
     eb4:	88 85       	ldd	r24, Y+8	; 0x08
     eb6:	99 85       	ldd	r25, Y+9	; 0x09
     eb8:	9c 01       	movw	r18, r24
     eba:	21 50       	subi	r18, 0x01	; 1
     ebc:	30 40       	sbci	r19, 0x00	; 0
     ebe:	8b 81       	ldd	r24, Y+3	; 0x03
     ec0:	9c 81       	ldd	r25, Y+4	; 0x04
     ec2:	28 17       	cp	r18, r24
     ec4:	39 07       	cpc	r19, r25
     ec6:	41 f4       	brne	.+16     	; 0xed8 <gpib_cmd+0x76>
     ec8:	8a 81       	ldd	r24, Y+2	; 0x02
     eca:	88 23       	and	r24, r24
     ecc:	29 f4       	brne	.+10     	; 0xed8 <gpib_cmd+0x76>
     ece:	81 e0       	ldi	r24, 0x01	; 1
     ed0:	90 e0       	ldi	r25, 0x00	; 0
     ed2:	9b 87       	std	Y+11, r25	; 0x0b
     ed4:	8a 87       	std	Y+10, r24	; 0x0a
     ed6:	02 c0       	rjmp	.+4      	; 0xedc <gpib_cmd+0x7a>
     ed8:	1b 86       	std	Y+11, r1	; 0x0b
     eda:	1a 86       	std	Y+10, r1	; 0x0a
     edc:	9a 85       	ldd	r25, Y+10	; 0x0a
     ede:	99 83       	std	Y+1, r25	; 0x01
		gpib_write_byte(c, isLastByte);
     ee0:	8d 81       	ldd	r24, Y+5	; 0x05
     ee2:	69 81       	ldd	r22, Y+1	; 0x01
     ee4:	0e 94 46 08 	call	0x108c	; 0x108c <gpib_write_byte>
		sprintf(buf, "gpib_write: 0x%02x\n\r", bytes[0]);
		uart_puts((char*) buf);
	}
#endif

	for (i = 0; i < length; i++) {
     ee8:	8b 81       	ldd	r24, Y+3	; 0x03
     eea:	9c 81       	ldd	r25, Y+4	; 0x04
     eec:	01 96       	adiw	r24, 0x01	; 1
     eee:	9c 83       	std	Y+4, r25	; 0x04
     ef0:	8b 83       	std	Y+3, r24	; 0x03
     ef2:	2b 81       	ldd	r18, Y+3	; 0x03
     ef4:	3c 81       	ldd	r19, Y+4	; 0x04
     ef6:	88 85       	ldd	r24, Y+8	; 0x08
     ef8:	99 85       	ldd	r25, Y+9	; 0x09
     efa:	28 17       	cp	r18, r24
     efc:	39 07       	cpc	r19, r25
     efe:	8c f2       	brlt	.-94     	; 0xea2 <gpib_cmd+0x40>

		uchar isLastByte = (i == length - 1) && !attention;
		gpib_write_byte(c, isLastByte);
	}

	gpib_write_epilogue(attention);
     f00:	8a 81       	ldd	r24, Y+2	; 0x02
     f02:	0e 94 dc 07 	call	0xfb8	; 0xfb8 <gpib_write_epilogue>

	return 0x00;
     f06:	80 e0       	ldi	r24, 0x00	; 0
}
     f08:	2b 96       	adiw	r28, 0x0b	; 11
     f0a:	0f b6       	in	r0, 0x3f	; 63
     f0c:	f8 94       	cli
     f0e:	de bf       	out	0x3e, r29	; 62
     f10:	0f be       	out	0x3f, r0	; 63
     f12:	cd bf       	out	0x3d, r28	; 61
     f14:	cf 91       	pop	r28
     f16:	df 91       	pop	r29
     f18:	08 95       	ret

00000f1a <gpib_write_prologue>:

/**
 * Emits prologue before writing to a listener.
 *
 */
void gpib_write_prologue(uchar attention) {
     f1a:	df 93       	push	r29
     f1c:	cf 93       	push	r28
     f1e:	0f 92       	push	r0
     f20:	cd b7       	in	r28, 0x3d	; 61
     f22:	de b7       	in	r29, 0x3e	; 62
     f24:	89 83       	std	Y+1, r24	; 0x01
	// set talks state. This is used by ISR to recognize own talk
	// (controller must not talk to itself and must not take part in listener handshake when talking)
	controller.talks = 1;
     f26:	81 e0       	ldi	r24, 0x01	; 1
     f28:	80 93 5d 04 	sts	0x045D, r24
	if (attention) {
     f2c:	89 81       	ldd	r24, Y+1	; 0x01
     f2e:	88 23       	and	r24, r24
     f30:	a9 f0       	breq	.+42     	; 0xf5c <gpib_write_prologue+0x42>
		//uart_puts("\n\rgpib_controller_write()\n\r");
		// assign ATN for commands
		assign_bit(DDRD, PORTD, G_ATN);
     f32:	a2 e3       	ldi	r26, 0x32	; 50
     f34:	b0 e0       	ldi	r27, 0x00	; 0
     f36:	e2 e3       	ldi	r30, 0x32	; 50
     f38:	f0 e0       	ldi	r31, 0x00	; 0
     f3a:	80 81       	ld	r24, Z
     f3c:	8f 77       	andi	r24, 0x7F	; 127
     f3e:	8c 93       	st	X, r24
     f40:	a1 e3       	ldi	r26, 0x31	; 49
     f42:	b0 e0       	ldi	r27, 0x00	; 0
     f44:	e1 e3       	ldi	r30, 0x31	; 49
     f46:	f0 e0       	ldi	r31, 0x00	; 0
     f48:	80 81       	ld	r24, Z
     f4a:	80 68       	ori	r24, 0x80	; 128
     f4c:	8c 93       	st	X, r24
     f4e:	a2 e3       	ldi	r26, 0x32	; 50
     f50:	b0 e0       	ldi	r27, 0x00	; 0
     f52:	e2 e3       	ldi	r30, 0x32	; 50
     f54:	f0 e0       	ldi	r31, 0x00	; 0
     f56:	80 81       	ld	r24, Z
     f58:	8f 77       	andi	r24, 0x7F	; 127
     f5a:	8c 93       	st	X, r24
	}
	// release EOI during transmission
	release_bit(DDRD, PORTD, G_EOI);
     f5c:	a1 e3       	ldi	r26, 0x31	; 49
     f5e:	b0 e0       	ldi	r27, 0x00	; 0
     f60:	e1 e3       	ldi	r30, 0x31	; 49
     f62:	f0 e0       	ldi	r31, 0x00	; 0
     f64:	80 81       	ld	r24, Z
     f66:	8f 7e       	andi	r24, 0xEF	; 239
     f68:	8c 93       	st	X, r24
     f6a:	a2 e3       	ldi	r26, 0x32	; 50
     f6c:	b0 e0       	ldi	r27, 0x00	; 0
     f6e:	e2 e3       	ldi	r30, 0x32	; 50
     f70:	f0 e0       	ldi	r31, 0x00	; 0
     f72:	80 81       	ld	r24, Z
     f74:	80 61       	ori	r24, 0x10	; 16
     f76:	8c 93       	st	X, r24
	// release DAV, data not valid anymore
	release_bit(DDRD, PORTD, G_DAV);
     f78:	a1 e3       	ldi	r26, 0x31	; 49
     f7a:	b0 e0       	ldi	r27, 0x00	; 0
     f7c:	e1 e3       	ldi	r30, 0x31	; 49
     f7e:	f0 e0       	ldi	r31, 0x00	; 0
     f80:	80 81       	ld	r24, Z
     f82:	8b 7f       	andi	r24, 0xFB	; 251
     f84:	8c 93       	st	X, r24
     f86:	a2 e3       	ldi	r26, 0x32	; 50
     f88:	b0 e0       	ldi	r27, 0x00	; 0
     f8a:	e2 e3       	ldi	r30, 0x32	; 50
     f8c:	f0 e0       	ldi	r31, 0x00	; 0
     f8e:	80 81       	ld	r24, Z
     f90:	84 60       	ori	r24, 0x04	; 4
     f92:	8c 93       	st	X, r24
	// release NRFD (just to be sure)
	release_bit(DDRD, PORTD, G_NRFD);
     f94:	a1 e3       	ldi	r26, 0x31	; 49
     f96:	b0 e0       	ldi	r27, 0x00	; 0
     f98:	e1 e3       	ldi	r30, 0x31	; 49
     f9a:	f0 e0       	ldi	r31, 0x00	; 0
     f9c:	80 81       	ld	r24, Z
     f9e:	87 7f       	andi	r24, 0xF7	; 247
     fa0:	8c 93       	st	X, r24
     fa2:	a2 e3       	ldi	r26, 0x32	; 50
     fa4:	b0 e0       	ldi	r27, 0x00	; 0
     fa6:	e2 e3       	ldi	r30, 0x32	; 50
     fa8:	f0 e0       	ldi	r31, 0x00	; 0
     faa:	80 81       	ld	r24, Z
     fac:	88 60       	ori	r24, 0x08	; 8
     fae:	8c 93       	st	X, r24
}
     fb0:	0f 90       	pop	r0
     fb2:	cf 91       	pop	r28
     fb4:	df 91       	pop	r29
     fb6:	08 95       	ret

00000fb8 <gpib_write_epilogue>:

/**
 * Emits epilogue after writing to a listener.
 *
 */
void gpib_write_epilogue(uchar attention) {
     fb8:	df 93       	push	r29
     fba:	cf 93       	push	r28
     fbc:	0f 92       	push	r0
     fbe:	cd b7       	in	r28, 0x3d	; 61
     fc0:	de b7       	in	r29, 0x3e	; 62
     fc2:	89 83       	std	Y+1, r24	; 0x01
	if (attention) {
     fc4:	89 81       	ldd	r24, Y+1	; 0x01
     fc6:	88 23       	and	r24, r24
     fc8:	71 f0       	breq	.+28     	; 0xfe6 <gpib_write_epilogue+0x2e>
		// assign ATN for commands
		release_bit(DDRD, PORTD, G_ATN);
     fca:	a1 e3       	ldi	r26, 0x31	; 49
     fcc:	b0 e0       	ldi	r27, 0x00	; 0
     fce:	e1 e3       	ldi	r30, 0x31	; 49
     fd0:	f0 e0       	ldi	r31, 0x00	; 0
     fd2:	80 81       	ld	r24, Z
     fd4:	8f 77       	andi	r24, 0x7F	; 127
     fd6:	8c 93       	st	X, r24
     fd8:	a2 e3       	ldi	r26, 0x32	; 50
     fda:	b0 e0       	ldi	r27, 0x00	; 0
     fdc:	e2 e3       	ldi	r30, 0x32	; 50
     fde:	f0 e0       	ldi	r31, 0x00	; 0
     fe0:	80 81       	ld	r24, Z
     fe2:	80 68       	ori	r24, 0x80	; 128
     fe4:	8c 93       	st	X, r24
	}
	// clear talk state.Controller does not talk anymore.
	controller.talks = 0;
     fe6:	10 92 5d 04 	sts	0x045D, r1
}
     fea:	0f 90       	pop	r0
     fec:	cf 91       	pop	r28
     fee:	df 91       	pop	r29
     ff0:	08 95       	ret

00000ff2 <gpib_write_command>:
 * - prefix with GPIB write prologue
 * - the string
 * - postfix with GPIB epilogue
 * - postfix that untalks/unlistens all partners
 */
void gpib_write_command(uchar *s) {
     ff2:	df 93       	push	r29
     ff4:	cf 93       	push	r28
     ff6:	00 d0       	rcall	.+0      	; 0xff8 <gpib_write_command+0x6>
     ff8:	cd b7       	in	r28, 0x3d	; 61
     ffa:	de b7       	in	r29, 0x3e	; 62
     ffc:	9a 83       	std	Y+2, r25	; 0x02
     ffe:	89 83       	std	Y+1, r24	; 0x01
	gpib_prepare_write();
    1000:	0e 94 1f 05 	call	0xa3e	; 0xa3e <gpib_prepare_write>
	gpib_write_prologue(0);
    1004:	80 e0       	ldi	r24, 0x00	; 0
    1006:	0e 94 8d 07 	call	0xf1a	; 0xf1a <gpib_write_prologue>
	gpib_write_string(s);
    100a:	89 81       	ldd	r24, Y+1	; 0x01
    100c:	9a 81       	ldd	r25, Y+2	; 0x02
    100e:	0e 94 17 08 	call	0x102e	; 0x102e <gpib_write_string>
	gpib_write_byte(ASCII_CODE_CR, 1);
    1012:	8d e0       	ldi	r24, 0x0D	; 13
    1014:	61 e0       	ldi	r22, 0x01	; 1
    1016:	0e 94 46 08 	call	0x108c	; 0x108c <gpib_write_byte>
	gpib_write_epilogue(0);
    101a:	80 e0       	ldi	r24, 0x00	; 0
    101c:	0e 94 dc 07 	call	0xfb8	; 0xfb8 <gpib_write_epilogue>
	gpib_untalkUnlisten();
    1020:	0e 94 8d 05 	call	0xb1a	; 0xb1a <gpib_untalkUnlisten>
}
    1024:	0f 90       	pop	r0
    1026:	0f 90       	pop	r0
    1028:	cf 91       	pop	r28
    102a:	df 91       	pop	r29
    102c:	08 95       	ret

0000102e <gpib_write_string>:

/**
 * Write string. Only the raw string is written, no prefix and no postfix.
 */
void gpib_write_string(uchar *s) {
    102e:	0f 93       	push	r16
    1030:	1f 93       	push	r17
    1032:	df 93       	push	r29
    1034:	cf 93       	push	r28
    1036:	00 d0       	rcall	.+0      	; 0x1038 <gpib_write_string+0xa>
    1038:	00 d0       	rcall	.+0      	; 0x103a <gpib_write_string+0xc>
    103a:	cd b7       	in	r28, 0x3d	; 61
    103c:	de b7       	in	r29, 0x3e	; 62
    103e:	9c 83       	std	Y+4, r25	; 0x04
    1040:	8b 83       	std	Y+3, r24	; 0x03
	for (int i = 0; i < strlen(s); i++) {
    1042:	1a 82       	std	Y+2, r1	; 0x02
    1044:	19 82       	std	Y+1, r1	; 0x01
    1046:	10 c0       	rjmp	.+32     	; 0x1068 <gpib_write_string+0x3a>
		gpib_write_byte(s[i], 0);
    1048:	29 81       	ldd	r18, Y+1	; 0x01
    104a:	3a 81       	ldd	r19, Y+2	; 0x02
    104c:	8b 81       	ldd	r24, Y+3	; 0x03
    104e:	9c 81       	ldd	r25, Y+4	; 0x04
    1050:	fc 01       	movw	r30, r24
    1052:	e2 0f       	add	r30, r18
    1054:	f3 1f       	adc	r31, r19
    1056:	80 81       	ld	r24, Z
    1058:	60 e0       	ldi	r22, 0x00	; 0
    105a:	0e 94 46 08 	call	0x108c	; 0x108c <gpib_write_byte>

/**
 * Write string. Only the raw string is written, no prefix and no postfix.
 */
void gpib_write_string(uchar *s) {
	for (int i = 0; i < strlen(s); i++) {
    105e:	89 81       	ldd	r24, Y+1	; 0x01
    1060:	9a 81       	ldd	r25, Y+2	; 0x02
    1062:	01 96       	adiw	r24, 0x01	; 1
    1064:	9a 83       	std	Y+2, r25	; 0x02
    1066:	89 83       	std	Y+1, r24	; 0x01
    1068:	09 81       	ldd	r16, Y+1	; 0x01
    106a:	1a 81       	ldd	r17, Y+2	; 0x02
    106c:	8b 81       	ldd	r24, Y+3	; 0x03
    106e:	9c 81       	ldd	r25, Y+4	; 0x04
    1070:	0e 94 ad 01 	call	0x35a	; 0x35a <strlen>
    1074:	08 17       	cp	r16, r24
    1076:	19 07       	cpc	r17, r25
    1078:	38 f3       	brcs	.-50     	; 0x1048 <gpib_write_string+0x1a>
		gpib_write_byte(s[i], 0);
	}
}
    107a:	0f 90       	pop	r0
    107c:	0f 90       	pop	r0
    107e:	0f 90       	pop	r0
    1080:	0f 90       	pop	r0
    1082:	cf 91       	pop	r28
    1084:	df 91       	pop	r29
    1086:	1f 91       	pop	r17
    1088:	0f 91       	pop	r16
    108a:	08 95       	ret

0000108c <gpib_write_byte>:


/**
 * Emits single byte to GPIB port pins.
 */
uchar gpib_write_byte(uchar c, uchar isLastByte) {
    108c:	df 93       	push	r29
    108e:	cf 93       	push	r28
    1090:	00 d0       	rcall	.+0      	; 0x1092 <gpib_write_byte+0x6>
    1092:	00 d0       	rcall	.+0      	; 0x1094 <gpib_write_byte+0x8>
    1094:	0f 92       	push	r0
    1096:	cd b7       	in	r28, 0x3d	; 61
    1098:	de b7       	in	r29, 0x3e	; 62
    109a:	8b 83       	std	Y+3, r24	; 0x03
    109c:	6c 83       	std	Y+4, r22	; 0x04
	int timeout;

	// wait for NDAC assign from all listeners
	release_bit(DDRD, PORTD, G_NDAC);
    109e:	a1 e3       	ldi	r26, 0x31	; 49
    10a0:	b0 e0       	ldi	r27, 0x00	; 0
    10a2:	e1 e3       	ldi	r30, 0x31	; 49
    10a4:	f0 e0       	ldi	r31, 0x00	; 0
    10a6:	80 81       	ld	r24, Z
    10a8:	8f 7d       	andi	r24, 0xDF	; 223
    10aa:	8c 93       	st	X, r24
    10ac:	a2 e3       	ldi	r26, 0x32	; 50
    10ae:	b0 e0       	ldi	r27, 0x00	; 0
    10b0:	e2 e3       	ldi	r30, 0x32	; 50
    10b2:	f0 e0       	ldi	r31, 0x00	; 0
    10b4:	80 81       	ld	r24, Z
    10b6:	80 62       	ori	r24, 0x20	; 32
    10b8:	8c 93       	st	X, r24
#ifdef WITH_TIMEOUT
	timeout = s + 5;
    10ba:	80 91 c7 05 	lds	r24, 0x05C7
    10be:	88 2f       	mov	r24, r24
    10c0:	90 e0       	ldi	r25, 0x00	; 0
    10c2:	05 96       	adiw	r24, 0x05	; 5
    10c4:	9a 83       	std	Y+2, r25	; 0x02
    10c6:	89 83       	std	Y+1, r24	; 0x01
    10c8:	10 c0       	rjmp	.+32     	; 0x10ea <gpib_write_byte+0x5e>
	//gpib_info();
	while ((PIND & _BV(G_NDAC)) && (s <= timeout)) {
		if (s == timeout) {
    10ca:	80 91 c7 05 	lds	r24, 0x05C7
    10ce:	28 2f       	mov	r18, r24
    10d0:	30 e0       	ldi	r19, 0x00	; 0
    10d2:	89 81       	ldd	r24, Y+1	; 0x01
    10d4:	9a 81       	ldd	r25, Y+2	; 0x02
    10d6:	28 17       	cp	r18, r24
    10d8:	39 07       	cpc	r19, r25
    10da:	39 f4       	brne	.+14     	; 0x10ea <gpib_write_byte+0x5e>
			uart_puts("\n\rError: NDAC timeout\n\r");
    10dc:	86 e9       	ldi	r24, 0x96	; 150
    10de:	90 e0       	ldi	r25, 0x00	; 0
    10e0:	0e 94 94 15 	call	0x2b28	; 0x2b28 <uart_puts>
			return 0xff;
    10e4:	8f ef       	ldi	r24, 0xFF	; 255
    10e6:	8d 83       	std	Y+5, r24	; 0x05
    10e8:	f7 c1       	rjmp	.+1006   	; 0x14d8 <gpib_write_byte+0x44c>
	// wait for NDAC assign from all listeners
	release_bit(DDRD, PORTD, G_NDAC);
#ifdef WITH_TIMEOUT
	timeout = s + 5;
	//gpib_info();
	while ((PIND & _BV(G_NDAC)) && (s <= timeout)) {
    10ea:	e0 e3       	ldi	r30, 0x30	; 48
    10ec:	f0 e0       	ldi	r31, 0x00	; 0
    10ee:	80 81       	ld	r24, Z
    10f0:	88 2f       	mov	r24, r24
    10f2:	90 e0       	ldi	r25, 0x00	; 0
    10f4:	80 72       	andi	r24, 0x20	; 32
    10f6:	90 70       	andi	r25, 0x00	; 0
    10f8:	00 97       	sbiw	r24, 0x00	; 0
    10fa:	49 f0       	breq	.+18     	; 0x110e <gpib_write_byte+0x82>
    10fc:	80 91 c7 05 	lds	r24, 0x05C7
    1100:	28 2f       	mov	r18, r24
    1102:	30 e0       	ldi	r19, 0x00	; 0
    1104:	89 81       	ldd	r24, Y+1	; 0x01
    1106:	9a 81       	ldd	r25, Y+2	; 0x02
    1108:	82 17       	cp	r24, r18
    110a:	93 07       	cpc	r25, r19
    110c:	f4 f6       	brge	.-68     	; 0x10ca <gpib_write_byte+0x3e>
	}
#else
	loop_until_bit_is_clear(PIND,G_NDAC);
#endif

	DDRA = 0x00;
    110e:	ea e3       	ldi	r30, 0x3A	; 58
    1110:	f0 e0       	ldi	r31, 0x00	; 0
    1112:	10 82       	st	Z, r1
	if (c & 0x01) {
    1114:	8b 81       	ldd	r24, Y+3	; 0x03
    1116:	88 2f       	mov	r24, r24
    1118:	90 e0       	ldi	r25, 0x00	; 0
    111a:	81 70       	andi	r24, 0x01	; 1
    111c:	90 70       	andi	r25, 0x00	; 0
    111e:	88 23       	and	r24, r24
    1120:	b1 f0       	breq	.+44     	; 0x114e <gpib_write_byte+0xc2>
		assign_bit(DDRA, PORTA, PA0);
    1122:	ab e3       	ldi	r26, 0x3B	; 59
    1124:	b0 e0       	ldi	r27, 0x00	; 0
    1126:	eb e3       	ldi	r30, 0x3B	; 59
    1128:	f0 e0       	ldi	r31, 0x00	; 0
    112a:	80 81       	ld	r24, Z
    112c:	8e 7f       	andi	r24, 0xFE	; 254
    112e:	8c 93       	st	X, r24
    1130:	aa e3       	ldi	r26, 0x3A	; 58
    1132:	b0 e0       	ldi	r27, 0x00	; 0
    1134:	ea e3       	ldi	r30, 0x3A	; 58
    1136:	f0 e0       	ldi	r31, 0x00	; 0
    1138:	80 81       	ld	r24, Z
    113a:	81 60       	ori	r24, 0x01	; 1
    113c:	8c 93       	st	X, r24
    113e:	ab e3       	ldi	r26, 0x3B	; 59
    1140:	b0 e0       	ldi	r27, 0x00	; 0
    1142:	eb e3       	ldi	r30, 0x3B	; 59
    1144:	f0 e0       	ldi	r31, 0x00	; 0
    1146:	80 81       	ld	r24, Z
    1148:	8e 7f       	andi	r24, 0xFE	; 254
    114a:	8c 93       	st	X, r24
    114c:	0e c0       	rjmp	.+28     	; 0x116a <gpib_write_byte+0xde>
	} else {
		release_bit(DDRA, PORTA, PA0)
    114e:	aa e3       	ldi	r26, 0x3A	; 58
    1150:	b0 e0       	ldi	r27, 0x00	; 0
    1152:	ea e3       	ldi	r30, 0x3A	; 58
    1154:	f0 e0       	ldi	r31, 0x00	; 0
    1156:	80 81       	ld	r24, Z
    1158:	8e 7f       	andi	r24, 0xFE	; 254
    115a:	8c 93       	st	X, r24
    115c:	ab e3       	ldi	r26, 0x3B	; 59
    115e:	b0 e0       	ldi	r27, 0x00	; 0
    1160:	eb e3       	ldi	r30, 0x3B	; 59
    1162:	f0 e0       	ldi	r31, 0x00	; 0
    1164:	80 81       	ld	r24, Z
    1166:	81 60       	ori	r24, 0x01	; 1
    1168:	8c 93       	st	X, r24
	}
	if (c & 0x02) {
    116a:	8b 81       	ldd	r24, Y+3	; 0x03
    116c:	88 2f       	mov	r24, r24
    116e:	90 e0       	ldi	r25, 0x00	; 0
    1170:	82 70       	andi	r24, 0x02	; 2
    1172:	90 70       	andi	r25, 0x00	; 0
    1174:	00 97       	sbiw	r24, 0x00	; 0
    1176:	b1 f0       	breq	.+44     	; 0x11a4 <gpib_write_byte+0x118>
		assign_bit(DDRA, PORTA, PA1)
    1178:	ab e3       	ldi	r26, 0x3B	; 59
    117a:	b0 e0       	ldi	r27, 0x00	; 0
    117c:	eb e3       	ldi	r30, 0x3B	; 59
    117e:	f0 e0       	ldi	r31, 0x00	; 0
    1180:	80 81       	ld	r24, Z
    1182:	8d 7f       	andi	r24, 0xFD	; 253
    1184:	8c 93       	st	X, r24
    1186:	aa e3       	ldi	r26, 0x3A	; 58
    1188:	b0 e0       	ldi	r27, 0x00	; 0
    118a:	ea e3       	ldi	r30, 0x3A	; 58
    118c:	f0 e0       	ldi	r31, 0x00	; 0
    118e:	80 81       	ld	r24, Z
    1190:	82 60       	ori	r24, 0x02	; 2
    1192:	8c 93       	st	X, r24
    1194:	ab e3       	ldi	r26, 0x3B	; 59
    1196:	b0 e0       	ldi	r27, 0x00	; 0
    1198:	eb e3       	ldi	r30, 0x3B	; 59
    119a:	f0 e0       	ldi	r31, 0x00	; 0
    119c:	80 81       	ld	r24, Z
    119e:	8d 7f       	andi	r24, 0xFD	; 253
    11a0:	8c 93       	st	X, r24
    11a2:	0e c0       	rjmp	.+28     	; 0x11c0 <gpib_write_byte+0x134>
	} else {
		release_bit(DDRA, PORTA, PA1);
    11a4:	aa e3       	ldi	r26, 0x3A	; 58
    11a6:	b0 e0       	ldi	r27, 0x00	; 0
    11a8:	ea e3       	ldi	r30, 0x3A	; 58
    11aa:	f0 e0       	ldi	r31, 0x00	; 0
    11ac:	80 81       	ld	r24, Z
    11ae:	8d 7f       	andi	r24, 0xFD	; 253
    11b0:	8c 93       	st	X, r24
    11b2:	ab e3       	ldi	r26, 0x3B	; 59
    11b4:	b0 e0       	ldi	r27, 0x00	; 0
    11b6:	eb e3       	ldi	r30, 0x3B	; 59
    11b8:	f0 e0       	ldi	r31, 0x00	; 0
    11ba:	80 81       	ld	r24, Z
    11bc:	82 60       	ori	r24, 0x02	; 2
    11be:	8c 93       	st	X, r24
	}
	if (c & 0x04) {
    11c0:	8b 81       	ldd	r24, Y+3	; 0x03
    11c2:	88 2f       	mov	r24, r24
    11c4:	90 e0       	ldi	r25, 0x00	; 0
    11c6:	84 70       	andi	r24, 0x04	; 4
    11c8:	90 70       	andi	r25, 0x00	; 0
    11ca:	00 97       	sbiw	r24, 0x00	; 0
    11cc:	b1 f0       	breq	.+44     	; 0x11fa <gpib_write_byte+0x16e>
		assign_bit(DDRA, PORTA, PA2);
    11ce:	ab e3       	ldi	r26, 0x3B	; 59
    11d0:	b0 e0       	ldi	r27, 0x00	; 0
    11d2:	eb e3       	ldi	r30, 0x3B	; 59
    11d4:	f0 e0       	ldi	r31, 0x00	; 0
    11d6:	80 81       	ld	r24, Z
    11d8:	8b 7f       	andi	r24, 0xFB	; 251
    11da:	8c 93       	st	X, r24
    11dc:	aa e3       	ldi	r26, 0x3A	; 58
    11de:	b0 e0       	ldi	r27, 0x00	; 0
    11e0:	ea e3       	ldi	r30, 0x3A	; 58
    11e2:	f0 e0       	ldi	r31, 0x00	; 0
    11e4:	80 81       	ld	r24, Z
    11e6:	84 60       	ori	r24, 0x04	; 4
    11e8:	8c 93       	st	X, r24
    11ea:	ab e3       	ldi	r26, 0x3B	; 59
    11ec:	b0 e0       	ldi	r27, 0x00	; 0
    11ee:	eb e3       	ldi	r30, 0x3B	; 59
    11f0:	f0 e0       	ldi	r31, 0x00	; 0
    11f2:	80 81       	ld	r24, Z
    11f4:	8b 7f       	andi	r24, 0xFB	; 251
    11f6:	8c 93       	st	X, r24
    11f8:	0e c0       	rjmp	.+28     	; 0x1216 <gpib_write_byte+0x18a>
	} else {
		release_bit(DDRA, PORTA, PA2);
    11fa:	aa e3       	ldi	r26, 0x3A	; 58
    11fc:	b0 e0       	ldi	r27, 0x00	; 0
    11fe:	ea e3       	ldi	r30, 0x3A	; 58
    1200:	f0 e0       	ldi	r31, 0x00	; 0
    1202:	80 81       	ld	r24, Z
    1204:	8b 7f       	andi	r24, 0xFB	; 251
    1206:	8c 93       	st	X, r24
    1208:	ab e3       	ldi	r26, 0x3B	; 59
    120a:	b0 e0       	ldi	r27, 0x00	; 0
    120c:	eb e3       	ldi	r30, 0x3B	; 59
    120e:	f0 e0       	ldi	r31, 0x00	; 0
    1210:	80 81       	ld	r24, Z
    1212:	84 60       	ori	r24, 0x04	; 4
    1214:	8c 93       	st	X, r24
	}
	if (c & 0x08) {
    1216:	8b 81       	ldd	r24, Y+3	; 0x03
    1218:	88 2f       	mov	r24, r24
    121a:	90 e0       	ldi	r25, 0x00	; 0
    121c:	88 70       	andi	r24, 0x08	; 8
    121e:	90 70       	andi	r25, 0x00	; 0
    1220:	00 97       	sbiw	r24, 0x00	; 0
    1222:	b1 f0       	breq	.+44     	; 0x1250 <gpib_write_byte+0x1c4>
		assign_bit(DDRA, PORTA, PA3);
    1224:	ab e3       	ldi	r26, 0x3B	; 59
    1226:	b0 e0       	ldi	r27, 0x00	; 0
    1228:	eb e3       	ldi	r30, 0x3B	; 59
    122a:	f0 e0       	ldi	r31, 0x00	; 0
    122c:	80 81       	ld	r24, Z
    122e:	87 7f       	andi	r24, 0xF7	; 247
    1230:	8c 93       	st	X, r24
    1232:	aa e3       	ldi	r26, 0x3A	; 58
    1234:	b0 e0       	ldi	r27, 0x00	; 0
    1236:	ea e3       	ldi	r30, 0x3A	; 58
    1238:	f0 e0       	ldi	r31, 0x00	; 0
    123a:	80 81       	ld	r24, Z
    123c:	88 60       	ori	r24, 0x08	; 8
    123e:	8c 93       	st	X, r24
    1240:	ab e3       	ldi	r26, 0x3B	; 59
    1242:	b0 e0       	ldi	r27, 0x00	; 0
    1244:	eb e3       	ldi	r30, 0x3B	; 59
    1246:	f0 e0       	ldi	r31, 0x00	; 0
    1248:	80 81       	ld	r24, Z
    124a:	87 7f       	andi	r24, 0xF7	; 247
    124c:	8c 93       	st	X, r24
    124e:	0e c0       	rjmp	.+28     	; 0x126c <gpib_write_byte+0x1e0>
	} else {
		release_bit(DDRA, PORTA, PA3);
    1250:	aa e3       	ldi	r26, 0x3A	; 58
    1252:	b0 e0       	ldi	r27, 0x00	; 0
    1254:	ea e3       	ldi	r30, 0x3A	; 58
    1256:	f0 e0       	ldi	r31, 0x00	; 0
    1258:	80 81       	ld	r24, Z
    125a:	87 7f       	andi	r24, 0xF7	; 247
    125c:	8c 93       	st	X, r24
    125e:	ab e3       	ldi	r26, 0x3B	; 59
    1260:	b0 e0       	ldi	r27, 0x00	; 0
    1262:	eb e3       	ldi	r30, 0x3B	; 59
    1264:	f0 e0       	ldi	r31, 0x00	; 0
    1266:	80 81       	ld	r24, Z
    1268:	88 60       	ori	r24, 0x08	; 8
    126a:	8c 93       	st	X, r24
	}
	if (c & 0x10) {
    126c:	8b 81       	ldd	r24, Y+3	; 0x03
    126e:	88 2f       	mov	r24, r24
    1270:	90 e0       	ldi	r25, 0x00	; 0
    1272:	80 71       	andi	r24, 0x10	; 16
    1274:	90 70       	andi	r25, 0x00	; 0
    1276:	00 97       	sbiw	r24, 0x00	; 0
    1278:	b1 f0       	breq	.+44     	; 0x12a6 <gpib_write_byte+0x21a>
		assign_bit(DDRA, PORTA, PA4);
    127a:	ab e3       	ldi	r26, 0x3B	; 59
    127c:	b0 e0       	ldi	r27, 0x00	; 0
    127e:	eb e3       	ldi	r30, 0x3B	; 59
    1280:	f0 e0       	ldi	r31, 0x00	; 0
    1282:	80 81       	ld	r24, Z
    1284:	8f 7e       	andi	r24, 0xEF	; 239
    1286:	8c 93       	st	X, r24
    1288:	aa e3       	ldi	r26, 0x3A	; 58
    128a:	b0 e0       	ldi	r27, 0x00	; 0
    128c:	ea e3       	ldi	r30, 0x3A	; 58
    128e:	f0 e0       	ldi	r31, 0x00	; 0
    1290:	80 81       	ld	r24, Z
    1292:	80 61       	ori	r24, 0x10	; 16
    1294:	8c 93       	st	X, r24
    1296:	ab e3       	ldi	r26, 0x3B	; 59
    1298:	b0 e0       	ldi	r27, 0x00	; 0
    129a:	eb e3       	ldi	r30, 0x3B	; 59
    129c:	f0 e0       	ldi	r31, 0x00	; 0
    129e:	80 81       	ld	r24, Z
    12a0:	8f 7e       	andi	r24, 0xEF	; 239
    12a2:	8c 93       	st	X, r24
    12a4:	0e c0       	rjmp	.+28     	; 0x12c2 <gpib_write_byte+0x236>
	} else {
		release_bit(DDRA, PORTA, PA4);
    12a6:	aa e3       	ldi	r26, 0x3A	; 58
    12a8:	b0 e0       	ldi	r27, 0x00	; 0
    12aa:	ea e3       	ldi	r30, 0x3A	; 58
    12ac:	f0 e0       	ldi	r31, 0x00	; 0
    12ae:	80 81       	ld	r24, Z
    12b0:	8f 7e       	andi	r24, 0xEF	; 239
    12b2:	8c 93       	st	X, r24
    12b4:	ab e3       	ldi	r26, 0x3B	; 59
    12b6:	b0 e0       	ldi	r27, 0x00	; 0
    12b8:	eb e3       	ldi	r30, 0x3B	; 59
    12ba:	f0 e0       	ldi	r31, 0x00	; 0
    12bc:	80 81       	ld	r24, Z
    12be:	80 61       	ori	r24, 0x10	; 16
    12c0:	8c 93       	st	X, r24
	}
	if (c & 0x20) {
    12c2:	8b 81       	ldd	r24, Y+3	; 0x03
    12c4:	88 2f       	mov	r24, r24
    12c6:	90 e0       	ldi	r25, 0x00	; 0
    12c8:	80 72       	andi	r24, 0x20	; 32
    12ca:	90 70       	andi	r25, 0x00	; 0
    12cc:	00 97       	sbiw	r24, 0x00	; 0
    12ce:	b1 f0       	breq	.+44     	; 0x12fc <gpib_write_byte+0x270>
		assign_bit(DDRA, PORTA, PA5);
    12d0:	ab e3       	ldi	r26, 0x3B	; 59
    12d2:	b0 e0       	ldi	r27, 0x00	; 0
    12d4:	eb e3       	ldi	r30, 0x3B	; 59
    12d6:	f0 e0       	ldi	r31, 0x00	; 0
    12d8:	80 81       	ld	r24, Z
    12da:	8f 7d       	andi	r24, 0xDF	; 223
    12dc:	8c 93       	st	X, r24
    12de:	aa e3       	ldi	r26, 0x3A	; 58
    12e0:	b0 e0       	ldi	r27, 0x00	; 0
    12e2:	ea e3       	ldi	r30, 0x3A	; 58
    12e4:	f0 e0       	ldi	r31, 0x00	; 0
    12e6:	80 81       	ld	r24, Z
    12e8:	80 62       	ori	r24, 0x20	; 32
    12ea:	8c 93       	st	X, r24
    12ec:	ab e3       	ldi	r26, 0x3B	; 59
    12ee:	b0 e0       	ldi	r27, 0x00	; 0
    12f0:	eb e3       	ldi	r30, 0x3B	; 59
    12f2:	f0 e0       	ldi	r31, 0x00	; 0
    12f4:	80 81       	ld	r24, Z
    12f6:	8f 7d       	andi	r24, 0xDF	; 223
    12f8:	8c 93       	st	X, r24
    12fa:	0e c0       	rjmp	.+28     	; 0x1318 <gpib_write_byte+0x28c>
	} else {
		release_bit(DDRA, PORTA, PA5);
    12fc:	aa e3       	ldi	r26, 0x3A	; 58
    12fe:	b0 e0       	ldi	r27, 0x00	; 0
    1300:	ea e3       	ldi	r30, 0x3A	; 58
    1302:	f0 e0       	ldi	r31, 0x00	; 0
    1304:	80 81       	ld	r24, Z
    1306:	8f 7d       	andi	r24, 0xDF	; 223
    1308:	8c 93       	st	X, r24
    130a:	ab e3       	ldi	r26, 0x3B	; 59
    130c:	b0 e0       	ldi	r27, 0x00	; 0
    130e:	eb e3       	ldi	r30, 0x3B	; 59
    1310:	f0 e0       	ldi	r31, 0x00	; 0
    1312:	80 81       	ld	r24, Z
    1314:	80 62       	ori	r24, 0x20	; 32
    1316:	8c 93       	st	X, r24
	}
	if (c & 0x40) {
    1318:	8b 81       	ldd	r24, Y+3	; 0x03
    131a:	88 2f       	mov	r24, r24
    131c:	90 e0       	ldi	r25, 0x00	; 0
    131e:	80 74       	andi	r24, 0x40	; 64
    1320:	90 70       	andi	r25, 0x00	; 0
    1322:	00 97       	sbiw	r24, 0x00	; 0
    1324:	b1 f0       	breq	.+44     	; 0x1352 <gpib_write_byte+0x2c6>
		assign_bit(DDRA, PORTA, PA6);
    1326:	ab e3       	ldi	r26, 0x3B	; 59
    1328:	b0 e0       	ldi	r27, 0x00	; 0
    132a:	eb e3       	ldi	r30, 0x3B	; 59
    132c:	f0 e0       	ldi	r31, 0x00	; 0
    132e:	80 81       	ld	r24, Z
    1330:	8f 7b       	andi	r24, 0xBF	; 191
    1332:	8c 93       	st	X, r24
    1334:	aa e3       	ldi	r26, 0x3A	; 58
    1336:	b0 e0       	ldi	r27, 0x00	; 0
    1338:	ea e3       	ldi	r30, 0x3A	; 58
    133a:	f0 e0       	ldi	r31, 0x00	; 0
    133c:	80 81       	ld	r24, Z
    133e:	80 64       	ori	r24, 0x40	; 64
    1340:	8c 93       	st	X, r24
    1342:	ab e3       	ldi	r26, 0x3B	; 59
    1344:	b0 e0       	ldi	r27, 0x00	; 0
    1346:	eb e3       	ldi	r30, 0x3B	; 59
    1348:	f0 e0       	ldi	r31, 0x00	; 0
    134a:	80 81       	ld	r24, Z
    134c:	8f 7b       	andi	r24, 0xBF	; 191
    134e:	8c 93       	st	X, r24
    1350:	0e c0       	rjmp	.+28     	; 0x136e <gpib_write_byte+0x2e2>
	} else {
		release_bit(DDRA, PORTA, PA6);
    1352:	aa e3       	ldi	r26, 0x3A	; 58
    1354:	b0 e0       	ldi	r27, 0x00	; 0
    1356:	ea e3       	ldi	r30, 0x3A	; 58
    1358:	f0 e0       	ldi	r31, 0x00	; 0
    135a:	80 81       	ld	r24, Z
    135c:	8f 7b       	andi	r24, 0xBF	; 191
    135e:	8c 93       	st	X, r24
    1360:	ab e3       	ldi	r26, 0x3B	; 59
    1362:	b0 e0       	ldi	r27, 0x00	; 0
    1364:	eb e3       	ldi	r30, 0x3B	; 59
    1366:	f0 e0       	ldi	r31, 0x00	; 0
    1368:	80 81       	ld	r24, Z
    136a:	80 64       	ori	r24, 0x40	; 64
    136c:	8c 93       	st	X, r24
	}
	if (c & 0x80) {
    136e:	8b 81       	ldd	r24, Y+3	; 0x03
    1370:	88 23       	and	r24, r24
    1372:	b4 f4       	brge	.+44     	; 0x13a0 <gpib_write_byte+0x314>
		assign_bit(DDRA, PORTA, PA7);
    1374:	ab e3       	ldi	r26, 0x3B	; 59
    1376:	b0 e0       	ldi	r27, 0x00	; 0
    1378:	eb e3       	ldi	r30, 0x3B	; 59
    137a:	f0 e0       	ldi	r31, 0x00	; 0
    137c:	80 81       	ld	r24, Z
    137e:	8f 77       	andi	r24, 0x7F	; 127
    1380:	8c 93       	st	X, r24
    1382:	aa e3       	ldi	r26, 0x3A	; 58
    1384:	b0 e0       	ldi	r27, 0x00	; 0
    1386:	ea e3       	ldi	r30, 0x3A	; 58
    1388:	f0 e0       	ldi	r31, 0x00	; 0
    138a:	80 81       	ld	r24, Z
    138c:	80 68       	ori	r24, 0x80	; 128
    138e:	8c 93       	st	X, r24
    1390:	ab e3       	ldi	r26, 0x3B	; 59
    1392:	b0 e0       	ldi	r27, 0x00	; 0
    1394:	eb e3       	ldi	r30, 0x3B	; 59
    1396:	f0 e0       	ldi	r31, 0x00	; 0
    1398:	80 81       	ld	r24, Z
    139a:	8f 77       	andi	r24, 0x7F	; 127
    139c:	8c 93       	st	X, r24
    139e:	0e c0       	rjmp	.+28     	; 0x13bc <gpib_write_byte+0x330>
	} else {
		release_bit(DDRA, PORTA, PA7);
    13a0:	aa e3       	ldi	r26, 0x3A	; 58
    13a2:	b0 e0       	ldi	r27, 0x00	; 0
    13a4:	ea e3       	ldi	r30, 0x3A	; 58
    13a6:	f0 e0       	ldi	r31, 0x00	; 0
    13a8:	80 81       	ld	r24, Z
    13aa:	8f 77       	andi	r24, 0x7F	; 127
    13ac:	8c 93       	st	X, r24
    13ae:	ab e3       	ldi	r26, 0x3B	; 59
    13b0:	b0 e0       	ldi	r27, 0x00	; 0
    13b2:	eb e3       	ldi	r30, 0x3B	; 59
    13b4:	f0 e0       	ldi	r31, 0x00	; 0
    13b6:	80 81       	ld	r24, Z
    13b8:	80 68       	ori	r24, 0x80	; 128
    13ba:	8c 93       	st	X, r24
	}

	// wait until listeners release NRFD
	//uart_puts("1");
	release_bit(DDRD, PORTD, G_NRFD);
    13bc:	a1 e3       	ldi	r26, 0x31	; 49
    13be:	b0 e0       	ldi	r27, 0x00	; 0
    13c0:	e1 e3       	ldi	r30, 0x31	; 49
    13c2:	f0 e0       	ldi	r31, 0x00	; 0
    13c4:	80 81       	ld	r24, Z
    13c6:	87 7f       	andi	r24, 0xF7	; 247
    13c8:	8c 93       	st	X, r24
    13ca:	a2 e3       	ldi	r26, 0x32	; 50
    13cc:	b0 e0       	ldi	r27, 0x00	; 0
    13ce:	e2 e3       	ldi	r30, 0x32	; 50
    13d0:	f0 e0       	ldi	r31, 0x00	; 0
    13d2:	80 81       	ld	r24, Z
    13d4:	88 60       	ori	r24, 0x08	; 8
    13d6:	8c 93       	st	X, r24
#ifdef WITH_TIMEOUT
	//gpib_info();
	timeout = s + 5;
    13d8:	80 91 c7 05 	lds	r24, 0x05C7
    13dc:	88 2f       	mov	r24, r24
    13de:	90 e0       	ldi	r25, 0x00	; 0
    13e0:	05 96       	adiw	r24, 0x05	; 5
    13e2:	9a 83       	std	Y+2, r25	; 0x02
    13e4:	89 83       	std	Y+1, r24	; 0x01
    13e6:	10 c0       	rjmp	.+32     	; 0x1408 <gpib_write_byte+0x37c>
	while (!(PIND & _BV(G_NRFD)) && (s <= timeout)) {
		if (s == timeout) {
    13e8:	80 91 c7 05 	lds	r24, 0x05C7
    13ec:	28 2f       	mov	r18, r24
    13ee:	30 e0       	ldi	r19, 0x00	; 0
    13f0:	89 81       	ldd	r24, Y+1	; 0x01
    13f2:	9a 81       	ldd	r25, Y+2	; 0x02
    13f4:	28 17       	cp	r18, r24
    13f6:	39 07       	cpc	r19, r25
    13f8:	39 f4       	brne	.+14     	; 0x1408 <gpib_write_byte+0x37c>
			uart_puts("\n\rError: NRFD timeout\n\r");
    13fa:	8e ea       	ldi	r24, 0xAE	; 174
    13fc:	90 e0       	ldi	r25, 0x00	; 0
    13fe:	0e 94 94 15 	call	0x2b28	; 0x2b28 <uart_puts>
			return 0xff;
    1402:	8f ef       	ldi	r24, 0xFF	; 255
    1404:	8d 83       	std	Y+5, r24	; 0x05
    1406:	68 c0       	rjmp	.+208    	; 0x14d8 <gpib_write_byte+0x44c>
	//uart_puts("1");
	release_bit(DDRD, PORTD, G_NRFD);
#ifdef WITH_TIMEOUT
	//gpib_info();
	timeout = s + 5;
	while (!(PIND & _BV(G_NRFD)) && (s <= timeout)) {
    1408:	e0 e3       	ldi	r30, 0x30	; 48
    140a:	f0 e0       	ldi	r31, 0x00	; 0
    140c:	80 81       	ld	r24, Z
    140e:	88 2f       	mov	r24, r24
    1410:	90 e0       	ldi	r25, 0x00	; 0
    1412:	88 70       	andi	r24, 0x08	; 8
    1414:	90 70       	andi	r25, 0x00	; 0
    1416:	00 97       	sbiw	r24, 0x00	; 0
    1418:	49 f4       	brne	.+18     	; 0x142c <gpib_write_byte+0x3a0>
    141a:	80 91 c7 05 	lds	r24, 0x05C7
    141e:	28 2f       	mov	r18, r24
    1420:	30 e0       	ldi	r19, 0x00	; 0
    1422:	89 81       	ldd	r24, Y+1	; 0x01
    1424:	9a 81       	ldd	r25, Y+2	; 0x02
    1426:	82 17       	cp	r24, r18
    1428:	93 07       	cpc	r25, r19
    142a:	f4 f6       	brge	.-68     	; 0x13e8 <gpib_write_byte+0x35c>
#else
	loop_until_bit_is_set(PIND,G_NRFD);
#endif

	// assign EOI during transmission of only last byte
	if (isLastByte) {
    142c:	8c 81       	ldd	r24, Y+4	; 0x04
    142e:	88 23       	and	r24, r24
    1430:	a9 f0       	breq	.+42     	; 0x145c <gpib_write_byte+0x3d0>
		//uart_puts("\n\rE\n\r");
		assign_bit(DDRD, PORTD, G_EOI);
    1432:	a2 e3       	ldi	r26, 0x32	; 50
    1434:	b0 e0       	ldi	r27, 0x00	; 0
    1436:	e2 e3       	ldi	r30, 0x32	; 50
    1438:	f0 e0       	ldi	r31, 0x00	; 0
    143a:	80 81       	ld	r24, Z
    143c:	8f 7e       	andi	r24, 0xEF	; 239
    143e:	8c 93       	st	X, r24
    1440:	a1 e3       	ldi	r26, 0x31	; 49
    1442:	b0 e0       	ldi	r27, 0x00	; 0
    1444:	e1 e3       	ldi	r30, 0x31	; 49
    1446:	f0 e0       	ldi	r31, 0x00	; 0
    1448:	80 81       	ld	r24, Z
    144a:	80 61       	ori	r24, 0x10	; 16
    144c:	8c 93       	st	X, r24
    144e:	a2 e3       	ldi	r26, 0x32	; 50
    1450:	b0 e0       	ldi	r27, 0x00	; 0
    1452:	e2 e3       	ldi	r30, 0x32	; 50
    1454:	f0 e0       	ldi	r31, 0x00	; 0
    1456:	80 81       	ld	r24, Z
    1458:	8f 7e       	andi	r24, 0xEF	; 239
    145a:	8c 93       	st	X, r24
	}

	// assign DAV, data valid for listeners
	assign_bit(DDRD, PORTD, G_DAV);
    145c:	a2 e3       	ldi	r26, 0x32	; 50
    145e:	b0 e0       	ldi	r27, 0x00	; 0
    1460:	e2 e3       	ldi	r30, 0x32	; 50
    1462:	f0 e0       	ldi	r31, 0x00	; 0
    1464:	80 81       	ld	r24, Z
    1466:	8b 7f       	andi	r24, 0xFB	; 251
    1468:	8c 93       	st	X, r24
    146a:	a1 e3       	ldi	r26, 0x31	; 49
    146c:	b0 e0       	ldi	r27, 0x00	; 0
    146e:	e1 e3       	ldi	r30, 0x31	; 49
    1470:	f0 e0       	ldi	r31, 0x00	; 0
    1472:	80 81       	ld	r24, Z
    1474:	84 60       	ori	r24, 0x04	; 4
    1476:	8c 93       	st	X, r24
    1478:	a2 e3       	ldi	r26, 0x32	; 50
    147a:	b0 e0       	ldi	r27, 0x00	; 0
    147c:	e2 e3       	ldi	r30, 0x32	; 50
    147e:	f0 e0       	ldi	r31, 0x00	; 0
    1480:	80 81       	ld	r24, Z
    1482:	8b 7f       	andi	r24, 0xFB	; 251
    1484:	8c 93       	st	X, r24

	// wait for NDAC release
	//uart_puts("2");
	release_bit(DDRD, PORTD, G_NDAC);
    1486:	a1 e3       	ldi	r26, 0x31	; 49
    1488:	b0 e0       	ldi	r27, 0x00	; 0
    148a:	e1 e3       	ldi	r30, 0x31	; 49
    148c:	f0 e0       	ldi	r31, 0x00	; 0
    148e:	80 81       	ld	r24, Z
    1490:	8f 7d       	andi	r24, 0xDF	; 223
    1492:	8c 93       	st	X, r24
    1494:	a2 e3       	ldi	r26, 0x32	; 50
    1496:	b0 e0       	ldi	r27, 0x00	; 0
    1498:	e2 e3       	ldi	r30, 0x32	; 50
    149a:	f0 e0       	ldi	r31, 0x00	; 0
    149c:	80 81       	ld	r24, Z
    149e:	80 62       	ori	r24, 0x20	; 32
    14a0:	8c 93       	st	X, r24
	loop_until_bit_is_set(PIND, G_NDAC);
    14a2:	e0 e3       	ldi	r30, 0x30	; 48
    14a4:	f0 e0       	ldi	r31, 0x00	; 0
    14a6:	80 81       	ld	r24, Z
    14a8:	88 2f       	mov	r24, r24
    14aa:	90 e0       	ldi	r25, 0x00	; 0
    14ac:	80 72       	andi	r24, 0x20	; 32
    14ae:	90 70       	andi	r25, 0x00	; 0
    14b0:	00 97       	sbiw	r24, 0x00	; 0
    14b2:	b9 f3       	breq	.-18     	; 0x14a2 <gpib_write_byte+0x416>

	// release DAV, data not valid anymore
	release_bit(DDRD, PORTD, G_DAV);
    14b4:	a1 e3       	ldi	r26, 0x31	; 49
    14b6:	b0 e0       	ldi	r27, 0x00	; 0
    14b8:	e1 e3       	ldi	r30, 0x31	; 49
    14ba:	f0 e0       	ldi	r31, 0x00	; 0
    14bc:	80 81       	ld	r24, Z
    14be:	8b 7f       	andi	r24, 0xFB	; 251
    14c0:	8c 93       	st	X, r24
    14c2:	a2 e3       	ldi	r26, 0x32	; 50
    14c4:	b0 e0       	ldi	r27, 0x00	; 0
    14c6:	e2 e3       	ldi	r30, 0x32	; 50
    14c8:	f0 e0       	ldi	r31, 0x00	; 0
    14ca:	80 81       	ld	r24, Z
    14cc:	84 60       	ori	r24, 0x04	; 4
    14ce:	8c 93       	st	X, r24

	// reset Port to all input
	DDRA = 0x00;
    14d0:	ea e3       	ldi	r30, 0x3A	; 58
    14d2:	f0 e0       	ldi	r31, 0x00	; 0
    14d4:	10 82       	st	Z, r1

	//uart_puts("3\r\n");

	return 0;
    14d6:	1d 82       	std	Y+5, r1	; 0x05
    14d8:	8d 81       	ldd	r24, Y+5	; 0x05
}
    14da:	0f 90       	pop	r0
    14dc:	0f 90       	pop	r0
    14de:	0f 90       	pop	r0
    14e0:	0f 90       	pop	r0
    14e2:	0f 90       	pop	r0
    14e4:	cf 91       	pop	r28
    14e6:	df 91       	pop	r29
    14e8:	08 95       	ret

000014ea <gpib_info>:


/**
 * print some useful info about bus state (for example value of handshake pins)
 */
void gpib_info(void) {
    14ea:	af 92       	push	r10
    14ec:	bf 92       	push	r11
    14ee:	cf 92       	push	r12
    14f0:	df 92       	push	r13
    14f2:	ef 92       	push	r14
    14f4:	ff 92       	push	r15
    14f6:	0f 93       	push	r16
    14f8:	1f 93       	push	r17
    14fa:	df 93       	push	r29
    14fc:	cf 93       	push	r28
    14fe:	cd b7       	in	r28, 0x3d	; 61
    1500:	de b7       	in	r29, 0x3e	; 62
    1502:	2a 97       	sbiw	r28, 0x0a	; 10
    1504:	0f b6       	in	r0, 0x3f	; 63
    1506:	f8 94       	cli
    1508:	de bf       	out	0x3e, r29	; 62
    150a:	0f be       	out	0x3f, r0	; 63
    150c:	cd bf       	out	0x3d, r28	; 61
	uchar dav, nrfd, ndac, eoi, atn, srq, ifc, ren;
	extern uchar buf[80];

	sprintf(buf, "Partner address: primary: %u, secondary: %u\n\r",
    150e:	0e 94 23 0d 	call	0x1a46	; 0x1a46 <gpib_get_partner_pad>
    1512:	08 2f       	mov	r16, r24
    1514:	10 e0       	ldi	r17, 0x00	; 0
    1516:	0e 94 2c 0d 	call	0x1a58	; 0x1a58 <gpib_get_partner_sad>
    151a:	28 2f       	mov	r18, r24
    151c:	30 e0       	ldi	r19, 0x00	; 0
    151e:	8d b7       	in	r24, 0x3d	; 61
    1520:	9e b7       	in	r25, 0x3e	; 62
    1522:	08 97       	sbiw	r24, 0x08	; 8
    1524:	0f b6       	in	r0, 0x3f	; 63
    1526:	f8 94       	cli
    1528:	9e bf       	out	0x3e, r25	; 62
    152a:	0f be       	out	0x3f, r0	; 63
    152c:	8d bf       	out	0x3d, r24	; 61
    152e:	ed b7       	in	r30, 0x3d	; 61
    1530:	fe b7       	in	r31, 0x3e	; 62
    1532:	31 96       	adiw	r30, 0x01	; 1
    1534:	86 e7       	ldi	r24, 0x76	; 118
    1536:	95 e0       	ldi	r25, 0x05	; 5
    1538:	91 83       	std	Z+1, r25	; 0x01
    153a:	80 83       	st	Z, r24
    153c:	86 ec       	ldi	r24, 0xC6	; 198
    153e:	90 e0       	ldi	r25, 0x00	; 0
    1540:	93 83       	std	Z+3, r25	; 0x03
    1542:	82 83       	std	Z+2, r24	; 0x02
    1544:	15 83       	std	Z+5, r17	; 0x05
    1546:	04 83       	std	Z+4, r16	; 0x04
    1548:	37 83       	std	Z+7, r19	; 0x07
    154a:	26 83       	std	Z+6, r18	; 0x06
    154c:	0e 94 f0 01 	call	0x3e0	; 0x3e0 <sprintf>
    1550:	8d b7       	in	r24, 0x3d	; 61
    1552:	9e b7       	in	r25, 0x3e	; 62
    1554:	08 96       	adiw	r24, 0x08	; 8
    1556:	0f b6       	in	r0, 0x3f	; 63
    1558:	f8 94       	cli
    155a:	9e bf       	out	0x3e, r25	; 62
    155c:	0f be       	out	0x3f, r0	; 63
    155e:	8d bf       	out	0x3d, r24	; 61
			gpib_get_partner_pad(), gpib_get_partner_sad());
	uart_puts(buf);
    1560:	86 e7       	ldi	r24, 0x76	; 118
    1562:	95 e0       	ldi	r25, 0x05	; 5
    1564:	0e 94 94 15 	call	0x2b28	; 0x2b28 <uart_puts>

	uart_puts("Partner list\n\r");
    1568:	84 ef       	ldi	r24, 0xF4	; 244
    156a:	90 e0       	ldi	r25, 0x00	; 0
    156c:	0e 94 94 15 	call	0x2b28	; 0x2b28 <uart_puts>
	for (int i = 0; i < MAX_PARTNER; i++) {
    1570:	1a 82       	std	Y+2, r1	; 0x02
    1572:	19 82       	std	Y+1, r1	; 0x01
    1574:	49 c0       	rjmp	.+146    	; 0x1608 <gpib_info+0x11e>
		if (controller.partners[i].primary != ADDRESS_NOT_SET) {
    1576:	89 81       	ldd	r24, Y+1	; 0x01
    1578:	9a 81       	ldd	r25, Y+2	; 0x02
    157a:	88 0f       	add	r24, r24
    157c:	99 1f       	adc	r25, r25
    157e:	fc 01       	movw	r30, r24
    1580:	e1 5a       	subi	r30, 0xA1	; 161
    1582:	fb 4f       	sbci	r31, 0xFB	; 251
    1584:	80 81       	ld	r24, Z
    1586:	8f 3f       	cpi	r24, 0xFF	; 255
    1588:	d1 f1       	breq	.+116    	; 0x15fe <gpib_info+0x114>
			sprintf(buf, "Partner address: primary: %u, secondary: %u\n\r",
    158a:	89 81       	ldd	r24, Y+1	; 0x01
    158c:	9a 81       	ldd	r25, Y+2	; 0x02
    158e:	88 0f       	add	r24, r24
    1590:	99 1f       	adc	r25, r25
    1592:	fc 01       	movw	r30, r24
    1594:	e1 5a       	subi	r30, 0xA1	; 161
    1596:	fb 4f       	sbci	r31, 0xFB	; 251
    1598:	80 81       	ld	r24, Z
    159a:	48 2f       	mov	r20, r24
    159c:	50 e0       	ldi	r21, 0x00	; 0
    159e:	89 81       	ldd	r24, Y+1	; 0x01
    15a0:	9a 81       	ldd	r25, Y+2	; 0x02
    15a2:	03 96       	adiw	r24, 0x03	; 3
    15a4:	88 0f       	add	r24, r24
    15a6:	99 1f       	adc	r25, r25
    15a8:	fc 01       	movw	r30, r24
    15aa:	e6 5a       	subi	r30, 0xA6	; 166
    15ac:	fb 4f       	sbci	r31, 0xFB	; 251
    15ae:	80 81       	ld	r24, Z
    15b0:	28 2f       	mov	r18, r24
    15b2:	30 e0       	ldi	r19, 0x00	; 0
    15b4:	8d b7       	in	r24, 0x3d	; 61
    15b6:	9e b7       	in	r25, 0x3e	; 62
    15b8:	08 97       	sbiw	r24, 0x08	; 8
    15ba:	0f b6       	in	r0, 0x3f	; 63
    15bc:	f8 94       	cli
    15be:	9e bf       	out	0x3e, r25	; 62
    15c0:	0f be       	out	0x3f, r0	; 63
    15c2:	8d bf       	out	0x3d, r24	; 61
    15c4:	ed b7       	in	r30, 0x3d	; 61
    15c6:	fe b7       	in	r31, 0x3e	; 62
    15c8:	31 96       	adiw	r30, 0x01	; 1
    15ca:	86 e7       	ldi	r24, 0x76	; 118
    15cc:	95 e0       	ldi	r25, 0x05	; 5
    15ce:	91 83       	std	Z+1, r25	; 0x01
    15d0:	80 83       	st	Z, r24
    15d2:	86 ec       	ldi	r24, 0xC6	; 198
    15d4:	90 e0       	ldi	r25, 0x00	; 0
    15d6:	93 83       	std	Z+3, r25	; 0x03
    15d8:	82 83       	std	Z+2, r24	; 0x02
    15da:	55 83       	std	Z+5, r21	; 0x05
    15dc:	44 83       	std	Z+4, r20	; 0x04
    15de:	37 83       	std	Z+7, r19	; 0x07
    15e0:	26 83       	std	Z+6, r18	; 0x06
    15e2:	0e 94 f0 01 	call	0x3e0	; 0x3e0 <sprintf>
    15e6:	8d b7       	in	r24, 0x3d	; 61
    15e8:	9e b7       	in	r25, 0x3e	; 62
    15ea:	08 96       	adiw	r24, 0x08	; 8
    15ec:	0f b6       	in	r0, 0x3f	; 63
    15ee:	f8 94       	cli
    15f0:	9e bf       	out	0x3e, r25	; 62
    15f2:	0f be       	out	0x3f, r0	; 63
    15f4:	8d bf       	out	0x3d, r24	; 61
					controller.partners[i].primary,
					controller.partners[i].secondary);
			uart_puts(buf);
    15f6:	86 e7       	ldi	r24, 0x76	; 118
    15f8:	95 e0       	ldi	r25, 0x05	; 5
    15fa:	0e 94 94 15 	call	0x2b28	; 0x2b28 <uart_puts>
	sprintf(buf, "Partner address: primary: %u, secondary: %u\n\r",
			gpib_get_partner_pad(), gpib_get_partner_sad());
	uart_puts(buf);

	uart_puts("Partner list\n\r");
	for (int i = 0; i < MAX_PARTNER; i++) {
    15fe:	89 81       	ldd	r24, Y+1	; 0x01
    1600:	9a 81       	ldd	r25, Y+2	; 0x02
    1602:	01 96       	adiw	r24, 0x01	; 1
    1604:	9a 83       	std	Y+2, r25	; 0x02
    1606:	89 83       	std	Y+1, r24	; 0x01
    1608:	89 81       	ldd	r24, Y+1	; 0x01
    160a:	9a 81       	ldd	r25, Y+2	; 0x02
    160c:	85 30       	cpi	r24, 0x05	; 5
    160e:	91 05       	cpc	r25, r1
    1610:	0c f4       	brge	.+2      	; 0x1614 <gpib_info+0x12a>
    1612:	b1 cf       	rjmp	.-158    	; 0x1576 <gpib_info+0x8c>
					controller.partners[i].secondary);
			uart_puts(buf);
		}
	}

	dav = bit_is_set(PIND, G_DAV);
    1614:	e0 e3       	ldi	r30, 0x30	; 48
    1616:	f0 e0       	ldi	r31, 0x00	; 0
    1618:	80 81       	ld	r24, Z
    161a:	84 70       	andi	r24, 0x04	; 4
    161c:	8a 87       	std	Y+10, r24	; 0x0a
	nrfd = bit_is_set(PIND, G_NRFD);
    161e:	e0 e3       	ldi	r30, 0x30	; 48
    1620:	f0 e0       	ldi	r31, 0x00	; 0
    1622:	80 81       	ld	r24, Z
    1624:	88 70       	andi	r24, 0x08	; 8
    1626:	89 87       	std	Y+9, r24	; 0x09
	ndac = bit_is_set(PIND, G_NDAC);
    1628:	e0 e3       	ldi	r30, 0x30	; 48
    162a:	f0 e0       	ldi	r31, 0x00	; 0
    162c:	80 81       	ld	r24, Z
    162e:	80 72       	andi	r24, 0x20	; 32
    1630:	88 87       	std	Y+8, r24	; 0x08
	eoi = bit_is_set(PIND, G_EOI);
    1632:	e0 e3       	ldi	r30, 0x30	; 48
    1634:	f0 e0       	ldi	r31, 0x00	; 0
    1636:	80 81       	ld	r24, Z
    1638:	80 71       	andi	r24, 0x10	; 16
    163a:	8f 83       	std	Y+7, r24	; 0x07
	atn = bit_is_set(PIND, G_ATN);
    163c:	e0 e3       	ldi	r30, 0x30	; 48
    163e:	f0 e0       	ldi	r31, 0x00	; 0
    1640:	80 81       	ld	r24, Z
    1642:	80 78       	andi	r24, 0x80	; 128
    1644:	8e 83       	std	Y+6, r24	; 0x06
	srq = bit_is_set(PIND, G_SRQ);
    1646:	e0 e3       	ldi	r30, 0x30	; 48
    1648:	f0 e0       	ldi	r31, 0x00	; 0
    164a:	80 81       	ld	r24, Z
    164c:	80 74       	andi	r24, 0x40	; 64
    164e:	8d 83       	std	Y+5, r24	; 0x05
	ifc = bit_is_set(PINB, G_IFC);
    1650:	e6 e3       	ldi	r30, 0x36	; 54
    1652:	f0 e0       	ldi	r31, 0x00	; 0
    1654:	80 81       	ld	r24, Z
    1656:	81 70       	andi	r24, 0x01	; 1
    1658:	8c 83       	std	Y+4, r24	; 0x04
	ren = bit_is_set(PINB, G_REN);
    165a:	e6 e3       	ldi	r30, 0x36	; 54
    165c:	f0 e0       	ldi	r31, 0x00	; 0
    165e:	80 81       	ld	r24, Z
    1660:	82 70       	andi	r24, 0x02	; 2
    1662:	8b 83       	std	Y+3, r24	; 0x03
	//d = PINA;
	//di = d ^ 0xff;
	if (dav == 0x00)
    1664:	8a 85       	ldd	r24, Y+10	; 0x0a
    1666:	88 23       	and	r24, r24
    1668:	19 f4       	brne	.+6      	; 0x1670 <gpib_info+0x186>
		dav = '0';
    166a:	80 e3       	ldi	r24, 0x30	; 48
    166c:	8a 87       	std	Y+10, r24	; 0x0a
    166e:	02 c0       	rjmp	.+4      	; 0x1674 <gpib_info+0x18a>
	else
		dav = '1';
    1670:	81 e3       	ldi	r24, 0x31	; 49
    1672:	8a 87       	std	Y+10, r24	; 0x0a
	if (nrfd == 0x00)
    1674:	89 85       	ldd	r24, Y+9	; 0x09
    1676:	88 23       	and	r24, r24
    1678:	19 f4       	brne	.+6      	; 0x1680 <gpib_info+0x196>
		nrfd = '0';
    167a:	80 e3       	ldi	r24, 0x30	; 48
    167c:	89 87       	std	Y+9, r24	; 0x09
    167e:	02 c0       	rjmp	.+4      	; 0x1684 <gpib_info+0x19a>
	else
		nrfd = '1';
    1680:	81 e3       	ldi	r24, 0x31	; 49
    1682:	89 87       	std	Y+9, r24	; 0x09
	if (ndac == 0x00)
    1684:	88 85       	ldd	r24, Y+8	; 0x08
    1686:	88 23       	and	r24, r24
    1688:	19 f4       	brne	.+6      	; 0x1690 <gpib_info+0x1a6>
		ndac = '0';
    168a:	80 e3       	ldi	r24, 0x30	; 48
    168c:	88 87       	std	Y+8, r24	; 0x08
    168e:	02 c0       	rjmp	.+4      	; 0x1694 <gpib_info+0x1aa>
	else
		ndac = '1';
    1690:	81 e3       	ldi	r24, 0x31	; 49
    1692:	88 87       	std	Y+8, r24	; 0x08
	if (eoi == 0x00)
    1694:	8f 81       	ldd	r24, Y+7	; 0x07
    1696:	88 23       	and	r24, r24
    1698:	19 f4       	brne	.+6      	; 0x16a0 <gpib_info+0x1b6>
		eoi = '0';
    169a:	80 e3       	ldi	r24, 0x30	; 48
    169c:	8f 83       	std	Y+7, r24	; 0x07
    169e:	02 c0       	rjmp	.+4      	; 0x16a4 <gpib_info+0x1ba>
	else
		eoi = '1';
    16a0:	81 e3       	ldi	r24, 0x31	; 49
    16a2:	8f 83       	std	Y+7, r24	; 0x07
	if (atn == 0x00)
    16a4:	8e 81       	ldd	r24, Y+6	; 0x06
    16a6:	88 23       	and	r24, r24
    16a8:	19 f4       	brne	.+6      	; 0x16b0 <gpib_info+0x1c6>
		atn = '0';
    16aa:	80 e3       	ldi	r24, 0x30	; 48
    16ac:	8e 83       	std	Y+6, r24	; 0x06
    16ae:	02 c0       	rjmp	.+4      	; 0x16b4 <gpib_info+0x1ca>
	else
		atn = '1';
    16b0:	81 e3       	ldi	r24, 0x31	; 49
    16b2:	8e 83       	std	Y+6, r24	; 0x06
	if (srq == 0x00)
    16b4:	8d 81       	ldd	r24, Y+5	; 0x05
    16b6:	88 23       	and	r24, r24
    16b8:	19 f4       	brne	.+6      	; 0x16c0 <gpib_info+0x1d6>
		srq = '0';
    16ba:	80 e3       	ldi	r24, 0x30	; 48
    16bc:	8d 83       	std	Y+5, r24	; 0x05
    16be:	02 c0       	rjmp	.+4      	; 0x16c4 <gpib_info+0x1da>
	else
		srq = '1';
    16c0:	81 e3       	ldi	r24, 0x31	; 49
    16c2:	8d 83       	std	Y+5, r24	; 0x05
	if (ifc == 0x00)
    16c4:	8c 81       	ldd	r24, Y+4	; 0x04
    16c6:	88 23       	and	r24, r24
    16c8:	19 f4       	brne	.+6      	; 0x16d0 <gpib_info+0x1e6>
		ifc = '0';
    16ca:	80 e3       	ldi	r24, 0x30	; 48
    16cc:	8c 83       	std	Y+4, r24	; 0x04
    16ce:	02 c0       	rjmp	.+4      	; 0x16d4 <gpib_info+0x1ea>
	else
		ifc = '1';
    16d0:	81 e3       	ldi	r24, 0x31	; 49
    16d2:	8c 83       	std	Y+4, r24	; 0x04
	if (ren == 0x00)
    16d4:	8b 81       	ldd	r24, Y+3	; 0x03
    16d6:	88 23       	and	r24, r24
    16d8:	19 f4       	brne	.+6      	; 0x16e0 <gpib_info+0x1f6>
		ren = '0';
    16da:	80 e3       	ldi	r24, 0x30	; 48
    16dc:	8b 83       	std	Y+3, r24	; 0x03
    16de:	02 c0       	rjmp	.+4      	; 0x16e4 <gpib_info+0x1fa>
	else
		ren = '1';
    16e0:	81 e3       	ldi	r24, 0x31	; 49
    16e2:	8b 83       	std	Y+3, r24	; 0x03

	sprintf(buf,
    16e4:	8a 85       	ldd	r24, Y+10	; 0x0a
    16e6:	a8 2e       	mov	r10, r24
    16e8:	bb 24       	eor	r11, r11
    16ea:	89 85       	ldd	r24, Y+9	; 0x09
    16ec:	28 2f       	mov	r18, r24
    16ee:	30 e0       	ldi	r19, 0x00	; 0
    16f0:	88 85       	ldd	r24, Y+8	; 0x08
    16f2:	48 2f       	mov	r20, r24
    16f4:	50 e0       	ldi	r21, 0x00	; 0
    16f6:	8f 81       	ldd	r24, Y+7	; 0x07
    16f8:	68 2f       	mov	r22, r24
    16fa:	70 e0       	ldi	r23, 0x00	; 0
    16fc:	8c 81       	ldd	r24, Y+4	; 0x04
    16fe:	a8 2f       	mov	r26, r24
    1700:	b0 e0       	ldi	r27, 0x00	; 0
    1702:	8b 81       	ldd	r24, Y+3	; 0x03
    1704:	08 2f       	mov	r16, r24
    1706:	10 e0       	ldi	r17, 0x00	; 0
    1708:	8e 81       	ldd	r24, Y+6	; 0x06
    170a:	e8 2e       	mov	r14, r24
    170c:	ff 24       	eor	r15, r15
    170e:	8d 81       	ldd	r24, Y+5	; 0x05
    1710:	c8 2e       	mov	r12, r24
    1712:	dd 24       	eor	r13, r13
    1714:	8d b7       	in	r24, 0x3d	; 61
    1716:	9e b7       	in	r25, 0x3e	; 62
    1718:	44 97       	sbiw	r24, 0x14	; 20
    171a:	0f b6       	in	r0, 0x3f	; 63
    171c:	f8 94       	cli
    171e:	9e bf       	out	0x3e, r25	; 62
    1720:	0f be       	out	0x3f, r0	; 63
    1722:	8d bf       	out	0x3d, r24	; 61
    1724:	ed b7       	in	r30, 0x3d	; 61
    1726:	fe b7       	in	r31, 0x3e	; 62
    1728:	31 96       	adiw	r30, 0x01	; 1
    172a:	86 e7       	ldi	r24, 0x76	; 118
    172c:	95 e0       	ldi	r25, 0x05	; 5
    172e:	91 83       	std	Z+1, r25	; 0x01
    1730:	80 83       	st	Z, r24
    1732:	83 e0       	ldi	r24, 0x03	; 3
    1734:	91 e0       	ldi	r25, 0x01	; 1
    1736:	93 83       	std	Z+3, r25	; 0x03
    1738:	82 83       	std	Z+2, r24	; 0x02
    173a:	b5 82       	std	Z+5, r11	; 0x05
    173c:	a4 82       	std	Z+4, r10	; 0x04
    173e:	37 83       	std	Z+7, r19	; 0x07
    1740:	26 83       	std	Z+6, r18	; 0x06
    1742:	51 87       	std	Z+9, r21	; 0x09
    1744:	40 87       	std	Z+8, r20	; 0x08
    1746:	73 87       	std	Z+11, r23	; 0x0b
    1748:	62 87       	std	Z+10, r22	; 0x0a
    174a:	b5 87       	std	Z+13, r27	; 0x0d
    174c:	a4 87       	std	Z+12, r26	; 0x0c
    174e:	17 87       	std	Z+15, r17	; 0x0f
    1750:	06 87       	std	Z+14, r16	; 0x0e
    1752:	f1 8a       	std	Z+17, r15	; 0x11
    1754:	e0 8a       	std	Z+16, r14	; 0x10
    1756:	d3 8a       	std	Z+19, r13	; 0x13
    1758:	c2 8a       	std	Z+18, r12	; 0x12
    175a:	0e 94 f0 01 	call	0x3e0	; 0x3e0 <sprintf>
    175e:	8d b7       	in	r24, 0x3d	; 61
    1760:	9e b7       	in	r25, 0x3e	; 62
    1762:	44 96       	adiw	r24, 0x14	; 20
    1764:	0f b6       	in	r0, 0x3f	; 63
    1766:	f8 94       	cli
    1768:	9e bf       	out	0x3e, r25	; 62
    176a:	0f be       	out	0x3f, r0	; 63
    176c:	8d bf       	out	0x3d, r24	; 61
			"dav=%c,nrfd=%c,ndac=%c, eoi=%c, ifc=%c,ren=%c,atn=%c,srq=%c\n\r",
			dav, nrfd, ndac, eoi, ifc, ren, atn, srq);
	uart_puts(buf);
    176e:	86 e7       	ldi	r24, 0x76	; 118
    1770:	95 e0       	ldi	r25, 0x05	; 5
    1772:	0e 94 94 15 	call	0x2b28	; 0x2b28 <uart_puts>
}
    1776:	2a 96       	adiw	r28, 0x0a	; 10
    1778:	0f b6       	in	r0, 0x3f	; 63
    177a:	f8 94       	cli
    177c:	de bf       	out	0x3e, r29	; 62
    177e:	0f be       	out	0x3f, r0	; 63
    1780:	cd bf       	out	0x3d, r28	; 61
    1782:	cf 91       	pop	r28
    1784:	df 91       	pop	r29
    1786:	1f 91       	pop	r17
    1788:	0f 91       	pop	r16
    178a:	ff 90       	pop	r15
    178c:	ef 90       	pop	r14
    178e:	df 90       	pop	r13
    1790:	cf 90       	pop	r12
    1792:	bf 90       	pop	r11
    1794:	af 90       	pop	r10
    1796:	08 95       	ret

00001798 <gpib_serial_poll>:
 * I haven't looked how a device with two byte address behaves.
 *
 * Secondary/primary is returned in inout parameters
 * If any emitter is found, return value is != 0.
 */
uchar gpib_serial_poll(uint8_t *primary_v, uint8_t* secondary_v) {
    1798:	df 93       	push	r29
    179a:	cf 93       	push	r28
    179c:	cd b7       	in	r28, 0x3d	; 61
    179e:	de b7       	in	r29, 0x3e	; 62
    17a0:	2c 97       	sbiw	r28, 0x0c	; 12
    17a2:	0f b6       	in	r0, 0x3f	; 63
    17a4:	f8 94       	cli
    17a6:	de bf       	out	0x3e, r29	; 62
    17a8:	0f be       	out	0x3f, r0	; 63
    17aa:	cd bf       	out	0x3d, r28	; 61
    17ac:	9a 87       	std	Y+10, r25	; 0x0a
    17ae:	89 87       	std	Y+9, r24	; 0x09
    17b0:	7c 87       	std	Y+12, r23	; 0x0c
    17b2:	6b 87       	std	Y+11, r22	; 0x0b
	uchar b, e;
	uchar primary = 0, secondary = 0, found = 0, foundPhysical =
    17b4:	1e 82       	std	Y+6, r1	; 0x06
    17b6:	1d 82       	std	Y+5, r1	; 0x05
    17b8:	1c 82       	std	Y+4, r1	; 0x04
	ADDRESS_NOT_SET;
    17ba:	8f ef       	ldi	r24, 0xFF	; 255
    17bc:	8b 83       	std	Y+3, r24	; 0x03
	int i;

	// send UNT and UNL commands (unlisten and untalk)
	// effect: all talker stop talking and all listeners stop listening
	cmd_buf[0] = G_CMD_UNT;
    17be:	8f e5       	ldi	r24, 0x5F	; 95
    17c0:	80 93 12 05 	sts	0x0512, r24
	gpib_cmd(cmd_buf, 1);
    17c4:	82 e1       	ldi	r24, 0x12	; 18
    17c6:	95 e0       	ldi	r25, 0x05	; 5
    17c8:	61 e0       	ldi	r22, 0x01	; 1
    17ca:	70 e0       	ldi	r23, 0x00	; 0
    17cc:	0e 94 31 07 	call	0xe62	; 0xe62 <gpib_cmd>
	cmd_buf[0] = G_CMD_UNL;
    17d0:	8f e3       	ldi	r24, 0x3F	; 63
    17d2:	80 93 12 05 	sts	0x0512, r24
	gpib_cmd(cmd_buf, 1);
    17d6:	82 e1       	ldi	r24, 0x12	; 18
    17d8:	95 e0       	ldi	r25, 0x05	; 5
    17da:	61 e0       	ldi	r22, 0x01	; 1
    17dc:	70 e0       	ldi	r23, 0x00	; 0
    17de:	0e 94 31 07 	call	0xe62	; 0xe62 <gpib_cmd>

	// serial poll enable
	// effect: all devices will send status byte instead of normal data when addressed
	// as talker
	//uart_puts("before SPE\r\n");
	cmd_buf[0] = G_CMD_SPE;
    17e2:	88 e1       	ldi	r24, 0x18	; 24
    17e4:	80 93 12 05 	sts	0x0512, r24
	gpib_cmd(cmd_buf, 1);
    17e8:	82 e1       	ldi	r24, 0x12	; 18
    17ea:	95 e0       	ldi	r25, 0x05	; 5
    17ec:	61 e0       	ldi	r22, 0x01	; 1
    17ee:	70 e0       	ldi	r23, 0x00	; 0
    17f0:	0e 94 31 07 	call	0xe62	; 0xe62 <gpib_cmd>
	//uart_puts("after SPE\r\n");

	// searching for SRQ emitter in a loop ...
	for (i = 0; (controller.partners[i].primary != ADDRESS_NOT_SET) && !found;
    17f4:	1a 82       	std	Y+2, r1	; 0x02
    17f6:	19 82       	std	Y+1, r1	; 0x01
    17f8:	de c0       	rjmp	.+444    	; 0x19b6 <gpib_serial_poll+0x21e>
			i++) {

		// set partner to talker mode
		primary = address2TalkerAddress(controller.partners[i].primary);
    17fa:	89 81       	ldd	r24, Y+1	; 0x01
    17fc:	9a 81       	ldd	r25, Y+2	; 0x02
    17fe:	88 0f       	add	r24, r24
    1800:	99 1f       	adc	r25, r25
    1802:	fc 01       	movw	r30, r24
    1804:	e1 5a       	subi	r30, 0xA1	; 161
    1806:	fb 4f       	sbci	r31, 0xFB	; 251
    1808:	80 81       	ld	r24, Z
    180a:	80 5c       	subi	r24, 0xC0	; 192
    180c:	8e 83       	std	Y+6, r24	; 0x06
		secondary = secondaryAdressToAdressByte(
    180e:	89 81       	ldd	r24, Y+1	; 0x01
    1810:	9a 81       	ldd	r25, Y+2	; 0x02
    1812:	03 96       	adiw	r24, 0x03	; 3
    1814:	88 0f       	add	r24, r24
    1816:	99 1f       	adc	r25, r25
    1818:	fc 01       	movw	r30, r24
    181a:	e6 5a       	subi	r30, 0xA6	; 166
    181c:	fb 4f       	sbci	r31, 0xFB	; 251
    181e:	80 81       	ld	r24, Z
    1820:	80 66       	ori	r24, 0x60	; 96
    1822:	8d 83       	std	Y+5, r24	; 0x05
				controller.partners[i].secondary);

		cmd_buf[0] = primary;
    1824:	8e 81       	ldd	r24, Y+6	; 0x06
    1826:	80 93 12 05 	sts	0x0512, r24
		//uart_puts("before talker address write\r\n");
		gpib_cmd(cmd_buf, 1);
    182a:	82 e1       	ldi	r24, 0x12	; 18
    182c:	95 e0       	ldi	r25, 0x05	; 5
    182e:	61 e0       	ldi	r22, 0x01	; 1
    1830:	70 e0       	ldi	r23, 0x00	; 0
    1832:	0e 94 31 07 	call	0xe62	; 0xe62 <gpib_cmd>
		//uart_puts("after talker address write\r\n");
		// handle secondary address if required
		if (secondary != ADDRESS_NOT_SET) {
    1836:	8d 81       	ldd	r24, Y+5	; 0x05
    1838:	8f 3f       	cpi	r24, 0xFF	; 255
    183a:	49 f0       	breq	.+18     	; 0x184e <gpib_serial_poll+0xb6>
			cmd_buf[0] = secondary;
    183c:	8d 81       	ldd	r24, Y+5	; 0x05
    183e:	80 93 12 05 	sts	0x0512, r24
			//uart_puts("before talker address write\r\n");
			gpib_cmd(cmd_buf, 1);
    1842:	82 e1       	ldi	r24, 0x12	; 18
    1844:	95 e0       	ldi	r25, 0x05	; 5
    1846:	61 e0       	ldi	r22, 0x01	; 1
    1848:	70 e0       	ldi	r23, 0x00	; 0
    184a:	0e 94 31 07 	call	0xe62	; 0xe62 <gpib_cmd>
		}

		// now receive data
		//uart_puts("before status byte receive\r\n");
		e = gpib_receive(&b);
    184e:	ce 01       	movw	r24, r28
    1850:	08 96       	adiw	r24, 0x08	; 8
    1852:	0e 94 b0 05 	call	0xb60	; 0xb60 <gpib_receive>
    1856:	8f 83       	std	Y+7, r24	; 0x07
		//uart_puts("after status byte receive\r\n");
		// status byte is now in b

		if (secondary != ADDRESS_NOT_SET) {
    1858:	8d 81       	ldd	r24, Y+5	; 0x05
    185a:	8f 3f       	cpi	r24, 0xFF	; 255
    185c:	81 f1       	breq	.+96     	; 0x18be <gpib_serial_poll+0x126>
			sprintf((char*) cmd_buf,
    185e:	8e 81       	ldd	r24, Y+6	; 0x06
    1860:	88 2f       	mov	r24, r24
    1862:	90 e0       	ldi	r25, 0x00	; 0
    1864:	bc 01       	movw	r22, r24
    1866:	60 54       	subi	r22, 0x40	; 64
    1868:	70 40       	sbci	r23, 0x00	; 0
    186a:	8d 81       	ldd	r24, Y+5	; 0x05
    186c:	28 2f       	mov	r18, r24
    186e:	30 e0       	ldi	r19, 0x00	; 0
    1870:	88 85       	ldd	r24, Y+8	; 0x08
    1872:	48 2f       	mov	r20, r24
    1874:	50 e0       	ldi	r21, 0x00	; 0
    1876:	8d b7       	in	r24, 0x3d	; 61
    1878:	9e b7       	in	r25, 0x3e	; 62
    187a:	0a 97       	sbiw	r24, 0x0a	; 10
    187c:	0f b6       	in	r0, 0x3f	; 63
    187e:	f8 94       	cli
    1880:	9e bf       	out	0x3e, r25	; 62
    1882:	0f be       	out	0x3f, r0	; 63
    1884:	8d bf       	out	0x3d, r24	; 61
    1886:	ed b7       	in	r30, 0x3d	; 61
    1888:	fe b7       	in	r31, 0x3e	; 62
    188a:	31 96       	adiw	r30, 0x01	; 1
    188c:	82 e1       	ldi	r24, 0x12	; 18
    188e:	95 e0       	ldi	r25, 0x05	; 5
    1890:	91 83       	std	Z+1, r25	; 0x01
    1892:	80 83       	st	Z, r24
    1894:	81 e4       	ldi	r24, 0x41	; 65
    1896:	91 e0       	ldi	r25, 0x01	; 1
    1898:	93 83       	std	Z+3, r25	; 0x03
    189a:	82 83       	std	Z+2, r24	; 0x02
    189c:	75 83       	std	Z+5, r23	; 0x05
    189e:	64 83       	std	Z+4, r22	; 0x04
    18a0:	37 83       	std	Z+7, r19	; 0x07
    18a2:	26 83       	std	Z+6, r18	; 0x06
    18a4:	51 87       	std	Z+9, r21	; 0x09
    18a6:	40 87       	std	Z+8, r20	; 0x08
    18a8:	0e 94 f0 01 	call	0x3e0	; 0x3e0 <sprintf>
    18ac:	8d b7       	in	r24, 0x3d	; 61
    18ae:	9e b7       	in	r25, 0x3e	; 62
    18b0:	0a 96       	adiw	r24, 0x0a	; 10
    18b2:	0f b6       	in	r0, 0x3f	; 63
    18b4:	f8 94       	cli
    18b6:	9e bf       	out	0x3e, r25	; 62
    18b8:	0f be       	out	0x3f, r0	; 63
    18ba:	8d bf       	out	0x3d, r24	; 61
    18bc:	2a c0       	rjmp	.+84     	; 0x1912 <gpib_serial_poll+0x17a>
					"Status byte from device primary=0x%02x,secondary=0x%02x (physical) = 0x%02x\n\r",
					TalkerAddress2Address(primary), secondary, b);
		} else {
			sprintf((char*) cmd_buf,
    18be:	8e 81       	ldd	r24, Y+6	; 0x06
    18c0:	88 2f       	mov	r24, r24
    18c2:	90 e0       	ldi	r25, 0x00	; 0
    18c4:	9c 01       	movw	r18, r24
    18c6:	20 54       	subi	r18, 0x40	; 64
    18c8:	30 40       	sbci	r19, 0x00	; 0
    18ca:	88 85       	ldd	r24, Y+8	; 0x08
    18cc:	48 2f       	mov	r20, r24
    18ce:	50 e0       	ldi	r21, 0x00	; 0
    18d0:	8d b7       	in	r24, 0x3d	; 61
    18d2:	9e b7       	in	r25, 0x3e	; 62
    18d4:	08 97       	sbiw	r24, 0x08	; 8
    18d6:	0f b6       	in	r0, 0x3f	; 63
    18d8:	f8 94       	cli
    18da:	9e bf       	out	0x3e, r25	; 62
    18dc:	0f be       	out	0x3f, r0	; 63
    18de:	8d bf       	out	0x3d, r24	; 61
    18e0:	ed b7       	in	r30, 0x3d	; 61
    18e2:	fe b7       	in	r31, 0x3e	; 62
    18e4:	31 96       	adiw	r30, 0x01	; 1
    18e6:	82 e1       	ldi	r24, 0x12	; 18
    18e8:	95 e0       	ldi	r25, 0x05	; 5
    18ea:	91 83       	std	Z+1, r25	; 0x01
    18ec:	80 83       	st	Z, r24
    18ee:	8f e8       	ldi	r24, 0x8F	; 143
    18f0:	91 e0       	ldi	r25, 0x01	; 1
    18f2:	93 83       	std	Z+3, r25	; 0x03
    18f4:	82 83       	std	Z+2, r24	; 0x02
    18f6:	35 83       	std	Z+5, r19	; 0x05
    18f8:	24 83       	std	Z+4, r18	; 0x04
    18fa:	57 83       	std	Z+7, r21	; 0x07
    18fc:	46 83       	std	Z+6, r20	; 0x06
    18fe:	0e 94 f0 01 	call	0x3e0	; 0x3e0 <sprintf>
    1902:	8d b7       	in	r24, 0x3d	; 61
    1904:	9e b7       	in	r25, 0x3e	; 62
    1906:	08 96       	adiw	r24, 0x08	; 8
    1908:	0f b6       	in	r0, 0x3f	; 63
    190a:	f8 94       	cli
    190c:	9e bf       	out	0x3e, r25	; 62
    190e:	0f be       	out	0x3f, r0	; 63
    1910:	8d bf       	out	0x3d, r24	; 61
					"Status byte from device primary=0x%02x (physical) = 0x%02x\n\r",
					TalkerAddress2Address(primary), b);
		}
		uart_puts((char*) cmd_buf);
    1912:	82 e1       	ldi	r24, 0x12	; 18
    1914:	95 e0       	ldi	r25, 0x05	; 5
    1916:	0e 94 94 15 	call	0x2b28	; 0x2b28 <uart_puts>

		// send UNT and UNL commands (unlisten and untalk)
		// effect: all talker stop talking and all listeners stop listening
		cmd_buf[0] = G_CMD_UNT;
    191a:	8f e5       	ldi	r24, 0x5F	; 95
    191c:	80 93 12 05 	sts	0x0512, r24
		gpib_cmd(cmd_buf, 1);
    1920:	82 e1       	ldi	r24, 0x12	; 18
    1922:	95 e0       	ldi	r25, 0x05	; 5
    1924:	61 e0       	ldi	r22, 0x01	; 1
    1926:	70 e0       	ldi	r23, 0x00	; 0
    1928:	0e 94 31 07 	call	0xe62	; 0xe62 <gpib_cmd>
		cmd_buf[0] = G_CMD_UNL;
    192c:	8f e3       	ldi	r24, 0x3F	; 63
    192e:	80 93 12 05 	sts	0x0512, r24
		gpib_cmd(cmd_buf, 1);
    1932:	82 e1       	ldi	r24, 0x12	; 18
    1934:	95 e0       	ldi	r25, 0x05	; 5
    1936:	61 e0       	ldi	r22, 0x01	; 1
    1938:	70 e0       	ldi	r23, 0x00	; 0
    193a:	0e 94 31 07 	call	0xe62	; 0xe62 <gpib_cmd>

		if (b & (1 << 6)) {
    193e:	88 85       	ldd	r24, Y+8	; 0x08
    1940:	88 2f       	mov	r24, r24
    1942:	90 e0       	ldi	r25, 0x00	; 0
    1944:	80 74       	andi	r24, 0x40	; 64
    1946:	90 70       	andi	r25, 0x00	; 0
    1948:	00 97       	sbiw	r24, 0x00	; 0
    194a:	81 f1       	breq	.+96     	; 0x19ac <gpib_serial_poll+0x214>
			found = primary;
    194c:	8e 81       	ldd	r24, Y+6	; 0x06
    194e:	8c 83       	std	Y+4, r24	; 0x04
			foundPhysical = TalkerAddress2Address(found);
    1950:	8c 81       	ldd	r24, Y+4	; 0x04
    1952:	80 54       	subi	r24, 0x40	; 64
    1954:	8b 83       	std	Y+3, r24	; 0x03
			// bit 6 of status byte of SRQ emitter is 1
			// when reading status byte from emitter, he releases SRQ line (may also be tested here)
			sprintf((char*) cmd_buf,
    1956:	8b 81       	ldd	r24, Y+3	; 0x03
    1958:	28 2f       	mov	r18, r24
    195a:	30 e0       	ldi	r19, 0x00	; 0
    195c:	8d 81       	ldd	r24, Y+5	; 0x05
    195e:	48 2f       	mov	r20, r24
    1960:	50 e0       	ldi	r21, 0x00	; 0
    1962:	8d b7       	in	r24, 0x3d	; 61
    1964:	9e b7       	in	r25, 0x3e	; 62
    1966:	08 97       	sbiw	r24, 0x08	; 8
    1968:	0f b6       	in	r0, 0x3f	; 63
    196a:	f8 94       	cli
    196c:	9e bf       	out	0x3e, r25	; 62
    196e:	0f be       	out	0x3f, r0	; 63
    1970:	8d bf       	out	0x3d, r24	; 61
    1972:	ed b7       	in	r30, 0x3d	; 61
    1974:	fe b7       	in	r31, 0x3e	; 62
    1976:	31 96       	adiw	r30, 0x01	; 1
    1978:	82 e1       	ldi	r24, 0x12	; 18
    197a:	95 e0       	ldi	r25, 0x05	; 5
    197c:	91 83       	std	Z+1, r25	; 0x01
    197e:	80 83       	st	Z, r24
    1980:	8c ec       	ldi	r24, 0xCC	; 204
    1982:	91 e0       	ldi	r25, 0x01	; 1
    1984:	93 83       	std	Z+3, r25	; 0x03
    1986:	82 83       	std	Z+2, r24	; 0x02
    1988:	35 83       	std	Z+5, r19	; 0x05
    198a:	24 83       	std	Z+4, r18	; 0x04
    198c:	57 83       	std	Z+7, r21	; 0x07
    198e:	46 83       	std	Z+6, r20	; 0x06
    1990:	0e 94 f0 01 	call	0x3e0	; 0x3e0 <sprintf>
    1994:	8d b7       	in	r24, 0x3d	; 61
    1996:	9e b7       	in	r25, 0x3e	; 62
    1998:	08 96       	adiw	r24, 0x08	; 8
    199a:	0f b6       	in	r0, 0x3f	; 63
    199c:	f8 94       	cli
    199e:	9e bf       	out	0x3e, r25	; 62
    19a0:	0f be       	out	0x3f, r0	; 63
    19a2:	8d bf       	out	0x3d, r24	; 61
					"SRQ emitter is device = 0x%02x (physical address), secondary = 0x%02x\n\r",
					foundPhysical, secondary);
			uart_puts((char*) cmd_buf);
    19a4:	82 e1       	ldi	r24, 0x12	; 18
    19a6:	95 e0       	ldi	r25, 0x05	; 5
    19a8:	0e 94 94 15 	call	0x2b28	; 0x2b28 <uart_puts>
	gpib_cmd(cmd_buf, 1);
	//uart_puts("after SPE\r\n");

	// searching for SRQ emitter in a loop ...
	for (i = 0; (controller.partners[i].primary != ADDRESS_NOT_SET) && !found;
			i++) {
    19ac:	89 81       	ldd	r24, Y+1	; 0x01
    19ae:	9a 81       	ldd	r25, Y+2	; 0x02
    19b0:	01 96       	adiw	r24, 0x01	; 1
    19b2:	9a 83       	std	Y+2, r25	; 0x02
    19b4:	89 83       	std	Y+1, r24	; 0x01
	cmd_buf[0] = G_CMD_SPE;
	gpib_cmd(cmd_buf, 1);
	//uart_puts("after SPE\r\n");

	// searching for SRQ emitter in a loop ...
	for (i = 0; (controller.partners[i].primary != ADDRESS_NOT_SET) && !found;
    19b6:	89 81       	ldd	r24, Y+1	; 0x01
    19b8:	9a 81       	ldd	r25, Y+2	; 0x02
    19ba:	88 0f       	add	r24, r24
    19bc:	99 1f       	adc	r25, r25
    19be:	fc 01       	movw	r30, r24
    19c0:	e1 5a       	subi	r30, 0xA1	; 161
    19c2:	fb 4f       	sbci	r31, 0xFB	; 251
    19c4:	80 81       	ld	r24, Z
    19c6:	8f 3f       	cpi	r24, 0xFF	; 255
    19c8:	21 f0       	breq	.+8      	; 0x19d2 <gpib_serial_poll+0x23a>
    19ca:	8c 81       	ldd	r24, Y+4	; 0x04
    19cc:	88 23       	and	r24, r24
    19ce:	09 f4       	brne	.+2      	; 0x19d2 <gpib_serial_poll+0x23a>
    19d0:	14 cf       	rjmp	.-472    	; 0x17fa <gpib_serial_poll+0x62>
		}
	}

	// serial poll disable
	// effect: all devices will return to normal behaviour as talker
	cmd_buf[0] = G_CMD_SPD;
    19d2:	89 e1       	ldi	r24, 0x19	; 25
    19d4:	80 93 12 05 	sts	0x0512, r24
	//uart_puts("before SPD\r\n");
	gpib_cmd(cmd_buf, 1);
    19d8:	82 e1       	ldi	r24, 0x12	; 18
    19da:	95 e0       	ldi	r25, 0x05	; 5
    19dc:	61 e0       	ldi	r22, 0x01	; 1
    19de:	70 e0       	ldi	r23, 0x00	; 0
    19e0:	0e 94 31 07 	call	0xe62	; 0xe62 <gpib_cmd>
	//uart_puts("after SPD\r\n");

	// "return" values determined
	*primary_v = primary;
    19e4:	e9 85       	ldd	r30, Y+9	; 0x09
    19e6:	fa 85       	ldd	r31, Y+10	; 0x0a
    19e8:	8e 81       	ldd	r24, Y+6	; 0x06
    19ea:	80 83       	st	Z, r24
	*secondary_v = secondary;
    19ec:	eb 85       	ldd	r30, Y+11	; 0x0b
    19ee:	fc 85       	ldd	r31, Y+12	; 0x0c
    19f0:	8d 81       	ldd	r24, Y+5	; 0x05
    19f2:	80 83       	st	Z, r24

	return found;
    19f4:	8c 81       	ldd	r24, Y+4	; 0x04
}
    19f6:	2c 96       	adiw	r28, 0x0c	; 12
    19f8:	0f b6       	in	r0, 0x3f	; 63
    19fa:	f8 94       	cli
    19fc:	de bf       	out	0x3e, r29	; 62
    19fe:	0f be       	out	0x3f, r0	; 63
    1a00:	cd bf       	out	0x3d, r28	; 61
    1a02:	cf 91       	pop	r28
    1a04:	df 91       	pop	r29
    1a06:	08 95       	ret

00001a08 <gpib_set_partner_address>:

/**
 * Set device to be controlled.
 * \param address Address of device.
 */
void gpib_set_partner_address(uchar primary, uchar secondary) {
    1a08:	df 93       	push	r29
    1a0a:	cf 93       	push	r28
    1a0c:	00 d0       	rcall	.+0      	; 0x1a0e <gpib_set_partner_address+0x6>
    1a0e:	cd b7       	in	r28, 0x3d	; 61
    1a10:	de b7       	in	r29, 0x3e	; 62
    1a12:	89 83       	std	Y+1, r24	; 0x01
    1a14:	6a 83       	std	Y+2, r22	; 0x02
	controller.partner.primary = primary;
    1a16:	89 81       	ldd	r24, Y+1	; 0x01
    1a18:	80 93 5b 04 	sts	0x045B, r24
	controller.partner.secondary = secondary;
    1a1c:	8a 81       	ldd	r24, Y+2	; 0x02
    1a1e:	80 93 5c 04 	sts	0x045C, r24
}
    1a22:	0f 90       	pop	r0
    1a24:	0f 90       	pop	r0
    1a26:	cf 91       	pop	r28
    1a28:	df 91       	pop	r29
    1a2a:	08 95       	ret

00001a2c <gpib_set_partner_secondary>:

/**
 * Set device to be controlled.
 * \param address Address of device.
 */
void gpib_set_partner_secondary(uchar secondary) {
    1a2c:	df 93       	push	r29
    1a2e:	cf 93       	push	r28
    1a30:	0f 92       	push	r0
    1a32:	cd b7       	in	r28, 0x3d	; 61
    1a34:	de b7       	in	r29, 0x3e	; 62
    1a36:	89 83       	std	Y+1, r24	; 0x01
	controller.partner.secondary = secondary;
    1a38:	89 81       	ldd	r24, Y+1	; 0x01
    1a3a:	80 93 5c 04 	sts	0x045C, r24
}
    1a3e:	0f 90       	pop	r0
    1a40:	cf 91       	pop	r28
    1a42:	df 91       	pop	r29
    1a44:	08 95       	ret

00001a46 <gpib_get_partner_pad>:

/**
 * Get primary address of device currently controlled.
 * \returns primary address Address of device.
 */
uchar gpib_get_partner_pad(void) {
    1a46:	df 93       	push	r29
    1a48:	cf 93       	push	r28
    1a4a:	cd b7       	in	r28, 0x3d	; 61
    1a4c:	de b7       	in	r29, 0x3e	; 62
	return controller.partner.primary;
    1a4e:	80 91 5b 04 	lds	r24, 0x045B
}
    1a52:	cf 91       	pop	r28
    1a54:	df 91       	pop	r29
    1a56:	08 95       	ret

00001a58 <gpib_get_partner_sad>:

/**
 * Get secondary address of device currently controlled.
 * \returns secondary address Address of device.
 */
uchar gpib_get_partner_sad(void) {
    1a58:	df 93       	push	r29
    1a5a:	cf 93       	push	r28
    1a5c:	cd b7       	in	r28, 0x3d	; 61
    1a5e:	de b7       	in	r29, 0x3e	; 62
	return controller.partner.secondary;
    1a60:	80 91 5c 04 	lds	r24, 0x045C
}
    1a64:	cf 91       	pop	r28
    1a66:	df 91       	pop	r29
    1a68:	08 95       	ret

00001a6a <gpib_get_address>:

/**
 * Get controller address.
 * \returns address of controller.
 */
uchar gpib_get_address(void) {
    1a6a:	df 93       	push	r29
    1a6c:	cf 93       	push	r28
    1a6e:	cd b7       	in	r28, 0x3d	; 61
    1a70:	de b7       	in	r29, 0x3e	; 62
	return controller.myaddress;
    1a72:	80 91 5a 04 	lds	r24, 0x045A
}
    1a76:	cf 91       	pop	r28
    1a78:	df 91       	pop	r29
    1a7a:	08 95       	ret

00001a7c <gpib_set_flavour>:

void gpib_set_flavour(uchar flavour) {
    1a7c:	df 93       	push	r29
    1a7e:	cf 93       	push	r28
    1a80:	0f 92       	push	r0
    1a82:	cd b7       	in	r28, 0x3d	; 61
    1a84:	de b7       	in	r29, 0x3e	; 62
    1a86:	89 83       	std	Y+1, r24	; 0x01
	controller.flavour = flavour;
    1a88:	89 81       	ldd	r24, Y+1	; 0x01
    1a8a:	80 93 5e 04 	sts	0x045E, r24
}
    1a8e:	0f 90       	pop	r0
    1a90:	cf 91       	pop	r28
    1a92:	df 91       	pop	r29
    1a94:	08 95       	ret

00001a96 <gpib_get_flavour>:

uchar gpib_get_flavour(void) {
    1a96:	df 93       	push	r29
    1a98:	cf 93       	push	r28
    1a9a:	cd b7       	in	r28, 0x3d	; 61
    1a9c:	de b7       	in	r29, 0x3e	; 62
	return controller.flavour;
    1a9e:	80 91 5e 04 	lds	r24, 0x045E
}
    1aa2:	cf 91       	pop	r28
    1aa4:	df 91       	pop	r29
    1aa6:	08 95       	ret

00001aa8 <gpib_clear_partners>:

/**
 * Clear partners list
 */
void gpib_clear_partners() {
    1aa8:	df 93       	push	r29
    1aaa:	cf 93       	push	r28
    1aac:	00 d0       	rcall	.+0      	; 0x1aae <gpib_clear_partners+0x6>
    1aae:	cd b7       	in	r28, 0x3d	; 61
    1ab0:	de b7       	in	r29, 0x3e	; 62
	for (int i = 0; i < MAX_PARTNER; i++) {
    1ab2:	1a 82       	std	Y+2, r1	; 0x02
    1ab4:	19 82       	std	Y+1, r1	; 0x01
    1ab6:	0e c0       	rjmp	.+28     	; 0x1ad4 <gpib_clear_partners+0x2c>
		controller.partners[i].primary = ADDRESS_NOT_SET;
    1ab8:	89 81       	ldd	r24, Y+1	; 0x01
    1aba:	9a 81       	ldd	r25, Y+2	; 0x02
    1abc:	88 0f       	add	r24, r24
    1abe:	99 1f       	adc	r25, r25
    1ac0:	fc 01       	movw	r30, r24
    1ac2:	e1 5a       	subi	r30, 0xA1	; 161
    1ac4:	fb 4f       	sbci	r31, 0xFB	; 251
    1ac6:	8f ef       	ldi	r24, 0xFF	; 255
    1ac8:	80 83       	st	Z, r24

/**
 * Clear partners list
 */
void gpib_clear_partners() {
	for (int i = 0; i < MAX_PARTNER; i++) {
    1aca:	89 81       	ldd	r24, Y+1	; 0x01
    1acc:	9a 81       	ldd	r25, Y+2	; 0x02
    1ace:	01 96       	adiw	r24, 0x01	; 1
    1ad0:	9a 83       	std	Y+2, r25	; 0x02
    1ad2:	89 83       	std	Y+1, r24	; 0x01
    1ad4:	89 81       	ldd	r24, Y+1	; 0x01
    1ad6:	9a 81       	ldd	r25, Y+2	; 0x02
    1ad8:	85 30       	cpi	r24, 0x05	; 5
    1ada:	91 05       	cpc	r25, r1
    1adc:	6c f3       	brlt	.-38     	; 0x1ab8 <gpib_clear_partners+0x10>
		controller.partners[i].primary = ADDRESS_NOT_SET;
	}
}
    1ade:	0f 90       	pop	r0
    1ae0:	0f 90       	pop	r0
    1ae2:	cf 91       	pop	r28
    1ae4:	df 91       	pop	r29
    1ae6:	08 95       	ret

00001ae8 <gpib_add_partner_address>:

/**
 * Add partner to list of known devices. Only these acre scanned during a serial poll.
 */
uchar gpib_add_partner_address(uchar primary, uchar secondary) {
    1ae8:	df 93       	push	r29
    1aea:	cf 93       	push	r28
    1aec:	00 d0       	rcall	.+0      	; 0x1aee <gpib_add_partner_address+0x6>
    1aee:	00 d0       	rcall	.+0      	; 0x1af0 <gpib_add_partner_address+0x8>
    1af0:	0f 92       	push	r0
    1af2:	cd b7       	in	r28, 0x3d	; 61
    1af4:	de b7       	in	r29, 0x3e	; 62
    1af6:	8b 83       	std	Y+3, r24	; 0x03
    1af8:	6c 83       	std	Y+4, r22	; 0x04
	int i;
	for (i = 0;
    1afa:	1a 82       	std	Y+2, r1	; 0x02
    1afc:	19 82       	std	Y+1, r1	; 0x01
    1afe:	05 c0       	rjmp	.+10     	; 0x1b0a <gpib_add_partner_address+0x22>
			i < MAX_PARTNER && controller.partners[i].primary != ADDRESS_NOT_SET;
			i++) {
    1b00:	89 81       	ldd	r24, Y+1	; 0x01
    1b02:	9a 81       	ldd	r25, Y+2	; 0x02
    1b04:	01 96       	adiw	r24, 0x01	; 1
    1b06:	9a 83       	std	Y+2, r25	; 0x02
    1b08:	89 83       	std	Y+1, r24	; 0x01
 * Add partner to list of known devices. Only these acre scanned during a serial poll.
 */
uchar gpib_add_partner_address(uchar primary, uchar secondary) {
	int i;
	for (i = 0;
			i < MAX_PARTNER && controller.partners[i].primary != ADDRESS_NOT_SET;
    1b0a:	89 81       	ldd	r24, Y+1	; 0x01
    1b0c:	9a 81       	ldd	r25, Y+2	; 0x02
    1b0e:	85 30       	cpi	r24, 0x05	; 5
    1b10:	91 05       	cpc	r25, r1
    1b12:	54 f4       	brge	.+20     	; 0x1b28 <gpib_add_partner_address+0x40>
    1b14:	89 81       	ldd	r24, Y+1	; 0x01
    1b16:	9a 81       	ldd	r25, Y+2	; 0x02
    1b18:	88 0f       	add	r24, r24
    1b1a:	99 1f       	adc	r25, r25
    1b1c:	fc 01       	movw	r30, r24
    1b1e:	e1 5a       	subi	r30, 0xA1	; 161
    1b20:	fb 4f       	sbci	r31, 0xFB	; 251
    1b22:	80 81       	ld	r24, Z
    1b24:	8f 3f       	cpi	r24, 0xFF	; 255
    1b26:	61 f7       	brne	.-40     	; 0x1b00 <gpib_add_partner_address+0x18>
			i++) {
	}
	if (i == MAX_PARTNER) {
    1b28:	89 81       	ldd	r24, Y+1	; 0x01
    1b2a:	9a 81       	ldd	r25, Y+2	; 0x02
    1b2c:	85 30       	cpi	r24, 0x05	; 5
    1b2e:	91 05       	cpc	r25, r1
    1b30:	39 f4       	brne	.+14     	; 0x1b40 <gpib_add_partner_address+0x58>
		uart_puts("Too much partners.\n\r");
    1b32:	84 e1       	ldi	r24, 0x14	; 20
    1b34:	92 e0       	ldi	r25, 0x02	; 2
    1b36:	0e 94 94 15 	call	0x2b28	; 0x2b28 <uart_puts>
		return 1;
    1b3a:	81 e0       	ldi	r24, 0x01	; 1
    1b3c:	8d 83       	std	Y+5, r24	; 0x05
    1b3e:	14 c0       	rjmp	.+40     	; 0x1b68 <gpib_add_partner_address+0x80>
	}
	controller.partners[i].primary = primary;
    1b40:	89 81       	ldd	r24, Y+1	; 0x01
    1b42:	9a 81       	ldd	r25, Y+2	; 0x02
    1b44:	88 0f       	add	r24, r24
    1b46:	99 1f       	adc	r25, r25
    1b48:	fc 01       	movw	r30, r24
    1b4a:	e1 5a       	subi	r30, 0xA1	; 161
    1b4c:	fb 4f       	sbci	r31, 0xFB	; 251
    1b4e:	8b 81       	ldd	r24, Y+3	; 0x03
    1b50:	80 83       	st	Z, r24
	controller.partners[i].secondary = secondary;
    1b52:	89 81       	ldd	r24, Y+1	; 0x01
    1b54:	9a 81       	ldd	r25, Y+2	; 0x02
    1b56:	03 96       	adiw	r24, 0x03	; 3
    1b58:	88 0f       	add	r24, r24
    1b5a:	99 1f       	adc	r25, r25
    1b5c:	fc 01       	movw	r30, r24
    1b5e:	e6 5a       	subi	r30, 0xA6	; 166
    1b60:	fb 4f       	sbci	r31, 0xFB	; 251
    1b62:	8c 81       	ldd	r24, Y+4	; 0x04
    1b64:	80 83       	st	Z, r24
	return 0;
    1b66:	1d 82       	std	Y+5, r1	; 0x05
    1b68:	8d 81       	ldd	r24, Y+5	; 0x05
}
    1b6a:	0f 90       	pop	r0
    1b6c:	0f 90       	pop	r0
    1b6e:	0f 90       	pop	r0
    1b70:	0f 90       	pop	r0
    1b72:	0f 90       	pop	r0
    1b74:	cf 91       	pop	r28
    1b76:	df 91       	pop	r29
    1b78:	08 95       	ret

00001b7a <gpib_remove_partner_address>:

/**
 * Remove partner from list of known devices.
 */
uchar gpib_remove_partner_address(uchar primary, uchar secondary) {
    1b7a:	df 93       	push	r29
    1b7c:	cf 93       	push	r28
    1b7e:	00 d0       	rcall	.+0      	; 0x1b80 <gpib_remove_partner_address+0x6>
    1b80:	00 d0       	rcall	.+0      	; 0x1b82 <gpib_remove_partner_address+0x8>
    1b82:	0f 92       	push	r0
    1b84:	cd b7       	in	r28, 0x3d	; 61
    1b86:	de b7       	in	r29, 0x3e	; 62
    1b88:	8b 83       	std	Y+3, r24	; 0x03
    1b8a:	6c 83       	std	Y+4, r22	; 0x04
	int i;
	for (i = 0;
    1b8c:	1a 82       	std	Y+2, r1	; 0x02
    1b8e:	19 82       	std	Y+1, r1	; 0x01
    1b90:	05 c0       	rjmp	.+10     	; 0x1b9c <gpib_remove_partner_address+0x22>
			i < MAX_PARTNER
					&& (controller.partners[i].primary != primary
							|| controller.partners[i].secondary != secondary);
			i++) {
    1b92:	89 81       	ldd	r24, Y+1	; 0x01
    1b94:	9a 81       	ldd	r25, Y+2	; 0x02
    1b96:	01 96       	adiw	r24, 0x01	; 1
    1b98:	9a 83       	std	Y+2, r25	; 0x02
    1b9a:	89 83       	std	Y+1, r24	; 0x01
 * Remove partner from list of known devices.
 */
uchar gpib_remove_partner_address(uchar primary, uchar secondary) {
	int i;
	for (i = 0;
			i < MAX_PARTNER
    1b9c:	89 81       	ldd	r24, Y+1	; 0x01
    1b9e:	9a 81       	ldd	r25, Y+2	; 0x02
    1ba0:	85 30       	cpi	r24, 0x05	; 5
    1ba2:	91 05       	cpc	r25, r1
    1ba4:	bc f4       	brge	.+46     	; 0x1bd4 <gpib_remove_partner_address+0x5a>
    1ba6:	89 81       	ldd	r24, Y+1	; 0x01
    1ba8:	9a 81       	ldd	r25, Y+2	; 0x02
    1baa:	88 0f       	add	r24, r24
    1bac:	99 1f       	adc	r25, r25
    1bae:	fc 01       	movw	r30, r24
    1bb0:	e1 5a       	subi	r30, 0xA1	; 161
    1bb2:	fb 4f       	sbci	r31, 0xFB	; 251
    1bb4:	90 81       	ld	r25, Z
    1bb6:	8b 81       	ldd	r24, Y+3	; 0x03
    1bb8:	98 17       	cp	r25, r24
    1bba:	59 f7       	brne	.-42     	; 0x1b92 <gpib_remove_partner_address+0x18>
    1bbc:	89 81       	ldd	r24, Y+1	; 0x01
    1bbe:	9a 81       	ldd	r25, Y+2	; 0x02
    1bc0:	03 96       	adiw	r24, 0x03	; 3
    1bc2:	88 0f       	add	r24, r24
    1bc4:	99 1f       	adc	r25, r25
    1bc6:	fc 01       	movw	r30, r24
    1bc8:	e6 5a       	subi	r30, 0xA6	; 166
    1bca:	fb 4f       	sbci	r31, 0xFB	; 251
    1bcc:	90 81       	ld	r25, Z
    1bce:	8c 81       	ldd	r24, Y+4	; 0x04
    1bd0:	98 17       	cp	r25, r24
    1bd2:	f9 f6       	brne	.-66     	; 0x1b92 <gpib_remove_partner_address+0x18>
					&& (controller.partners[i].primary != primary
							|| controller.partners[i].secondary != secondary);
			i++) {
	}
	if (i == MAX_PARTNER) {
    1bd4:	89 81       	ldd	r24, Y+1	; 0x01
    1bd6:	9a 81       	ldd	r25, Y+2	; 0x02
    1bd8:	85 30       	cpi	r24, 0x05	; 5
    1bda:	91 05       	cpc	r25, r1
    1bdc:	39 f4       	brne	.+14     	; 0x1bec <gpib_remove_partner_address+0x72>
		uart_puts("Partner unknown.\n\r");
    1bde:	89 e2       	ldi	r24, 0x29	; 41
    1be0:	92 e0       	ldi	r25, 0x02	; 2
    1be2:	0e 94 94 15 	call	0x2b28	; 0x2b28 <uart_puts>
		return 1;
    1be6:	81 e0       	ldi	r24, 0x01	; 1
    1be8:	8d 83       	std	Y+5, r24	; 0x05
    1bea:	14 c0       	rjmp	.+40     	; 0x1c14 <gpib_remove_partner_address+0x9a>
	}
	controller.partners[i].primary = ADDRESS_NOT_SET;
    1bec:	89 81       	ldd	r24, Y+1	; 0x01
    1bee:	9a 81       	ldd	r25, Y+2	; 0x02
    1bf0:	88 0f       	add	r24, r24
    1bf2:	99 1f       	adc	r25, r25
    1bf4:	fc 01       	movw	r30, r24
    1bf6:	e1 5a       	subi	r30, 0xA1	; 161
    1bf8:	fb 4f       	sbci	r31, 0xFB	; 251
    1bfa:	8f ef       	ldi	r24, 0xFF	; 255
    1bfc:	80 83       	st	Z, r24
	controller.partners[i].secondary = ADDRESS_NOT_SET;
    1bfe:	89 81       	ldd	r24, Y+1	; 0x01
    1c00:	9a 81       	ldd	r25, Y+2	; 0x02
    1c02:	03 96       	adiw	r24, 0x03	; 3
    1c04:	88 0f       	add	r24, r24
    1c06:	99 1f       	adc	r25, r25
    1c08:	fc 01       	movw	r30, r24
    1c0a:	e6 5a       	subi	r30, 0xA6	; 166
    1c0c:	fb 4f       	sbci	r31, 0xFB	; 251
    1c0e:	8f ef       	ldi	r24, 0xFF	; 255
    1c10:	80 83       	st	Z, r24
	return 0;
    1c12:	1d 82       	std	Y+5, r1	; 0x05
    1c14:	8d 81       	ldd	r24, Y+5	; 0x05
}
    1c16:	0f 90       	pop	r0
    1c18:	0f 90       	pop	r0
    1c1a:	0f 90       	pop	r0
    1c1c:	0f 90       	pop	r0
    1c1e:	0f 90       	pop	r0
    1c20:	cf 91       	pop	r28
    1c22:	df 91       	pop	r29
    1c24:	08 95       	ret

00001c26 <arb_ramp>:
void receiveAnswer();

#define ARB_TEST
#ifdef ARB_TEST

void arb_ramp() {
    1c26:	df 93       	push	r29
    1c28:	cf 93       	push	r28
    1c2a:	cd b7       	in	r28, 0x3d	; 61
    1c2c:	de b7       	in	r29, 0x3e	; 62
    1c2e:	2e 97       	sbiw	r28, 0x0e	; 14
    1c30:	0f b6       	in	r0, 0x3f	; 63
    1c32:	f8 94       	cli
    1c34:	de bf       	out	0x3e, r29	; 62
    1c36:	0f be       	out	0x3f, r0	; 63
    1c38:	cd bf       	out	0x3d, r28	; 61
	uchar b[10];

	gpib_prepare_write();
    1c3a:	0e 94 1f 05 	call	0xa3e	; 0xa3e <gpib_prepare_write>
	gpib_write_prologue(0);
    1c3e:	80 e0       	ldi	r24, 0x00	; 0
    1c40:	0e 94 8d 07 	call	0xf1a	; 0xf1a <gpib_write_prologue>

	gpib_write_string("SOUR:LIST:SEGM:VOLT ");
    1c44:	8c e3       	ldi	r24, 0x3C	; 60
    1c46:	92 e0       	ldi	r25, 0x02	; 2
    1c48:	0e 94 17 08 	call	0x102e	; 0x102e <gpib_write_string>

	for (int i = 0; i < 4096; i++) {
    1c4c:	1c 82       	std	Y+4, r1	; 0x04
    1c4e:	1b 82       	std	Y+3, r1	; 0x03
    1c50:	39 c0       	rjmp	.+114    	; 0x1cc4 <arb_ramp+0x9e>
		int f = i / 1000;
    1c52:	8b 81       	ldd	r24, Y+3	; 0x03
    1c54:	9c 81       	ldd	r25, Y+4	; 0x04
    1c56:	28 ee       	ldi	r18, 0xE8	; 232
    1c58:	33 e0       	ldi	r19, 0x03	; 3
    1c5a:	b9 01       	movw	r22, r18
    1c5c:	0e 94 d9 15 	call	0x2bb2	; 0x2bb2 <__divmodhi4>
    1c60:	cb 01       	movw	r24, r22
    1c62:	9a 83       	std	Y+2, r25	; 0x02
    1c64:	89 83       	std	Y+1, r24	; 0x01
		sprintf(b, "%d", f);
    1c66:	00 d0       	rcall	.+0      	; 0x1c68 <arb_ramp+0x42>
    1c68:	00 d0       	rcall	.+0      	; 0x1c6a <arb_ramp+0x44>
    1c6a:	00 d0       	rcall	.+0      	; 0x1c6c <arb_ramp+0x46>
    1c6c:	ed b7       	in	r30, 0x3d	; 61
    1c6e:	fe b7       	in	r31, 0x3e	; 62
    1c70:	31 96       	adiw	r30, 0x01	; 1
    1c72:	ce 01       	movw	r24, r28
    1c74:	05 96       	adiw	r24, 0x05	; 5
    1c76:	91 83       	std	Z+1, r25	; 0x01
    1c78:	80 83       	st	Z, r24
    1c7a:	81 e5       	ldi	r24, 0x51	; 81
    1c7c:	92 e0       	ldi	r25, 0x02	; 2
    1c7e:	93 83       	std	Z+3, r25	; 0x03
    1c80:	82 83       	std	Z+2, r24	; 0x02
    1c82:	89 81       	ldd	r24, Y+1	; 0x01
    1c84:	9a 81       	ldd	r25, Y+2	; 0x02
    1c86:	95 83       	std	Z+5, r25	; 0x05
    1c88:	84 83       	std	Z+4, r24	; 0x04
    1c8a:	0e 94 f0 01 	call	0x3e0	; 0x3e0 <sprintf>
    1c8e:	8d b7       	in	r24, 0x3d	; 61
    1c90:	9e b7       	in	r25, 0x3e	; 62
    1c92:	06 96       	adiw	r24, 0x06	; 6
    1c94:	0f b6       	in	r0, 0x3f	; 63
    1c96:	f8 94       	cli
    1c98:	9e bf       	out	0x3e, r25	; 62
    1c9a:	0f be       	out	0x3f, r0	; 63
    1c9c:	8d bf       	out	0x3d, r24	; 61
		gpib_write_byte(b[0], 0);
    1c9e:	8d 81       	ldd	r24, Y+5	; 0x05
    1ca0:	60 e0       	ldi	r22, 0x00	; 0
    1ca2:	0e 94 46 08 	call	0x108c	; 0x108c <gpib_write_byte>
		if (i < 4096 - 1) {
    1ca6:	8b 81       	ldd	r24, Y+3	; 0x03
    1ca8:	9c 81       	ldd	r25, Y+4	; 0x04
    1caa:	2f e0       	ldi	r18, 0x0F	; 15
    1cac:	8f 3f       	cpi	r24, 0xFF	; 255
    1cae:	92 07       	cpc	r25, r18
    1cb0:	24 f4       	brge	.+8      	; 0x1cba <arb_ramp+0x94>
			gpib_write_byte(',', 0);
    1cb2:	8c e2       	ldi	r24, 0x2C	; 44
    1cb4:	60 e0       	ldi	r22, 0x00	; 0
    1cb6:	0e 94 46 08 	call	0x108c	; 0x108c <gpib_write_byte>
	gpib_prepare_write();
	gpib_write_prologue(0);

	gpib_write_string("SOUR:LIST:SEGM:VOLT ");

	for (int i = 0; i < 4096; i++) {
    1cba:	8b 81       	ldd	r24, Y+3	; 0x03
    1cbc:	9c 81       	ldd	r25, Y+4	; 0x04
    1cbe:	01 96       	adiw	r24, 0x01	; 1
    1cc0:	9c 83       	std	Y+4, r25	; 0x04
    1cc2:	8b 83       	std	Y+3, r24	; 0x03
    1cc4:	8b 81       	ldd	r24, Y+3	; 0x03
    1cc6:	9c 81       	ldd	r25, Y+4	; 0x04
    1cc8:	20 e1       	ldi	r18, 0x10	; 16
    1cca:	80 30       	cpi	r24, 0x00	; 0
    1ccc:	92 07       	cpc	r25, r18
    1cce:	0c f2       	brlt	.-126    	; 0x1c52 <arb_ramp+0x2c>
		if (i < 4096 - 1) {
			gpib_write_byte(',', 0);
		}
	}

	gpib_write_byte(ASCII_CODE_CR, 1);
    1cd0:	8d e0       	ldi	r24, 0x0D	; 13
    1cd2:	61 e0       	ldi	r22, 0x01	; 1
    1cd4:	0e 94 46 08 	call	0x108c	; 0x108c <gpib_write_byte>
	gpib_write_epilogue(0);
    1cd8:	80 e0       	ldi	r24, 0x00	; 0
    1cda:	0e 94 dc 07 	call	0xfb8	; 0xfb8 <gpib_write_epilogue>
	gpib_untalkUnlisten();
    1cde:	0e 94 8d 05 	call	0xb1a	; 0xb1a <gpib_untalkUnlisten>
}
    1ce2:	2e 96       	adiw	r28, 0x0e	; 14
    1ce4:	0f b6       	in	r0, 0x3f	; 63
    1ce6:	f8 94       	cli
    1ce8:	de bf       	out	0x3e, r29	; 62
    1cea:	0f be       	out	0x3f, r0	; 63
    1cec:	cd bf       	out	0x3d, r28	; 61
    1cee:	cf 91       	pop	r28
    1cf0:	df 91       	pop	r29
    1cf2:	08 95       	ret

00001cf4 <arb>:

void arb() {
    1cf4:	df 93       	push	r29
    1cf6:	cf 93       	push	r28
    1cf8:	cd b7       	in	r28, 0x3d	; 61
    1cfa:	de b7       	in	r29, 0x3e	; 62
	gpib_write_command("*RST");
    1cfc:	84 e5       	ldi	r24, 0x54	; 84
    1cfe:	92 e0       	ldi	r25, 0x02	; 2
    1d00:	0e 94 f9 07 	call	0xff2	; 0xff2 <gpib_write_command>
	gpib_write_command("SOUR:ROSC:SOUR INT;");
    1d04:	89 e5       	ldi	r24, 0x59	; 89
    1d06:	92 e0       	ldi	r25, 0x02	; 2
    1d08:	0e 94 f9 07 	call	0xff2	; 0xff2 <gpib_write_command>
	gpib_write_command(":SOUR:FREQ:FIX 1E3;");
    1d0c:	8d e6       	ldi	r24, 0x6D	; 109
    1d0e:	92 e0       	ldi	r25, 0x02	; 2
    1d10:	0e 94 f9 07 	call	0xff2	; 0xff2 <gpib_write_command>
	gpib_write_command(":SOUR:FUNC:SHAP USER;");
    1d14:	81 e8       	ldi	r24, 0x81	; 129
    1d16:	92 e0       	ldi	r25, 0x02	; 2
    1d18:	0e 94 f9 07 	call	0xff2	; 0xff2 <gpib_write_command>
	gpib_write_command(":SOUR:VOLT:LEV:IMM:AMPL 5V");
    1d1c:	87 e9       	ldi	r24, 0x97	; 151
    1d1e:	92 e0       	ldi	r25, 0x02	; 2
    1d20:	0e 94 f9 07 	call	0xff2	; 0xff2 <gpib_write_command>
	gpib_write_command("SOUR:LIST:SEGM:SEL A"); // no ';' at end!
    1d24:	82 eb       	ldi	r24, 0xB2	; 178
    1d26:	92 e0       	ldi	r25, 0x02	; 2
    1d28:	0e 94 f9 07 	call	0xff2	; 0xff2 <gpib_write_command>
	arb_ramp();
    1d2c:	0e 94 13 0e 	call	0x1c26	; 0x1c26 <arb_ramp>
	gpib_write_command("SOUR:FUNC:USER A");
    1d30:	87 ec       	ldi	r24, 0xC7	; 199
    1d32:	92 e0       	ldi	r25, 0x02	; 2
    1d34:	0e 94 f9 07 	call	0xff2	; 0xff2 <gpib_write_command>
	gpib_write_command("INIT:IMM");
    1d38:	88 ed       	ldi	r24, 0xD8	; 216
    1d3a:	92 e0       	ldi	r25, 0x02	; 2
    1d3c:	0e 94 f9 07 	call	0xff2	; 0xff2 <gpib_write_command>
	//send_command("SOUR:LIST:SEGM:SEL?");
}
    1d40:	cf 91       	pop	r28
    1d42:	df 91       	pop	r29
    1d44:	08 95       	ret

00001d46 <stringToTwoUchars>:

/**
 * Read two integers from string like "45 56" or one integer. In latter case
 * the second integer is initialized with a special value.
 */
static void stringToTwoUchars(char *string, uchar *a, uchar *b) {
    1d46:	df 93       	push	r29
    1d48:	cf 93       	push	r28
    1d4a:	cd b7       	in	r28, 0x3d	; 61
    1d4c:	de b7       	in	r29, 0x3e	; 62
    1d4e:	28 97       	sbiw	r28, 0x08	; 8
    1d50:	0f b6       	in	r0, 0x3f	; 63
    1d52:	f8 94       	cli
    1d54:	de bf       	out	0x3e, r29	; 62
    1d56:	0f be       	out	0x3f, r0	; 63
    1d58:	cd bf       	out	0x3d, r28	; 61
    1d5a:	9c 83       	std	Y+4, r25	; 0x04
    1d5c:	8b 83       	std	Y+3, r24	; 0x03
    1d5e:	7e 83       	std	Y+6, r23	; 0x06
    1d60:	6d 83       	std	Y+5, r22	; 0x05
    1d62:	58 87       	std	Y+8, r21	; 0x08
    1d64:	4f 83       	std	Y+7, r20	; 0x07
	char *token = strtok(string, " ");
    1d66:	8b 81       	ldd	r24, Y+3	; 0x03
    1d68:	9c 81       	ldd	r25, Y+4	; 0x04
    1d6a:	21 ee       	ldi	r18, 0xE1	; 225
    1d6c:	32 e0       	ldi	r19, 0x02	; 2
    1d6e:	b9 01       	movw	r22, r18
    1d70:	0e 94 a8 01 	call	0x350	; 0x350 <strtok>
    1d74:	9a 83       	std	Y+2, r25	; 0x02
    1d76:	89 83       	std	Y+1, r24	; 0x01
	*a = atoi((char*) token);
    1d78:	89 81       	ldd	r24, Y+1	; 0x01
    1d7a:	9a 81       	ldd	r25, Y+2	; 0x02
    1d7c:	0e 94 8a 01 	call	0x314	; 0x314 <atoi>
    1d80:	ed 81       	ldd	r30, Y+5	; 0x05
    1d82:	fe 81       	ldd	r31, Y+6	; 0x06
    1d84:	80 83       	st	Z, r24
	token = strtok(NULL, " ");
    1d86:	21 ee       	ldi	r18, 0xE1	; 225
    1d88:	32 e0       	ldi	r19, 0x02	; 2
    1d8a:	80 e0       	ldi	r24, 0x00	; 0
    1d8c:	90 e0       	ldi	r25, 0x00	; 0
    1d8e:	b9 01       	movw	r22, r18
    1d90:	0e 94 a8 01 	call	0x350	; 0x350 <strtok>
    1d94:	9a 83       	std	Y+2, r25	; 0x02
    1d96:	89 83       	std	Y+1, r24	; 0x01
	if (token != NULL) {
    1d98:	89 81       	ldd	r24, Y+1	; 0x01
    1d9a:	9a 81       	ldd	r25, Y+2	; 0x02
    1d9c:	00 97       	sbiw	r24, 0x00	; 0
    1d9e:	41 f0       	breq	.+16     	; 0x1db0 <stringToTwoUchars+0x6a>
		*b = atoi((char*) token);
    1da0:	89 81       	ldd	r24, Y+1	; 0x01
    1da2:	9a 81       	ldd	r25, Y+2	; 0x02
    1da4:	0e 94 8a 01 	call	0x314	; 0x314 <atoi>
    1da8:	ef 81       	ldd	r30, Y+7	; 0x07
    1daa:	f8 85       	ldd	r31, Y+8	; 0x08
    1dac:	80 83       	st	Z, r24
    1dae:	04 c0       	rjmp	.+8      	; 0x1db8 <stringToTwoUchars+0x72>
	} else {
		*b = ADDRESS_NOT_SET;
    1db0:	ef 81       	ldd	r30, Y+7	; 0x07
    1db2:	f8 85       	ldd	r31, Y+8	; 0x08
    1db4:	8f ef       	ldi	r24, 0xFF	; 255
    1db6:	80 83       	st	Z, r24
	}
}
    1db8:	28 96       	adiw	r28, 0x08	; 8
    1dba:	0f b6       	in	r0, 0x3f	; 63
    1dbc:	f8 94       	cli
    1dbe:	de bf       	out	0x3e, r29	; 62
    1dc0:	0f be       	out	0x3f, r0	; 63
    1dc2:	cd bf       	out	0x3d, r28	; 61
    1dc4:	cf 91       	pop	r28
    1dc6:	df 91       	pop	r29
    1dc8:	08 95       	ret

00001dca <check_errors>:
 *
 * Reads error queue first entry.
 * TODO: read complete queue in while loop.
 *
 */
void check_errors() {
    1dca:	df 93       	push	r29
    1dcc:	cf 93       	push	r28
    1dce:	00 d0       	rcall	.+0      	; 0x1dd0 <check_errors+0x6>
    1dd0:	cd b7       	in	r28, 0x3d	; 61
    1dd2:	de b7       	in	r29, 0x3e	; 62
	char *error_cmd = "SYST:ERR?";
    1dd4:	83 ee       	ldi	r24, 0xE3	; 227
    1dd6:	92 e0       	ldi	r25, 0x02	; 2
    1dd8:	9a 83       	std	Y+2, r25	; 0x02
    1dda:	89 83       	std	Y+1, r24	; 0x01
	//send_command(error_cmd, SEND_FULL_CMD);
	receiveAnswer();
    1ddc:	0e 94 8e 11 	call	0x231c	; 0x231c <receiveAnswer>
}
    1de0:	0f 90       	pop	r0
    1de2:	0f 90       	pop	r0
    1de4:	cf 91       	pop	r28
    1de6:	df 91       	pop	r29
    1de8:	08 95       	ret

00001dea <input_char>:

/**
 * Reads in character into parameter c. Checks for errors and prints them out.
 * Returns 0 if there is no char to read, 1 if there was a char read in.
 */
uchar input_char(uchar *ch) {
    1dea:	df 93       	push	r29
    1dec:	cf 93       	push	r28
    1dee:	00 d0       	rcall	.+0      	; 0x1df0 <input_char+0x6>
    1df0:	00 d0       	rcall	.+0      	; 0x1df2 <input_char+0x8>
    1df2:	0f 92       	push	r0
    1df4:	cd b7       	in	r28, 0x3d	; 61
    1df6:	de b7       	in	r29, 0x3e	; 62
    1df8:	9c 83       	std	Y+4, r25	; 0x04
    1dfa:	8b 83       	std	Y+3, r24	; 0x03
	 * uart_getc() returns in the lower byte the received character and
	 * in the higher byte (bitmask) the last receive error
	 * UART_NO_DATA is returned when no data is available.
	 *
	 */
	c = uart_getc();
    1dfc:	0e 94 17 15 	call	0x2a2e	; 0x2a2e <uart_getc>
    1e00:	9a 83       	std	Y+2, r25	; 0x02
    1e02:	89 83       	std	Y+1, r24	; 0x01
	if (c & UART_NO_DATA) {
    1e04:	89 81       	ldd	r24, Y+1	; 0x01
    1e06:	9a 81       	ldd	r25, Y+2	; 0x02
    1e08:	80 70       	andi	r24, 0x00	; 0
    1e0a:	91 70       	andi	r25, 0x01	; 1
    1e0c:	00 97       	sbiw	r24, 0x00	; 0
    1e0e:	11 f0       	breq	.+4      	; 0x1e14 <input_char+0x2a>
		// no data available from UART
		return 0;
    1e10:	1d 82       	std	Y+5, r1	; 0x05
    1e12:	24 c0       	rjmp	.+72     	; 0x1e5c <input_char+0x72>
	}
	// make uchar from character in int value
	*ch = (uchar) c;
    1e14:	89 81       	ldd	r24, Y+1	; 0x01
    1e16:	eb 81       	ldd	r30, Y+3	; 0x03
    1e18:	fc 81       	ldd	r31, Y+4	; 0x04
    1e1a:	80 83       	st	Z, r24

	/*
	 * new data available from UART
	 * check for Frame or Overrun error
	 */
	if (c & UART_FRAME_ERROR) {
    1e1c:	89 81       	ldd	r24, Y+1	; 0x01
    1e1e:	9a 81       	ldd	r25, Y+2	; 0x02
    1e20:	80 70       	andi	r24, 0x00	; 0
    1e22:	98 70       	andi	r25, 0x08	; 8
    1e24:	00 97       	sbiw	r24, 0x00	; 0
    1e26:	21 f0       	breq	.+8      	; 0x1e30 <input_char+0x46>
		/* Framing Error detected, i.e no stop bit detected */
		uart_puts_P("UART Frame Error: ");
    1e28:	81 e8       	ldi	r24, 0x81	; 129
    1e2a:	90 e0       	ldi	r25, 0x00	; 0
    1e2c:	0e 94 b1 15 	call	0x2b62	; 0x2b62 <uart_puts_p>
	}
	if (c & UART_OVERRUN_ERROR) {
    1e30:	89 81       	ldd	r24, Y+1	; 0x01
    1e32:	9a 81       	ldd	r25, Y+2	; 0x02
    1e34:	80 70       	andi	r24, 0x00	; 0
    1e36:	94 70       	andi	r25, 0x04	; 4
    1e38:	00 97       	sbiw	r24, 0x00	; 0
    1e3a:	21 f0       	breq	.+8      	; 0x1e44 <input_char+0x5a>
		/*
		 * Overrun, a character already present in the UART UDR register was
		 * not read by the interrupt handler before the next character arrived,
		 * one or more received characters have been dropped
		 */
		uart_puts_P("UART Overrun Error: ");
    1e3c:	8c e6       	ldi	r24, 0x6C	; 108
    1e3e:	90 e0       	ldi	r25, 0x00	; 0
    1e40:	0e 94 b1 15 	call	0x2b62	; 0x2b62 <uart_puts_p>
	}
	if (c & UART_BUFFER_OVERFLOW) {
    1e44:	89 81       	ldd	r24, Y+1	; 0x01
    1e46:	9a 81       	ldd	r25, Y+2	; 0x02
    1e48:	80 70       	andi	r24, 0x00	; 0
    1e4a:	92 70       	andi	r25, 0x02	; 2
    1e4c:	00 97       	sbiw	r24, 0x00	; 0
    1e4e:	21 f0       	breq	.+8      	; 0x1e58 <input_char+0x6e>
		/*
		 * We are not reading the receive buffer fast enough,
		 * one or more received character have been dropped
		 */
		uart_puts_P("Buffer overflow error: ");
    1e50:	84 e5       	ldi	r24, 0x54	; 84
    1e52:	90 e0       	ldi	r25, 0x00	; 0
    1e54:	0e 94 b1 15 	call	0x2b62	; 0x2b62 <uart_puts_p>
	}
	return 1;
    1e58:	81 e0       	ldi	r24, 0x01	; 1
    1e5a:	8d 83       	std	Y+5, r24	; 0x05
    1e5c:	8d 81       	ldd	r24, Y+5	; 0x05
}
    1e5e:	0f 90       	pop	r0
    1e60:	0f 90       	pop	r0
    1e62:	0f 90       	pop	r0
    1e64:	0f 90       	pop	r0
    1e66:	0f 90       	pop	r0
    1e68:	cf 91       	pop	r28
    1e6a:	df 91       	pop	r29
    1e6c:	08 95       	ret

00001e6e <process_char>:
 * a) xon/xoff mode forward buffer to GPIB
 * b) no flow control: prints error message that input buffer is full.
 *
 * Returns 1 if command end is detected, 0 otherwise.
 */
uchar process_char(uchar *buf, uchar ch, int *ptr) {
    1e6e:	df 93       	push	r29
    1e70:	cf 93       	push	r28
    1e72:	00 d0       	rcall	.+0      	; 0x1e74 <process_char+0x6>
    1e74:	00 d0       	rcall	.+0      	; 0x1e76 <process_char+0x8>
    1e76:	00 d0       	rcall	.+0      	; 0x1e78 <process_char+0xa>
    1e78:	cd b7       	in	r28, 0x3d	; 61
    1e7a:	de b7       	in	r29, 0x3e	; 62
    1e7c:	9b 83       	std	Y+3, r25	; 0x03
    1e7e:	8a 83       	std	Y+2, r24	; 0x02
    1e80:	6c 83       	std	Y+4, r22	; 0x04
    1e82:	5e 83       	std	Y+6, r21	; 0x06
    1e84:	4d 83       	std	Y+5, r20	; 0x05
	uchar ret = 0;
    1e86:	19 82       	std	Y+1, r1	; 0x01
	/*
	 * send received character back depending on global flag
	 */
	if (rs232_remote_echo) {
    1e88:	80 91 53 04 	lds	r24, 0x0453
    1e8c:	88 23       	and	r24, r24
    1e8e:	19 f0       	breq	.+6      	; 0x1e96 <process_char+0x28>
		uart_putc((unsigned char) ch);
    1e90:	8c 81       	ldd	r24, Y+4	; 0x04
    1e92:	0e 94 6d 15 	call	0x2ada	; 0x2ada <uart_putc>
	}

	// if input buffer is not full, add char
	if (*ptr < COMMAND_INPUT_BUFFER_SIZE - 1) {
    1e96:	ed 81       	ldd	r30, Y+5	; 0x05
    1e98:	fe 81       	ldd	r31, Y+6	; 0x06
    1e9a:	80 81       	ld	r24, Z
    1e9c:	91 81       	ldd	r25, Z+1	; 0x01
    1e9e:	8f 34       	cpi	r24, 0x4F	; 79
    1ea0:	91 05       	cpc	r25, r1
    1ea2:	ec f4       	brge	.+58     	; 0x1ede <process_char+0x70>
		buf[(*ptr)++] = ch;
    1ea4:	ed 81       	ldd	r30, Y+5	; 0x05
    1ea6:	fe 81       	ldd	r31, Y+6	; 0x06
    1ea8:	40 81       	ld	r20, Z
    1eaa:	51 81       	ldd	r21, Z+1	; 0x01
    1eac:	9a 01       	movw	r18, r20
    1eae:	8a 81       	ldd	r24, Y+2	; 0x02
    1eb0:	9b 81       	ldd	r25, Y+3	; 0x03
    1eb2:	fc 01       	movw	r30, r24
    1eb4:	e2 0f       	add	r30, r18
    1eb6:	f3 1f       	adc	r31, r19
    1eb8:	8c 81       	ldd	r24, Y+4	; 0x04
    1eba:	80 83       	st	Z, r24
    1ebc:	ca 01       	movw	r24, r20
    1ebe:	01 96       	adiw	r24, 0x01	; 1
    1ec0:	ed 81       	ldd	r30, Y+5	; 0x05
    1ec2:	fe 81       	ldd	r31, Y+6	; 0x06
    1ec4:	91 83       	std	Z+1, r25	; 0x01
    1ec6:	80 83       	st	Z, r24
		buf[*ptr] = '\0';
    1ec8:	ed 81       	ldd	r30, Y+5	; 0x05
    1eca:	fe 81       	ldd	r31, Y+6	; 0x06
    1ecc:	80 81       	ld	r24, Z
    1ece:	91 81       	ldd	r25, Z+1	; 0x01
    1ed0:	9c 01       	movw	r18, r24
    1ed2:	8a 81       	ldd	r24, Y+2	; 0x02
    1ed4:	9b 81       	ldd	r25, Y+3	; 0x03
    1ed6:	fc 01       	movw	r30, r24
    1ed8:	e2 0f       	add	r30, r18
    1eda:	f3 1f       	adc	r31, r19
    1edc:	10 82       	st	Z, r1
	}

	// if command ends or buffer is full ...
	if (ch == ASCII_CODE_CR || *ptr >= COMMAND_INPUT_BUFFER_SIZE - 1) {
    1ede:	8c 81       	ldd	r24, Y+4	; 0x04
    1ee0:	8d 30       	cpi	r24, 0x0D	; 13
    1ee2:	39 f0       	breq	.+14     	; 0x1ef2 <process_char+0x84>
    1ee4:	ed 81       	ldd	r30, Y+5	; 0x05
    1ee6:	fe 81       	ldd	r31, Y+6	; 0x06
    1ee8:	80 81       	ld	r24, Z
    1eea:	91 81       	ldd	r25, Z+1	; 0x01
    1eec:	8f 34       	cpi	r24, 0x4F	; 79
    1eee:	91 05       	cpc	r25, r1
    1ef0:	14 f1       	brlt	.+68     	; 0x1f36 <process_char+0xc8>
		if (ch == ASCII_CODE_CR) {
    1ef2:	8c 81       	ldd	r24, Y+4	; 0x04
    1ef4:	8d 30       	cpi	r24, 0x0D	; 13
    1ef6:	b9 f4       	brne	.+46     	; 0x1f26 <process_char+0xb8>
			// adjust string terminator
			buf[--(*ptr)] = '\0';
    1ef8:	ed 81       	ldd	r30, Y+5	; 0x05
    1efa:	fe 81       	ldd	r31, Y+6	; 0x06
    1efc:	80 81       	ld	r24, Z
    1efe:	91 81       	ldd	r25, Z+1	; 0x01
    1f00:	01 97       	sbiw	r24, 0x01	; 1
    1f02:	ed 81       	ldd	r30, Y+5	; 0x05
    1f04:	fe 81       	ldd	r31, Y+6	; 0x06
    1f06:	91 83       	std	Z+1, r25	; 0x01
    1f08:	80 83       	st	Z, r24
    1f0a:	ed 81       	ldd	r30, Y+5	; 0x05
    1f0c:	fe 81       	ldd	r31, Y+6	; 0x06
    1f0e:	80 81       	ld	r24, Z
    1f10:	91 81       	ldd	r25, Z+1	; 0x01
    1f12:	9c 01       	movw	r18, r24
    1f14:	8a 81       	ldd	r24, Y+2	; 0x02
    1f16:	9b 81       	ldd	r25, Y+3	; 0x03
    1f18:	fc 01       	movw	r30, r24
    1f1a:	e2 0f       	add	r30, r18
    1f1c:	f3 1f       	adc	r31, r19
    1f1e:	10 82       	st	Z, r1
			// let calling function send last command part (or command itself)
			ret = 1;
    1f20:	81 e0       	ldi	r24, 0x01	; 1
    1f22:	89 83       	std	Y+1, r24	; 0x01
    1f24:	08 c0       	rjmp	.+16     	; 0x1f36 <process_char+0xc8>
		} else {
			// send intermediate part of command.
			uart_puts_P("Command overflow.");
    1f26:	84 e9       	ldi	r24, 0x94	; 148
    1f28:	90 e0       	ldi	r25, 0x00	; 0
    1f2a:	0e 94 b1 15 	call	0x2b62	; 0x2b62 <uart_puts_p>
			*ptr = 0;
    1f2e:	ed 81       	ldd	r30, Y+5	; 0x05
    1f30:	fe 81       	ldd	r31, Y+6	; 0x06
    1f32:	11 82       	std	Z+1, r1	; 0x01
    1f34:	10 82       	st	Z, r1
		}
	}
	return ret;
    1f36:	89 81       	ldd	r24, Y+1	; 0x01
}
    1f38:	26 96       	adiw	r28, 0x06	; 6
    1f3a:	0f b6       	in	r0, 0x3f	; 63
    1f3c:	f8 94       	cli
    1f3e:	de bf       	out	0x3e, r29	; 62
    1f40:	0f be       	out	0x3f, r0	; 63
    1f42:	cd bf       	out	0x3d, r28	; 61
    1f44:	cf 91       	pop	r28
    1f46:	df 91       	pop	r29
    1f48:	08 95       	ret

00001f4a <input_process>:
 * This approach handles small single line commands (needing no flow control) and large
 * multi-line commands if flow control is xon/xoff.
 *
 * \returns The character read in
 */
uchar input_process(uchar *buf, int *ptr) {
    1f4a:	df 93       	push	r29
    1f4c:	cf 93       	push	r28
    1f4e:	cd b7       	in	r28, 0x3d	; 61
    1f50:	de b7       	in	r29, 0x3e	; 62
    1f52:	27 97       	sbiw	r28, 0x07	; 7
    1f54:	0f b6       	in	r0, 0x3f	; 63
    1f56:	f8 94       	cli
    1f58:	de bf       	out	0x3e, r29	; 62
    1f5a:	0f be       	out	0x3f, r0	; 63
    1f5c:	cd bf       	out	0x3d, r28	; 61
    1f5e:	9c 83       	std	Y+4, r25	; 0x04
    1f60:	8b 83       	std	Y+3, r24	; 0x03
    1f62:	7e 83       	std	Y+6, r23	; 0x06
    1f64:	6d 83       	std	Y+5, r22	; 0x05
	uchar ch, ret = 0;
    1f66:	19 82       	std	Y+1, r1	; 0x01

	if (uart_get_flow_control() == FLOWCONTROL_XONXOFF) {
    1f68:	0e 94 11 14 	call	0x2822	; 0x2822 <uart_get_flow_control>
    1f6c:	81 30       	cpi	r24, 0x01	; 1
    1f6e:	b9 f4       	brne	.+46     	; 0x1f9e <input_process+0x54>
    1f70:	12 c0       	rjmp	.+36     	; 0x1f96 <input_process+0x4c>
		while (!ret) {
			// if nothing can be read in, return
			if (!input_char(&ch)) {
    1f72:	ce 01       	movw	r24, r28
    1f74:	02 96       	adiw	r24, 0x02	; 2
    1f76:	0e 94 f5 0e 	call	0x1dea	; 0x1dea <input_char>
    1f7a:	88 23       	and	r24, r24
    1f7c:	11 f4       	brne	.+4      	; 0x1f82 <input_process+0x38>
				return 0;
    1f7e:	1f 82       	std	Y+7, r1	; 0x07
    1f80:	22 c0       	rjmp	.+68     	; 0x1fc6 <input_process+0x7c>
			}
			ret = process_char(buf, ch, ptr);
    1f82:	4a 81       	ldd	r20, Y+2	; 0x02
    1f84:	8b 81       	ldd	r24, Y+3	; 0x03
    1f86:	9c 81       	ldd	r25, Y+4	; 0x04
    1f88:	2d 81       	ldd	r18, Y+5	; 0x05
    1f8a:	3e 81       	ldd	r19, Y+6	; 0x06
    1f8c:	64 2f       	mov	r22, r20
    1f8e:	a9 01       	movw	r20, r18
    1f90:	0e 94 37 0f 	call	0x1e6e	; 0x1e6e <process_char>
    1f94:	89 83       	std	Y+1, r24	; 0x01
 */
uchar input_process(uchar *buf, int *ptr) {
	uchar ch, ret = 0;

	if (uart_get_flow_control() == FLOWCONTROL_XONXOFF) {
		while (!ret) {
    1f96:	89 81       	ldd	r24, Y+1	; 0x01
    1f98:	88 23       	and	r24, r24
    1f9a:	59 f3       	breq	.-42     	; 0x1f72 <input_process+0x28>
    1f9c:	12 c0       	rjmp	.+36     	; 0x1fc2 <input_process+0x78>
			}
			ret = process_char(buf, ch, ptr);
		}
	} else {
		// if nothing can be read in, return
		if (!input_char(&ch)) {
    1f9e:	ce 01       	movw	r24, r28
    1fa0:	02 96       	adiw	r24, 0x02	; 2
    1fa2:	0e 94 f5 0e 	call	0x1dea	; 0x1dea <input_char>
    1fa6:	88 23       	and	r24, r24
    1fa8:	11 f4       	brne	.+4      	; 0x1fae <input_process+0x64>
			return 0;
    1faa:	1f 82       	std	Y+7, r1	; 0x07
    1fac:	0c c0       	rjmp	.+24     	; 0x1fc6 <input_process+0x7c>
		}
		ret = process_char(buf, ch, ptr);
    1fae:	4a 81       	ldd	r20, Y+2	; 0x02
    1fb0:	8b 81       	ldd	r24, Y+3	; 0x03
    1fb2:	9c 81       	ldd	r25, Y+4	; 0x04
    1fb4:	2d 81       	ldd	r18, Y+5	; 0x05
    1fb6:	3e 81       	ldd	r19, Y+6	; 0x06
    1fb8:	64 2f       	mov	r22, r20
    1fba:	a9 01       	movw	r20, r18
    1fbc:	0e 94 37 0f 	call	0x1e6e	; 0x1e6e <process_char>
    1fc0:	89 83       	std	Y+1, r24	; 0x01
	}
	return ret;
    1fc2:	89 81       	ldd	r24, Y+1	; 0x01
    1fc4:	8f 83       	std	Y+7, r24	; 0x07
    1fc6:	8f 81       	ldd	r24, Y+7	; 0x07
}
    1fc8:	27 96       	adiw	r28, 0x07	; 7
    1fca:	0f b6       	in	r0, 0x3f	; 63
    1fcc:	f8 94       	cli
    1fce:	de bf       	out	0x3e, r29	; 62
    1fd0:	0f be       	out	0x3f, r0	; 63
    1fd2:	cd bf       	out	0x3d, r28	; 61
    1fd4:	cf 91       	pop	r28
    1fd6:	df 91       	pop	r29
    1fd8:	08 95       	ret

00001fda <handle_internal_commands>:

/**
 * Handles builtin commands.
 */
void handle_internal_commands(uchar *commandString) {
    1fda:	df 93       	push	r29
    1fdc:	cf 93       	push	r28
    1fde:	00 d0       	rcall	.+0      	; 0x1fe0 <handle_internal_commands+0x6>
    1fe0:	00 d0       	rcall	.+0      	; 0x1fe2 <handle_internal_commands+0x8>
    1fe2:	00 d0       	rcall	.+0      	; 0x1fe4 <handle_internal_commands+0xa>
    1fe4:	cd b7       	in	r28, 0x3d	; 61
    1fe6:	de b7       	in	r29, 0x3e	; 62
    1fe8:	9c 83       	std	Y+4, r25	; 0x04
    1fea:	8b 83       	std	Y+3, r24	; 0x03
	uchar val, val1;

	switch (commandString[1]) {
    1fec:	8b 81       	ldd	r24, Y+3	; 0x03
    1fee:	9c 81       	ldd	r25, Y+4	; 0x04
    1ff0:	fc 01       	movw	r30, r24
    1ff2:	31 96       	adiw	r30, 0x01	; 1
    1ff4:	80 81       	ld	r24, Z
    1ff6:	28 2f       	mov	r18, r24
    1ff8:	30 e0       	ldi	r19, 0x00	; 0
    1ffa:	3e 83       	std	Y+6, r19	; 0x06
    1ffc:	2d 83       	std	Y+5, r18	; 0x05
    1ffe:	8d 81       	ldd	r24, Y+5	; 0x05
    2000:	9e 81       	ldd	r25, Y+6	; 0x06
    2002:	88 36       	cpi	r24, 0x68	; 104
    2004:	91 05       	cpc	r25, r1
    2006:	09 f4       	brne	.+2      	; 0x200a <handle_internal_commands+0x30>
    2008:	40 c1       	rjmp	.+640    	; 0x228a <handle_internal_commands+0x2b0>
    200a:	2d 81       	ldd	r18, Y+5	; 0x05
    200c:	3e 81       	ldd	r19, Y+6	; 0x06
    200e:	29 36       	cpi	r18, 0x69	; 105
    2010:	31 05       	cpc	r19, r1
    2012:	f4 f4       	brge	.+60     	; 0x2050 <handle_internal_commands+0x76>
    2014:	8d 81       	ldd	r24, Y+5	; 0x05
    2016:	9e 81       	ldd	r25, Y+6	; 0x06
    2018:	81 36       	cpi	r24, 0x61	; 97
    201a:	91 05       	cpc	r25, r1
    201c:	c1 f1       	breq	.+112    	; 0x208e <handle_internal_commands+0xb4>
    201e:	2d 81       	ldd	r18, Y+5	; 0x05
    2020:	3e 81       	ldd	r19, Y+6	; 0x06
    2022:	22 36       	cpi	r18, 0x62	; 98
    2024:	31 05       	cpc	r19, r1
    2026:	6c f4       	brge	.+26     	; 0x2042 <handle_internal_commands+0x68>
    2028:	8d 81       	ldd	r24, Y+5	; 0x05
    202a:	9e 81       	ldd	r25, Y+6	; 0x06
    202c:	8b 32       	cpi	r24, 0x2B	; 43
    202e:	91 05       	cpc	r25, r1
    2030:	09 f4       	brne	.+2      	; 0x2034 <handle_internal_commands+0x5a>
    2032:	96 c0       	rjmp	.+300    	; 0x2160 <handle_internal_commands+0x186>
    2034:	2d 81       	ldd	r18, Y+5	; 0x05
    2036:	3e 81       	ldd	r19, Y+6	; 0x06
    2038:	2d 32       	cpi	r18, 0x2D	; 45
    203a:	31 05       	cpc	r19, r1
    203c:	09 f4       	brne	.+2      	; 0x2040 <handle_internal_commands+0x66>
    203e:	ce c0       	rjmp	.+412    	; 0x21dc <handle_internal_commands+0x202>
    2040:	5e c1       	rjmp	.+700    	; 0x22fe <handle_internal_commands+0x324>
    2042:	8d 81       	ldd	r24, Y+5	; 0x05
    2044:	9e 81       	ldd	r25, Y+6	; 0x06
    2046:	85 36       	cpi	r24, 0x65	; 101
    2048:	91 05       	cpc	r25, r1
    204a:	09 f4       	brne	.+2      	; 0x204e <handle_internal_commands+0x74>
    204c:	46 c1       	rjmp	.+652    	; 0x22da <handle_internal_commands+0x300>
    204e:	57 c1       	rjmp	.+686    	; 0x22fe <handle_internal_commands+0x324>
    2050:	2d 81       	ldd	r18, Y+5	; 0x05
    2052:	3e 81       	ldd	r19, Y+6	; 0x06
    2054:	23 37       	cpi	r18, 0x73	; 115
    2056:	31 05       	cpc	r19, r1
    2058:	09 f4       	brne	.+2      	; 0x205c <handle_internal_commands+0x82>
    205a:	57 c0       	rjmp	.+174    	; 0x210a <handle_internal_commands+0x130>
    205c:	8d 81       	ldd	r24, Y+5	; 0x05
    205e:	9e 81       	ldd	r25, Y+6	; 0x06
    2060:	84 37       	cpi	r24, 0x74	; 116
    2062:	91 05       	cpc	r25, r1
    2064:	3c f4       	brge	.+14     	; 0x2074 <handle_internal_commands+0x9a>
    2066:	2d 81       	ldd	r18, Y+5	; 0x05
    2068:	3e 81       	ldd	r19, Y+6	; 0x06
    206a:	29 36       	cpi	r18, 0x69	; 105
    206c:	31 05       	cpc	r19, r1
    206e:	09 f4       	brne	.+2      	; 0x2072 <handle_internal_commands+0x98>
    2070:	0f c1       	rjmp	.+542    	; 0x2290 <handle_internal_commands+0x2b6>
    2072:	45 c1       	rjmp	.+650    	; 0x22fe <handle_internal_commands+0x324>
    2074:	8d 81       	ldd	r24, Y+5	; 0x05
    2076:	9e 81       	ldd	r25, Y+6	; 0x06
    2078:	88 37       	cpi	r24, 0x78	; 120
    207a:	91 05       	cpc	r25, r1
    207c:	09 f4       	brne	.+2      	; 0x2080 <handle_internal_commands+0xa6>
    207e:	ec c0       	rjmp	.+472    	; 0x2258 <handle_internal_commands+0x27e>
    2080:	2d 81       	ldd	r18, Y+5	; 0x05
    2082:	3e 81       	ldd	r19, Y+6	; 0x06
    2084:	2a 37       	cpi	r18, 0x7A	; 122
    2086:	31 05       	cpc	r19, r1
    2088:	09 f4       	brne	.+2      	; 0x208c <handle_internal_commands+0xb2>
    208a:	2e c1       	rjmp	.+604    	; 0x22e8 <handle_internal_commands+0x30e>
    208c:	38 c1       	rjmp	.+624    	; 0x22fe <handle_internal_commands+0x324>
	case 'a':
		/* set partner primary+secondary address */
		stringToTwoUchars((char*) (&(commandString[2])), &val, &val1);
    208e:	8b 81       	ldd	r24, Y+3	; 0x03
    2090:	9c 81       	ldd	r25, Y+4	; 0x04
    2092:	02 96       	adiw	r24, 0x02	; 2
    2094:	ae 01       	movw	r20, r28
    2096:	4e 5f       	subi	r20, 0xFE	; 254
    2098:	5f 4f       	sbci	r21, 0xFF	; 255
    209a:	9e 01       	movw	r18, r28
    209c:	2f 5f       	subi	r18, 0xFF	; 255
    209e:	3f 4f       	sbci	r19, 0xFF	; 255
    20a0:	b9 01       	movw	r22, r18
    20a2:	0e 94 a3 0e 	call	0x1d46	; 0x1d46 <stringToTwoUchars>
		sprintf(commandString, "Set partner address, primary: %u , secondary: %u\n\r",
    20a6:	89 81       	ldd	r24, Y+1	; 0x01
    20a8:	28 2f       	mov	r18, r24
    20aa:	30 e0       	ldi	r19, 0x00	; 0
    20ac:	8a 81       	ldd	r24, Y+2	; 0x02
    20ae:	48 2f       	mov	r20, r24
    20b0:	50 e0       	ldi	r21, 0x00	; 0
    20b2:	8d b7       	in	r24, 0x3d	; 61
    20b4:	9e b7       	in	r25, 0x3e	; 62
    20b6:	08 97       	sbiw	r24, 0x08	; 8
    20b8:	0f b6       	in	r0, 0x3f	; 63
    20ba:	f8 94       	cli
    20bc:	9e bf       	out	0x3e, r25	; 62
    20be:	0f be       	out	0x3f, r0	; 63
    20c0:	8d bf       	out	0x3d, r24	; 61
    20c2:	ed b7       	in	r30, 0x3d	; 61
    20c4:	fe b7       	in	r31, 0x3e	; 62
    20c6:	31 96       	adiw	r30, 0x01	; 1
    20c8:	8b 81       	ldd	r24, Y+3	; 0x03
    20ca:	9c 81       	ldd	r25, Y+4	; 0x04
    20cc:	91 83       	std	Z+1, r25	; 0x01
    20ce:	80 83       	st	Z, r24
    20d0:	8d ee       	ldi	r24, 0xED	; 237
    20d2:	92 e0       	ldi	r25, 0x02	; 2
    20d4:	93 83       	std	Z+3, r25	; 0x03
    20d6:	82 83       	std	Z+2, r24	; 0x02
    20d8:	35 83       	std	Z+5, r19	; 0x05
    20da:	24 83       	std	Z+4, r18	; 0x04
    20dc:	57 83       	std	Z+7, r21	; 0x07
    20de:	46 83       	std	Z+6, r20	; 0x06
    20e0:	0e 94 f0 01 	call	0x3e0	; 0x3e0 <sprintf>
    20e4:	2d b7       	in	r18, 0x3d	; 61
    20e6:	3e b7       	in	r19, 0x3e	; 62
    20e8:	28 5f       	subi	r18, 0xF8	; 248
    20ea:	3f 4f       	sbci	r19, 0xFF	; 255
    20ec:	0f b6       	in	r0, 0x3f	; 63
    20ee:	f8 94       	cli
    20f0:	3e bf       	out	0x3e, r19	; 62
    20f2:	0f be       	out	0x3f, r0	; 63
    20f4:	2d bf       	out	0x3d, r18	; 61
				val, val1);
		uart_puts(commandString);
    20f6:	8b 81       	ldd	r24, Y+3	; 0x03
    20f8:	9c 81       	ldd	r25, Y+4	; 0x04
    20fa:	0e 94 94 15 	call	0x2b28	; 0x2b28 <uart_puts>
		gpib_set_partner_address(val, val1);
    20fe:	89 81       	ldd	r24, Y+1	; 0x01
    2100:	9a 81       	ldd	r25, Y+2	; 0x02
    2102:	69 2f       	mov	r22, r25
    2104:	0e 94 04 0d 	call	0x1a08	; 0x1a08 <gpib_set_partner_address>
    2108:	00 c1       	rjmp	.+512    	; 0x230a <handle_internal_commands+0x330>
		break;
	case 's':
		/* set partner secondary address */
		val = atoi((char*) (&(commandString[2])));
    210a:	8b 81       	ldd	r24, Y+3	; 0x03
    210c:	9c 81       	ldd	r25, Y+4	; 0x04
    210e:	02 96       	adiw	r24, 0x02	; 2
    2110:	0e 94 8a 01 	call	0x314	; 0x314 <atoi>
    2114:	89 83       	std	Y+1, r24	; 0x01
		sprintf(commandString, "Set partner secondary address to %u\n\r", val);
    2116:	89 81       	ldd	r24, Y+1	; 0x01
    2118:	28 2f       	mov	r18, r24
    211a:	30 e0       	ldi	r19, 0x00	; 0
    211c:	00 d0       	rcall	.+0      	; 0x211e <handle_internal_commands+0x144>
    211e:	00 d0       	rcall	.+0      	; 0x2120 <handle_internal_commands+0x146>
    2120:	00 d0       	rcall	.+0      	; 0x2122 <handle_internal_commands+0x148>
    2122:	ed b7       	in	r30, 0x3d	; 61
    2124:	fe b7       	in	r31, 0x3e	; 62
    2126:	31 96       	adiw	r30, 0x01	; 1
    2128:	8b 81       	ldd	r24, Y+3	; 0x03
    212a:	9c 81       	ldd	r25, Y+4	; 0x04
    212c:	91 83       	std	Z+1, r25	; 0x01
    212e:	80 83       	st	Z, r24
    2130:	80 e2       	ldi	r24, 0x20	; 32
    2132:	93 e0       	ldi	r25, 0x03	; 3
    2134:	93 83       	std	Z+3, r25	; 0x03
    2136:	82 83       	std	Z+2, r24	; 0x02
    2138:	35 83       	std	Z+5, r19	; 0x05
    213a:	24 83       	std	Z+4, r18	; 0x04
    213c:	0e 94 f0 01 	call	0x3e0	; 0x3e0 <sprintf>
    2140:	8d b7       	in	r24, 0x3d	; 61
    2142:	9e b7       	in	r25, 0x3e	; 62
    2144:	06 96       	adiw	r24, 0x06	; 6
    2146:	0f b6       	in	r0, 0x3f	; 63
    2148:	f8 94       	cli
    214a:	9e bf       	out	0x3e, r25	; 62
    214c:	0f be       	out	0x3f, r0	; 63
    214e:	8d bf       	out	0x3d, r24	; 61
		uart_puts(commandString);
    2150:	8b 81       	ldd	r24, Y+3	; 0x03
    2152:	9c 81       	ldd	r25, Y+4	; 0x04
    2154:	0e 94 94 15 	call	0x2b28	; 0x2b28 <uart_puts>
		gpib_set_partner_secondary(val);
    2158:	89 81       	ldd	r24, Y+1	; 0x01
    215a:	0e 94 16 0d 	call	0x1a2c	; 0x1a2c <gpib_set_partner_secondary>
    215e:	d5 c0       	rjmp	.+426    	; 0x230a <handle_internal_commands+0x330>
		break;
	case '+':
		/* add device */
		stringToTwoUchars((char*) (&(commandString[2])), &val, &val1);
    2160:	8b 81       	ldd	r24, Y+3	; 0x03
    2162:	9c 81       	ldd	r25, Y+4	; 0x04
    2164:	02 96       	adiw	r24, 0x02	; 2
    2166:	ae 01       	movw	r20, r28
    2168:	4e 5f       	subi	r20, 0xFE	; 254
    216a:	5f 4f       	sbci	r21, 0xFF	; 255
    216c:	9e 01       	movw	r18, r28
    216e:	2f 5f       	subi	r18, 0xFF	; 255
    2170:	3f 4f       	sbci	r19, 0xFF	; 255
    2172:	b9 01       	movw	r22, r18
    2174:	0e 94 a3 0e 	call	0x1d46	; 0x1d46 <stringToTwoUchars>
		sprintf(commandString, "Add device, primary: %u , secondary: %u\n\r", val, val1);
    2178:	89 81       	ldd	r24, Y+1	; 0x01
    217a:	28 2f       	mov	r18, r24
    217c:	30 e0       	ldi	r19, 0x00	; 0
    217e:	8a 81       	ldd	r24, Y+2	; 0x02
    2180:	48 2f       	mov	r20, r24
    2182:	50 e0       	ldi	r21, 0x00	; 0
    2184:	8d b7       	in	r24, 0x3d	; 61
    2186:	9e b7       	in	r25, 0x3e	; 62
    2188:	08 97       	sbiw	r24, 0x08	; 8
    218a:	0f b6       	in	r0, 0x3f	; 63
    218c:	f8 94       	cli
    218e:	9e bf       	out	0x3e, r25	; 62
    2190:	0f be       	out	0x3f, r0	; 63
    2192:	8d bf       	out	0x3d, r24	; 61
    2194:	ed b7       	in	r30, 0x3d	; 61
    2196:	fe b7       	in	r31, 0x3e	; 62
    2198:	31 96       	adiw	r30, 0x01	; 1
    219a:	8b 81       	ldd	r24, Y+3	; 0x03
    219c:	9c 81       	ldd	r25, Y+4	; 0x04
    219e:	91 83       	std	Z+1, r25	; 0x01
    21a0:	80 83       	st	Z, r24
    21a2:	86 e4       	ldi	r24, 0x46	; 70
    21a4:	93 e0       	ldi	r25, 0x03	; 3
    21a6:	93 83       	std	Z+3, r25	; 0x03
    21a8:	82 83       	std	Z+2, r24	; 0x02
    21aa:	35 83       	std	Z+5, r19	; 0x05
    21ac:	24 83       	std	Z+4, r18	; 0x04
    21ae:	57 83       	std	Z+7, r21	; 0x07
    21b0:	46 83       	std	Z+6, r20	; 0x06
    21b2:	0e 94 f0 01 	call	0x3e0	; 0x3e0 <sprintf>
    21b6:	2d b7       	in	r18, 0x3d	; 61
    21b8:	3e b7       	in	r19, 0x3e	; 62
    21ba:	28 5f       	subi	r18, 0xF8	; 248
    21bc:	3f 4f       	sbci	r19, 0xFF	; 255
    21be:	0f b6       	in	r0, 0x3f	; 63
    21c0:	f8 94       	cli
    21c2:	3e bf       	out	0x3e, r19	; 62
    21c4:	0f be       	out	0x3f, r0	; 63
    21c6:	2d bf       	out	0x3d, r18	; 61
		uart_puts(commandString);
    21c8:	8b 81       	ldd	r24, Y+3	; 0x03
    21ca:	9c 81       	ldd	r25, Y+4	; 0x04
    21cc:	0e 94 94 15 	call	0x2b28	; 0x2b28 <uart_puts>
		gpib_add_partner_address(val, val1);
    21d0:	89 81       	ldd	r24, Y+1	; 0x01
    21d2:	9a 81       	ldd	r25, Y+2	; 0x02
    21d4:	69 2f       	mov	r22, r25
    21d6:	0e 94 74 0d 	call	0x1ae8	; 0x1ae8 <gpib_add_partner_address>
    21da:	97 c0       	rjmp	.+302    	; 0x230a <handle_internal_commands+0x330>
		break;
	case '-':
		/* add device */
		stringToTwoUchars((char*) (&(commandString[2])), &val, &val1);
    21dc:	8b 81       	ldd	r24, Y+3	; 0x03
    21de:	9c 81       	ldd	r25, Y+4	; 0x04
    21e0:	02 96       	adiw	r24, 0x02	; 2
    21e2:	ae 01       	movw	r20, r28
    21e4:	4e 5f       	subi	r20, 0xFE	; 254
    21e6:	5f 4f       	sbci	r21, 0xFF	; 255
    21e8:	9e 01       	movw	r18, r28
    21ea:	2f 5f       	subi	r18, 0xFF	; 255
    21ec:	3f 4f       	sbci	r19, 0xFF	; 255
    21ee:	b9 01       	movw	r22, r18
    21f0:	0e 94 a3 0e 	call	0x1d46	; 0x1d46 <stringToTwoUchars>
		sprintf(commandString, "Remove device, primary: %u , secondary: %u\n\r", val,
    21f4:	89 81       	ldd	r24, Y+1	; 0x01
    21f6:	28 2f       	mov	r18, r24
    21f8:	30 e0       	ldi	r19, 0x00	; 0
    21fa:	8a 81       	ldd	r24, Y+2	; 0x02
    21fc:	48 2f       	mov	r20, r24
    21fe:	50 e0       	ldi	r21, 0x00	; 0
    2200:	8d b7       	in	r24, 0x3d	; 61
    2202:	9e b7       	in	r25, 0x3e	; 62
    2204:	08 97       	sbiw	r24, 0x08	; 8
    2206:	0f b6       	in	r0, 0x3f	; 63
    2208:	f8 94       	cli
    220a:	9e bf       	out	0x3e, r25	; 62
    220c:	0f be       	out	0x3f, r0	; 63
    220e:	8d bf       	out	0x3d, r24	; 61
    2210:	ed b7       	in	r30, 0x3d	; 61
    2212:	fe b7       	in	r31, 0x3e	; 62
    2214:	31 96       	adiw	r30, 0x01	; 1
    2216:	8b 81       	ldd	r24, Y+3	; 0x03
    2218:	9c 81       	ldd	r25, Y+4	; 0x04
    221a:	91 83       	std	Z+1, r25	; 0x01
    221c:	80 83       	st	Z, r24
    221e:	80 e7       	ldi	r24, 0x70	; 112
    2220:	93 e0       	ldi	r25, 0x03	; 3
    2222:	93 83       	std	Z+3, r25	; 0x03
    2224:	82 83       	std	Z+2, r24	; 0x02
    2226:	35 83       	std	Z+5, r19	; 0x05
    2228:	24 83       	std	Z+4, r18	; 0x04
    222a:	57 83       	std	Z+7, r21	; 0x07
    222c:	46 83       	std	Z+6, r20	; 0x06
    222e:	0e 94 f0 01 	call	0x3e0	; 0x3e0 <sprintf>
    2232:	2d b7       	in	r18, 0x3d	; 61
    2234:	3e b7       	in	r19, 0x3e	; 62
    2236:	28 5f       	subi	r18, 0xF8	; 248
    2238:	3f 4f       	sbci	r19, 0xFF	; 255
    223a:	0f b6       	in	r0, 0x3f	; 63
    223c:	f8 94       	cli
    223e:	3e bf       	out	0x3e, r19	; 62
    2240:	0f be       	out	0x3f, r0	; 63
    2242:	2d bf       	out	0x3d, r18	; 61
				val1);
		uart_puts(commandString);
    2244:	8b 81       	ldd	r24, Y+3	; 0x03
    2246:	9c 81       	ldd	r25, Y+4	; 0x04
    2248:	0e 94 94 15 	call	0x2b28	; 0x2b28 <uart_puts>
		gpib_remove_partner_address(val, val1);
    224c:	89 81       	ldd	r24, Y+1	; 0x01
    224e:	9a 81       	ldd	r25, Y+2	; 0x02
    2250:	69 2f       	mov	r22, r25
    2252:	0e 94 bd 0d 	call	0x1b7a	; 0x1b7a <gpib_remove_partner_address>
    2256:	59 c0       	rjmp	.+178    	; 0x230a <handle_internal_commands+0x330>
		break;
	case 'x':
		/* Xon/Xoff flow control */
		if (!xonXoffMode) {
    2258:	80 91 54 04 	lds	r24, 0x0454
    225c:	88 23       	and	r24, r24
    225e:	59 f4       	brne	.+22     	; 0x2276 <handle_internal_commands+0x29c>
			xonXoffMode = 1;
    2260:	81 e0       	ldi	r24, 0x01	; 1
    2262:	80 93 54 04 	sts	0x0454, r24
			uart_set_flow_control(FLOWCONTROL_XONXOFF);
    2266:	81 e0       	ldi	r24, 0x01	; 1
    2268:	0e 94 04 14 	call	0x2808	; 0x2808 <uart_set_flow_control>
			uart_puts_P("xon/xoff flowcontrol on\n\r");
    226c:	82 ee       	ldi	r24, 0xE2	; 226
    226e:	90 e0       	ldi	r25, 0x00	; 0
    2270:	0e 94 b1 15 	call	0x2b62	; 0x2b62 <uart_puts_p>
    2274:	4a c0       	rjmp	.+148    	; 0x230a <handle_internal_commands+0x330>
		} else {
			xonXoffMode = 0;
    2276:	10 92 54 04 	sts	0x0454, r1
			uart_set_flow_control(FLOWCONTROL_NONE);
    227a:	80 e0       	ldi	r24, 0x00	; 0
    227c:	0e 94 04 14 	call	0x2808	; 0x2808 <uart_set_flow_control>
			uart_puts_P("xon/xoff flowcontrol off\n\r");
    2280:	87 ec       	ldi	r24, 0xC7	; 199
    2282:	90 e0       	ldi	r25, 0x00	; 0
    2284:	0e 94 b1 15 	call	0x2b62	; 0x2b62 <uart_puts_p>
    2288:	40 c0       	rjmp	.+128    	; 0x230a <handle_internal_commands+0x330>
		}
		break;
	case 'h':
		/* print some usage infos */
		printHelp();
    228a:	0e 94 67 12 	call	0x24ce	; 0x24ce <printHelp>
    228e:	3d c0       	rjmp	.+122    	; 0x230a <handle_internal_commands+0x330>
		break;
	case 'i':
		gpib_info();
    2290:	0e 94 75 0a 	call	0x14ea	; 0x14ea <gpib_info>
		sprintf(commandString, "Xon/Xoff flow control: %u\n\r", xonXoffMode);
    2294:	80 91 54 04 	lds	r24, 0x0454
    2298:	28 2f       	mov	r18, r24
    229a:	30 e0       	ldi	r19, 0x00	; 0
    229c:	00 d0       	rcall	.+0      	; 0x229e <handle_internal_commands+0x2c4>
    229e:	00 d0       	rcall	.+0      	; 0x22a0 <handle_internal_commands+0x2c6>
    22a0:	00 d0       	rcall	.+0      	; 0x22a2 <handle_internal_commands+0x2c8>
    22a2:	ed b7       	in	r30, 0x3d	; 61
    22a4:	fe b7       	in	r31, 0x3e	; 62
    22a6:	31 96       	adiw	r30, 0x01	; 1
    22a8:	8b 81       	ldd	r24, Y+3	; 0x03
    22aa:	9c 81       	ldd	r25, Y+4	; 0x04
    22ac:	91 83       	std	Z+1, r25	; 0x01
    22ae:	80 83       	st	Z, r24
    22b0:	8d e9       	ldi	r24, 0x9D	; 157
    22b2:	93 e0       	ldi	r25, 0x03	; 3
    22b4:	93 83       	std	Z+3, r25	; 0x03
    22b6:	82 83       	std	Z+2, r24	; 0x02
    22b8:	35 83       	std	Z+5, r19	; 0x05
    22ba:	24 83       	std	Z+4, r18	; 0x04
    22bc:	0e 94 f0 01 	call	0x3e0	; 0x3e0 <sprintf>
    22c0:	8d b7       	in	r24, 0x3d	; 61
    22c2:	9e b7       	in	r25, 0x3e	; 62
    22c4:	06 96       	adiw	r24, 0x06	; 6
    22c6:	0f b6       	in	r0, 0x3f	; 63
    22c8:	f8 94       	cli
    22ca:	9e bf       	out	0x3e, r25	; 62
    22cc:	0f be       	out	0x3f, r0	; 63
    22ce:	8d bf       	out	0x3d, r24	; 61
		uart_puts(commandString);
    22d0:	8b 81       	ldd	r24, Y+3	; 0x03
    22d2:	9c 81       	ldd	r25, Y+4	; 0x04
    22d4:	0e 94 94 15 	call	0x2b28	; 0x2b28 <uart_puts>
    22d8:	18 c0       	rjmp	.+48     	; 0x230a <handle_internal_commands+0x330>
		break;
	case 'e':
		uart_puts_P("Check errors\n\r");
    22da:	88 eb       	ldi	r24, 0xB8	; 184
    22dc:	90 e0       	ldi	r25, 0x00	; 0
    22de:	0e 94 b1 15 	call	0x2b62	; 0x2b62 <uart_puts_p>
		check_errors();
    22e2:	0e 94 e5 0e 	call	0x1dca	; 0x1dca <check_errors>
    22e6:	11 c0       	rjmp	.+34     	; 0x230a <handle_internal_commands+0x330>
		break;
#ifdef ARB_TEST
	case 'z':
		uart_puts("arb\n\r");
    22e8:	89 eb       	ldi	r24, 0xB9	; 185
    22ea:	93 e0       	ldi	r25, 0x03	; 3
    22ec:	0e 94 94 15 	call	0x2b28	; 0x2b28 <uart_puts>
		arb();
    22f0:	0e 94 7a 0e 	call	0x1cf4	; 0x1cf4 <arb>
		uart_puts("arb done\n\r");
    22f4:	8f eb       	ldi	r24, 0xBF	; 191
    22f6:	93 e0       	ldi	r25, 0x03	; 3
    22f8:	0e 94 94 15 	call	0x2b28	; 0x2b28 <uart_puts>
    22fc:	06 c0       	rjmp	.+12     	; 0x230a <handle_internal_commands+0x330>
		break;
#endif
	default:
		uart_puts_P("unknown command\n\r");
    22fe:	86 ea       	ldi	r24, 0xA6	; 166
    2300:	90 e0       	ldi	r25, 0x00	; 0
    2302:	0e 94 b1 15 	call	0x2b62	; 0x2b62 <uart_puts_p>
		printHelp();
    2306:	0e 94 67 12 	call	0x24ce	; 0x24ce <printHelp>
		break;
	}
}
    230a:	26 96       	adiw	r28, 0x06	; 6
    230c:	0f b6       	in	r0, 0x3f	; 63
    230e:	f8 94       	cli
    2310:	de bf       	out	0x3e, r29	; 62
    2312:	0f be       	out	0x3f, r0	; 63
    2314:	cd bf       	out	0x3d, r28	; 61
    2316:	cf 91       	pop	r28
    2318:	df 91       	pop	r29
    231a:	08 95       	ret

0000231c <receiveAnswer>:

/**
 * Receives answer after command was sent.
 */
void receiveAnswer() {
    231c:	df 93       	push	r29
    231e:	cf 93       	push	r28
    2320:	00 d0       	rcall	.+0      	; 0x2322 <receiveAnswer+0x6>
    2322:	00 d0       	rcall	.+0      	; 0x2324 <receiveAnswer+0x8>
    2324:	cd b7       	in	r28, 0x3d	; 61
    2326:	de b7       	in	r29, 0x3e	; 62
	uchar b, e;
	uchar colptr = 0;
    2328:	19 82       	std	Y+1, r1	; 0x01

	gpib_prepare_read();
    232a:	0e 94 56 05 	call	0xaac	; 0xaac <gpib_prepare_read>
	// read the answer until EOI is detected (then e becomes true)
	do {
		// gpib bus receive
		e = gpib_receive(&b);
    232e:	ce 01       	movw	r24, r28
    2330:	03 96       	adiw	r24, 0x03	; 3
    2332:	0e 94 b0 05 	call	0xb60	; 0xb60 <gpib_receive>
    2336:	8a 83       	std	Y+2, r24	; 0x02
		// write out character
		uart_putc(b);
    2338:	8b 81       	ldd	r24, Y+3	; 0x03
    233a:	0e 94 6d 15 	call	0x2ada	; 0x2ada <uart_putc>
		if (linebreak && (colptr++ == linebreak)) {
    233e:	80 91 56 04 	lds	r24, 0x0456
    2342:	88 23       	and	r24, r24
    2344:	99 f0       	breq	.+38     	; 0x236c <receiveAnswer+0x50>
    2346:	90 91 56 04 	lds	r25, 0x0456
    234a:	1c 82       	std	Y+4, r1	; 0x04
    234c:	89 81       	ldd	r24, Y+1	; 0x01
    234e:	89 17       	cp	r24, r25
    2350:	11 f4       	brne	.+4      	; 0x2356 <receiveAnswer+0x3a>
    2352:	81 e0       	ldi	r24, 0x01	; 1
    2354:	8c 83       	std	Y+4, r24	; 0x04
    2356:	89 81       	ldd	r24, Y+1	; 0x01
    2358:	8f 5f       	subi	r24, 0xFF	; 255
    235a:	89 83       	std	Y+1, r24	; 0x01
    235c:	8c 81       	ldd	r24, Y+4	; 0x04
    235e:	88 23       	and	r24, r24
    2360:	29 f0       	breq	.+10     	; 0x236c <receiveAnswer+0x50>
			uart_puts_P("\n\r");
    2362:	8c ef       	ldi	r24, 0xFC	; 252
    2364:	90 e0       	ldi	r25, 0x00	; 0
    2366:	0e 94 b1 15 	call	0x2b62	; 0x2b62 <uart_puts_p>
			colptr = 0;
    236a:	19 82       	std	Y+1, r1	; 0x01
		}
		//sprintf((char*)buf,"%02x - %c\n\r", b, b);
		//uart_puts((char*)buf);
	} while (!e);
    236c:	8a 81       	ldd	r24, Y+2	; 0x02
    236e:	88 23       	and	r24, r24
    2370:	f1 f2       	breq	.-68     	; 0x232e <receiveAnswer+0x12>
}
    2372:	0f 90       	pop	r0
    2374:	0f 90       	pop	r0
    2376:	0f 90       	pop	r0
    2378:	0f 90       	pop	r0
    237a:	cf 91       	pop	r28
    237c:	df 91       	pop	r29
    237e:	08 95       	ret

00002380 <srq_occured>:

/**
 * Check if a SRQ occured
 */
uchar srq_occured(int* old_time) {
    2380:	df 93       	push	r29
    2382:	cf 93       	push	r28
    2384:	00 d0       	rcall	.+0      	; 0x2386 <srq_occured+0x6>
    2386:	0f 92       	push	r0
    2388:	cd b7       	in	r28, 0x3d	; 61
    238a:	de b7       	in	r29, 0x3e	; 62
    238c:	9b 83       	std	Y+3, r25	; 0x03
    238e:	8a 83       	std	Y+2, r24	; 0x02
	uchar srq = 0;
    2390:	19 82       	std	Y+1, r1	; 0x01
	if (*old_time == 0) {
    2392:	ea 81       	ldd	r30, Y+2	; 0x02
    2394:	fb 81       	ldd	r31, Y+3	; 0x03
    2396:	80 81       	ld	r24, Z
    2398:	91 81       	ldd	r25, Z+1	; 0x01
    239a:	00 97       	sbiw	r24, 0x00	; 0
    239c:	49 f4       	brne	.+18     	; 0x23b0 <srq_occured+0x30>
		// old_time value initialization on first call with value s
		*old_time = s;
    239e:	80 91 c7 05 	lds	r24, 0x05C7
    23a2:	88 2f       	mov	r24, r24
    23a4:	90 e0       	ldi	r25, 0x00	; 0
    23a6:	ea 81       	ldd	r30, Y+2	; 0x02
    23a8:	fb 81       	ldd	r31, Y+3	; 0x03
    23aa:	91 83       	std	Z+1, r25	; 0x01
    23ac:	80 83       	st	Z, r24
    23ae:	1e c0       	rjmp	.+60     	; 0x23ec <srq_occured+0x6c>
	} else {
		if (s > *old_time) {
    23b0:	80 91 c7 05 	lds	r24, 0x05C7
    23b4:	28 2f       	mov	r18, r24
    23b6:	30 e0       	ldi	r19, 0x00	; 0
    23b8:	ea 81       	ldd	r30, Y+2	; 0x02
    23ba:	fb 81       	ldd	r31, Y+3	; 0x03
    23bc:	80 81       	ld	r24, Z
    23be:	91 81       	ldd	r25, Z+1	; 0x01
    23c0:	82 17       	cp	r24, r18
    23c2:	93 07       	cpc	r25, r19
    23c4:	9c f4       	brge	.+38     	; 0x23ec <srq_occured+0x6c>
			// some time has passed - check if srq was set
			srq = bit_is_clear(PIND, G_SRQ);
    23c6:	e0 e3       	ldi	r30, 0x30	; 48
    23c8:	f0 e0       	ldi	r31, 0x00	; 0
    23ca:	80 81       	ld	r24, Z
    23cc:	88 2f       	mov	r24, r24
    23ce:	90 e0       	ldi	r25, 0x00	; 0
    23d0:	80 74       	andi	r24, 0x40	; 64
    23d2:	90 70       	andi	r25, 0x00	; 0
    23d4:	19 82       	std	Y+1, r1	; 0x01
    23d6:	00 97       	sbiw	r24, 0x00	; 0
    23d8:	11 f4       	brne	.+4      	; 0x23de <srq_occured+0x5e>
    23da:	81 e0       	ldi	r24, 0x01	; 1
    23dc:	89 83       	std	Y+1, r24	; 0x01
			if (srq)
    23de:	89 81       	ldd	r24, Y+1	; 0x01
    23e0:	88 23       	and	r24, r24
    23e2:	21 f0       	breq	.+8      	; 0x23ec <srq_occured+0x6c>
				uart_puts_P("\n\rSRQ detected.\n\r");
    23e4:	8f ef       	ldi	r24, 0xFF	; 255
    23e6:	90 e0       	ldi	r25, 0x00	; 0
    23e8:	0e 94 b1 15 	call	0x2b62	; 0x2b62 <uart_puts_p>
		}
	}
	return srq;
    23ec:	89 81       	ldd	r24, Y+1	; 0x01
}
    23ee:	0f 90       	pop	r0
    23f0:	0f 90       	pop	r0
    23f2:	0f 90       	pop	r0
    23f4:	cf 91       	pop	r28
    23f6:	df 91       	pop	r29
    23f8:	08 95       	ret

000023fa <handle_srq>:

/**
 * Handles SRQs by doing serial poll
 *
 */
uchar handle_srq(uchar *buf, int *buf_ptr) {
    23fa:	df 93       	push	r29
    23fc:	cf 93       	push	r28
    23fe:	cd b7       	in	r28, 0x3d	; 61
    2400:	de b7       	in	r29, 0x3e	; 62
    2402:	28 97       	sbiw	r28, 0x08	; 8
    2404:	0f b6       	in	r0, 0x3f	; 63
    2406:	f8 94       	cli
    2408:	de bf       	out	0x3e, r29	; 62
    240a:	0f be       	out	0x3f, r0	; 63
    240c:	cd bf       	out	0x3d, r28	; 61
    240e:	9d 83       	std	Y+5, r25	; 0x05
    2410:	8c 83       	std	Y+4, r24	; 0x04
    2412:	7f 83       	std	Y+7, r23	; 0x07
    2414:	6e 83       	std	Y+6, r22	; 0x06
	uchar command_ready = 0;
    2416:	19 82       	std	Y+1, r1	; 0x01
	uint8_t primary, secondary;

	if (!gpib_serial_poll(&primary, &secondary)) {
    2418:	ce 01       	movw	r24, r28
    241a:	02 96       	adiw	r24, 0x02	; 2
    241c:	9e 01       	movw	r18, r28
    241e:	2d 5f       	subi	r18, 0xFD	; 253
    2420:	3f 4f       	sbci	r19, 0xFF	; 255
    2422:	b9 01       	movw	r22, r18
    2424:	0e 94 cc 0b 	call	0x1798	; 0x1798 <gpib_serial_poll>
    2428:	88 23       	and	r24, r24
    242a:	69 f4       	brne	.+26     	; 0x2446 <handle_srq+0x4c>
		uart_puts_P(
    242c:	8c e2       	ldi	r24, 0x2C	; 44
    242e:	91 e0       	ldi	r25, 0x01	; 1
    2430:	0e 94 b1 15 	call	0x2b62	; 0x2b62 <uart_puts_p>
				"\n\rSRQ emitter is not in list of known devices. SRQ Ignored.\n\r");
		uart_puts_P("\n\rSRQs are disabled now.\n\r");
    2434:	81 e1       	ldi	r24, 0x11	; 17
    2436:	91 e0       	ldi	r25, 0x01	; 1
    2438:	0e 94 b1 15 	call	0x2b62	; 0x2b62 <uart_puts_p>
		srq_enabled = 0;
    243c:	10 92 55 04 	sts	0x0455, r1
		return command_ready;
    2440:	89 81       	ldd	r24, Y+1	; 0x01
    2442:	88 87       	std	Y+8, r24	; 0x08
    2444:	3a c0       	rjmp	.+116    	; 0x24ba <handle_srq+0xc0>
	}
	gpib_set_partner_address(primary, secondary);
    2446:	8a 81       	ldd	r24, Y+2	; 0x02
    2448:	9b 81       	ldd	r25, Y+3	; 0x03
    244a:	69 2f       	mov	r22, r25
    244c:	0e 94 04 0d 	call	0x1a08	; 0x1a08 <gpib_set_partner_address>

	if (gpib_get_flavour() == FLAVOUR_TEK) {
    2450:	0e 94 4b 0d 	call	0x1a96	; 0x1a96 <gpib_get_flavour>
    2454:	81 30       	cpi	r24, 0x01	; 1
    2456:	79 f5       	brne	.+94     	; 0x24b6 <handle_srq+0xbc>
		// Tek: check status for reason
		buf[0] = 'E';
    2458:	ec 81       	ldd	r30, Y+4	; 0x04
    245a:	fd 81       	ldd	r31, Y+5	; 0x05
    245c:	85 e4       	ldi	r24, 0x45	; 69
    245e:	80 83       	st	Z, r24
		buf[1] = 'V';
    2460:	8c 81       	ldd	r24, Y+4	; 0x04
    2462:	9d 81       	ldd	r25, Y+5	; 0x05
    2464:	fc 01       	movw	r30, r24
    2466:	31 96       	adiw	r30, 0x01	; 1
    2468:	86 e5       	ldi	r24, 0x56	; 86
    246a:	80 83       	st	Z, r24
		buf[2] = 'E';
    246c:	8c 81       	ldd	r24, Y+4	; 0x04
    246e:	9d 81       	ldd	r25, Y+5	; 0x05
    2470:	fc 01       	movw	r30, r24
    2472:	32 96       	adiw	r30, 0x02	; 2
    2474:	85 e4       	ldi	r24, 0x45	; 69
    2476:	80 83       	st	Z, r24
		buf[3] = 'N';
    2478:	8c 81       	ldd	r24, Y+4	; 0x04
    247a:	9d 81       	ldd	r25, Y+5	; 0x05
    247c:	fc 01       	movw	r30, r24
    247e:	33 96       	adiw	r30, 0x03	; 3
    2480:	8e e4       	ldi	r24, 0x4E	; 78
    2482:	80 83       	st	Z, r24
		buf[4] = 'T';
    2484:	8c 81       	ldd	r24, Y+4	; 0x04
    2486:	9d 81       	ldd	r25, Y+5	; 0x05
    2488:	fc 01       	movw	r30, r24
    248a:	34 96       	adiw	r30, 0x04	; 4
    248c:	84 e5       	ldi	r24, 0x54	; 84
    248e:	80 83       	st	Z, r24
		buf[5] = '?';
    2490:	8c 81       	ldd	r24, Y+4	; 0x04
    2492:	9d 81       	ldd	r25, Y+5	; 0x05
    2494:	fc 01       	movw	r30, r24
    2496:	35 96       	adiw	r30, 0x05	; 5
    2498:	8f e3       	ldi	r24, 0x3F	; 63
    249a:	80 83       	st	Z, r24
		buf[6] = '\0';
    249c:	8c 81       	ldd	r24, Y+4	; 0x04
    249e:	9d 81       	ldd	r25, Y+5	; 0x05
    24a0:	fc 01       	movw	r30, r24
    24a2:	36 96       	adiw	r30, 0x06	; 6
    24a4:	10 82       	st	Z, r1
		*buf_ptr = 6;
    24a6:	ee 81       	ldd	r30, Y+6	; 0x06
    24a8:	ff 81       	ldd	r31, Y+7	; 0x07
    24aa:	86 e0       	ldi	r24, 0x06	; 6
    24ac:	90 e0       	ldi	r25, 0x00	; 0
    24ae:	91 83       	std	Z+1, r25	; 0x01
    24b0:	80 83       	st	Z, r24
		command_ready = 1;
    24b2:	81 e0       	ldi	r24, 0x01	; 1
    24b4:	89 83       	std	Y+1, r24	; 0x01
	}
	return command_ready;
    24b6:	89 81       	ldd	r24, Y+1	; 0x01
    24b8:	88 87       	std	Y+8, r24	; 0x08
    24ba:	88 85       	ldd	r24, Y+8	; 0x08
}
    24bc:	28 96       	adiw	r28, 0x08	; 8
    24be:	0f b6       	in	r0, 0x3f	; 63
    24c0:	f8 94       	cli
    24c2:	de bf       	out	0x3e, r29	; 62
    24c4:	0f be       	out	0x3f, r0	; 63
    24c6:	cd bf       	out	0x3d, r28	; 61
    24c8:	cf 91       	pop	r28
    24ca:	df 91       	pop	r29
    24cc:	08 95       	ret

000024ce <printHelp>:

void printHelp() {
    24ce:	df 93       	push	r29
    24d0:	cf 93       	push	r28
    24d2:	cd b7       	in	r28, 0x3d	; 61
    24d4:	de b7       	in	r29, 0x3e	; 62
    24d6:	c0 55       	subi	r28, 0x50	; 80
    24d8:	d0 40       	sbci	r29, 0x00	; 0
    24da:	0f b6       	in	r0, 0x3f	; 63
    24dc:	f8 94       	cli
    24de:	de bf       	out	0x3e, r29	; 62
    24e0:	0f be       	out	0x3f, r0	; 63
    24e2:	cd bf       	out	0x3d, r28	; 61
	char buf[COMMAND_INPUT_BUFFER_SIZE];
	sprintf(buf, "\n\rGPIB Controller (Rev.%s) (c) spurtikus.de 2008-2015\n\r",
    24e4:	00 d0       	rcall	.+0      	; 0x24e6 <printHelp+0x18>
    24e6:	00 d0       	rcall	.+0      	; 0x24e8 <printHelp+0x1a>
    24e8:	00 d0       	rcall	.+0      	; 0x24ea <printHelp+0x1c>
    24ea:	ed b7       	in	r30, 0x3d	; 61
    24ec:	fe b7       	in	r31, 0x3e	; 62
    24ee:	31 96       	adiw	r30, 0x01	; 1
    24f0:	ce 01       	movw	r24, r28
    24f2:	01 96       	adiw	r24, 0x01	; 1
    24f4:	91 83       	std	Z+1, r25	; 0x01
    24f6:	80 83       	st	Z, r24
    24f8:	8a ec       	ldi	r24, 0xCA	; 202
    24fa:	93 e0       	ldi	r25, 0x03	; 3
    24fc:	93 83       	std	Z+3, r25	; 0x03
    24fe:	82 83       	std	Z+2, r24	; 0x02
    2500:	82 e0       	ldi	r24, 0x02	; 2
    2502:	94 e0       	ldi	r25, 0x04	; 4
    2504:	95 83       	std	Z+5, r25	; 0x05
    2506:	84 83       	std	Z+4, r24	; 0x04
    2508:	0e 94 f0 01 	call	0x3e0	; 0x3e0 <sprintf>
    250c:	8d b7       	in	r24, 0x3d	; 61
    250e:	9e b7       	in	r25, 0x3e	; 62
    2510:	06 96       	adiw	r24, 0x06	; 6
    2512:	0f b6       	in	r0, 0x3f	; 63
    2514:	f8 94       	cli
    2516:	9e bf       	out	0x3e, r25	; 62
    2518:	0f be       	out	0x3f, r0	; 63
    251a:	8d bf       	out	0x3d, r24	; 61
	REVISION);
	uart_puts(buf);
    251c:	ce 01       	movw	r24, r28
    251e:	01 96       	adiw	r24, 0x01	; 1
    2520:	0e 94 94 15 	call	0x2b28	; 0x2b28 <uart_puts>
	uart_puts_P("Internal commands:\n\r");
    2524:	84 e8       	ldi	r24, 0x84	; 132
    2526:	92 e0       	ldi	r25, 0x02	; 2
    2528:	0e 94 b1 15 	call	0x2b62	; 0x2b62 <uart_puts_p>
	uart_puts(
    252c:	86 e0       	ldi	r24, 0x06	; 6
    252e:	94 e0       	ldi	r25, 0x04	; 4
    2530:	0e 94 94 15 	call	0x2b28	; 0x2b28 <uart_puts>
			".a <primary> [<secondary>] - set prim./second. address of remote device\n\r");
	uart_puts_P(".s <secondary> - set secondary address of remote device\n\r");
    2534:	8a e4       	ldi	r24, 0x4A	; 74
    2536:	92 e0       	ldi	r25, 0x02	; 2
    2538:	0e 94 b1 15 	call	0x2b62	; 0x2b62 <uart_puts_p>
	uart_puts_P(
    253c:	8a e0       	ldi	r24, 0x0A	; 10
    253e:	92 e0       	ldi	r25, 0x02	; 2
    2540:	0e 94 b1 15 	call	0x2b62	; 0x2b62 <uart_puts_p>
			".+ <n> - add partner device address to list of known devices.\n\r");
	uart_puts_P(
    2544:	85 ec       	ldi	r24, 0xC5	; 197
    2546:	91 e0       	ldi	r25, 0x01	; 1
    2548:	0e 94 b1 15 	call	0x2b62	; 0x2b62 <uart_puts_p>
			".- <n> - remove partner device address from list of known devices.\n\r");
	uart_puts_P(".x - toggle Xon/Xoff flow control.\n\r");
    254c:	80 ea       	ldi	r24, 0xA0	; 160
    254e:	91 e0       	ldi	r25, 0x01	; 1
    2550:	0e 94 b1 15 	call	0x2b62	; 0x2b62 <uart_puts_p>
	uart_puts_P(".h - print help.\n\r");
    2554:	8d e8       	ldi	r24, 0x8D	; 141
    2556:	91 e0       	ldi	r25, 0x01	; 1
    2558:	0e 94 b1 15 	call	0x2b62	; 0x2b62 <uart_puts_p>
	uart_puts_P(".i - dump info about GPIB lines.\n\r");
    255c:	8a e6       	ldi	r24, 0x6A	; 106
    255e:	91 e0       	ldi	r25, 0x01	; 1
    2560:	0e 94 b1 15 	call	0x2b62	; 0x2b62 <uart_puts_p>
}
    2564:	c0 5b       	subi	r28, 0xB0	; 176
    2566:	df 4f       	sbci	r29, 0xFF	; 255
    2568:	0f b6       	in	r0, 0x3f	; 63
    256a:	f8 94       	cli
    256c:	de bf       	out	0x3e, r29	; 62
    256e:	0f be       	out	0x3f, r0	; 63
    2570:	cd bf       	out	0x3d, r28	; 61
    2572:	cf 91       	pop	r28
    2574:	df 91       	pop	r29
    2576:	08 95       	ret

00002578 <state_machine>:
 * 2. send user entered command, if available, to listeners (act as talker, set devices to listeners)
 * 3. if command was a query, read the answer from device (become listener and set device to talker)
 * 4. check if SRQ occured and handle that
 *
 */
void state_machine() {
    2578:	df 93       	push	r29
    257a:	cf 93       	push	r28
    257c:	cd b7       	in	r28, 0x3d	; 61
    257e:	de b7       	in	r29, 0x3e	; 62
    2580:	c9 55       	subi	r28, 0x59	; 89
    2582:	d0 40       	sbci	r29, 0x00	; 0
    2584:	0f b6       	in	r0, 0x3f	; 63
    2586:	f8 94       	cli
    2588:	de bf       	out	0x3e, r29	; 62
    258a:	0f be       	out	0x3f, r0	; 63
    258c:	cd bf       	out	0x3d, r28	; 61
	int old_time = 0;
    258e:	1e 82       	std	Y+6, r1	; 0x06
    2590:	1d 82       	std	Y+5, r1	; 0x05
	uchar is_query = 0;
    2592:	1c 82       	std	Y+4, r1	; 0x04
	uchar do_prompt = 1;
    2594:	81 e0       	ldi	r24, 0x01	; 1
    2596:	8b 83       	std	Y+3, r24	; 0x03
	uchar ch;

	/** buffers used for commands and output strings */
	uchar buf[COMMAND_INPUT_BUFFER_SIZE];
	/** pointer in buffer */
	int buf_ptr = 0;
    2598:	fe 01       	movw	r30, r28
    259a:	e8 5a       	subi	r30, 0xA8	; 168
    259c:	ff 4f       	sbci	r31, 0xFF	; 255
    259e:	11 82       	std	Z+1, r1	; 0x01
    25a0:	10 82       	st	Z, r1

	uchar state = S_INITIAL;
    25a2:	81 e0       	ldi	r24, 0x01	; 1
    25a4:	8a 83       	std	Y+2, r24	; 0x02
	for (;;) {
		if (state == S_INITIAL) {
    25a6:	8a 81       	ldd	r24, Y+2	; 0x02
    25a8:	81 30       	cpi	r24, 0x01	; 1
    25aa:	49 f4       	brne	.+18     	; 0x25be <state_machine+0x46>
			if (do_prompt) {
    25ac:	8b 81       	ldd	r24, Y+3	; 0x03
    25ae:	88 23       	and	r24, r24
    25b0:	31 f0       	breq	.+12     	; 0x25be <state_machine+0x46>
				uart_puts("> ");
    25b2:	80 e5       	ldi	r24, 0x50	; 80
    25b4:	94 e0       	ldi	r25, 0x04	; 4
    25b6:	0e 94 94 15 	call	0x2b28	; 0x2b28 <uart_puts>
				do_prompt = 0;
    25ba:	1b 82       	std	Y+3, r1	; 0x03
				is_query = 0;
    25bc:	1c 82       	std	Y+4, r1	; 0x04
			}
		}

		if (!input_char(&ch))
    25be:	ce 01       	movw	r24, r28
    25c0:	07 96       	adiw	r24, 0x07	; 7
    25c2:	0e 94 f5 0e 	call	0x1dea	; 0x1dea <input_char>
    25c6:	88 23       	and	r24, r24
    25c8:	71 f3       	breq	.-36     	; 0x25a6 <state_machine+0x2e>
			continue;

		// byte received. Decide with state what to do.

		if (state == S_INITIAL) {
    25ca:	8a 81       	ldd	r24, Y+2	; 0x02
    25cc:	81 30       	cpi	r24, 0x01	; 1
    25ce:	41 f4       	brne	.+16     	; 0x25e0 <state_machine+0x68>
			// internal or external command?
			if (ch == '.') {
    25d0:	8f 81       	ldd	r24, Y+7	; 0x07
    25d2:	8e 32       	cpi	r24, 0x2E	; 46
    25d4:	19 f4       	brne	.+6      	; 0x25dc <state_machine+0x64>
				// internal command
				state = S_FIRST_BYTE_INT;
    25d6:	82 e0       	ldi	r24, 0x02	; 2
    25d8:	8a 83       	std	Y+2, r24	; 0x02
    25da:	02 c0       	rjmp	.+4      	; 0x25e0 <state_machine+0x68>
			} else {
				// gpib command
				state = S_FIRST_BYTE_GPIB;
    25dc:	83 e0       	ldi	r24, 0x03	; 3
    25de:	8a 83       	std	Y+2, r24	; 0x02

			}
		}

		if (state == S_FIRST_BYTE_INT) {
    25e0:	8a 81       	ldd	r24, Y+2	; 0x02
    25e2:	82 30       	cpi	r24, 0x02	; 2
    25e4:	59 f5       	brne	.+86     	; 0x263c <state_machine+0xc4>
			buf[0] = ch;
    25e6:	8f 81       	ldd	r24, Y+7	; 0x07
    25e8:	88 87       	std	Y+8, r24	; 0x08
			buf_ptr = 1;
    25ea:	fe 01       	movw	r30, r28
    25ec:	e8 5a       	subi	r30, 0xA8	; 168
    25ee:	ff 4f       	sbci	r31, 0xFF	; 255
    25f0:	81 e0       	ldi	r24, 0x01	; 1
    25f2:	90 e0       	ldi	r25, 0x00	; 0
    25f4:	91 83       	std	Z+1, r25	; 0x01
    25f6:	80 83       	st	Z, r24
			// send received character back depending on global flag
			if (rs232_remote_echo) {
    25f8:	80 91 53 04 	lds	r24, 0x0453
    25fc:	88 23       	and	r24, r24
    25fe:	19 f0       	breq	.+6      	; 0x2606 <state_machine+0x8e>
				uart_putc((unsigned char) ch);
    2600:	8f 81       	ldd	r24, Y+7	; 0x07
    2602:	0e 94 6d 15 	call	0x2ada	; 0x2ada <uart_putc>
			}
			// collect line until CR
			while (!input_process(buf, &buf_ptr))
    2606:	ce 01       	movw	r24, r28
    2608:	08 96       	adiw	r24, 0x08	; 8
    260a:	9e 01       	movw	r18, r28
    260c:	28 5a       	subi	r18, 0xA8	; 168
    260e:	3f 4f       	sbci	r19, 0xFF	; 255
    2610:	b9 01       	movw	r22, r18
    2612:	0e 94 a5 0f 	call	0x1f4a	; 0x1f4a <input_process>
    2616:	88 23       	and	r24, r24
    2618:	b1 f3       	breq	.-20     	; 0x2606 <state_machine+0x8e>
				;
			uart_puts_P("\n\r");
    261a:	82 ed       	ldi	r24, 0xD2	; 210
    261c:	92 e0       	ldi	r25, 0x02	; 2
    261e:	0e 94 b1 15 	call	0x2b62	; 0x2b62 <uart_puts_p>
			// execute internal command
			handle_internal_commands(buf);
    2622:	ce 01       	movw	r24, r28
    2624:	08 96       	adiw	r24, 0x08	; 8
    2626:	0e 94 ed 0f 	call	0x1fda	; 0x1fda <handle_internal_commands>
			// reset local vars
			state = S_INITIAL;
    262a:	81 e0       	ldi	r24, 0x01	; 1
    262c:	8a 83       	std	Y+2, r24	; 0x02
			buf_ptr = 0;
    262e:	fe 01       	movw	r30, r28
    2630:	e8 5a       	subi	r30, 0xA8	; 168
    2632:	ff 4f       	sbci	r31, 0xFF	; 255
    2634:	11 82       	std	Z+1, r1	; 0x01
    2636:	10 82       	st	Z, r1
			do_prompt = 1;
    2638:	81 e0       	ldi	r24, 0x01	; 1
    263a:	8b 83       	std	Y+3, r24	; 0x03
		}

		if (state == S_FIRST_BYTE_GPIB) {
    263c:	8a 81       	ldd	r24, Y+2	; 0x02
    263e:	83 30       	cpi	r24, 0x03	; 3
    2640:	d1 f4       	brne	.+52     	; 0x2676 <state_machine+0xfe>
			// GPIB command. Check if a partner was defined.
			if (gpib_get_partner_pad() == ADDRESS_NOT_SET) {
    2642:	0e 94 23 0d 	call	0x1a46	; 0x1a46 <gpib_get_partner_pad>
    2646:	8f 3f       	cpi	r24, 0xFF	; 255
    2648:	79 f4       	brne	.+30     	; 0x2668 <state_machine+0xf0>
				uart_puts_P(
    264a:	8f e9       	ldi	r24, 0x9F	; 159
    264c:	92 e0       	ldi	r25, 0x02	; 2
    264e:	0e 94 b1 15 	call	0x2b62	; 0x2b62 <uart_puts_p>
						"Device address is not set. Can not send command.\n\r");
				// reset local vars
				state = S_INITIAL;
    2652:	81 e0       	ldi	r24, 0x01	; 1
    2654:	8a 83       	std	Y+2, r24	; 0x02
				buf_ptr = 0;
    2656:	fe 01       	movw	r30, r28
    2658:	e8 5a       	subi	r30, 0xA8	; 168
    265a:	ff 4f       	sbci	r31, 0xFF	; 255
    265c:	11 82       	std	Z+1, r1	; 0x01
    265e:	10 82       	st	Z, r1
				do_prompt = 1;
    2660:	81 e0       	ldi	r24, 0x01	; 1
    2662:	8b 83       	std	Y+3, r24	; 0x03
				is_query = 0;
    2664:	1c 82       	std	Y+4, r1	; 0x04
    2666:	07 c0       	rjmp	.+14     	; 0x2676 <state_machine+0xfe>
			} else {
				// write prologue
				state = S_SEND_BYTES;
    2668:	84 e0       	ldi	r24, 0x04	; 4
    266a:	8a 83       	std	Y+2, r24	; 0x02
				gpib_prepare_write();
    266c:	0e 94 1f 05 	call	0xa3e	; 0xa3e <gpib_prepare_write>
				gpib_write_prologue(0);
    2670:	80 e0       	ldi	r24, 0x00	; 0
    2672:	0e 94 8d 07 	call	0xf1a	; 0xf1a <gpib_write_prologue>
			}
		}

		if (state == S_SEND_BYTES) {
    2676:	8a 81       	ldd	r24, Y+2	; 0x02
    2678:	84 30       	cpi	r24, 0x04	; 4
    267a:	29 f5       	brne	.+74     	; 0x26c6 <state_machine+0x14e>
			// send received character back depending on global flag
			if (rs232_remote_echo) {
    267c:	80 91 53 04 	lds	r24, 0x0453
    2680:	88 23       	and	r24, r24
    2682:	19 f0       	breq	.+6      	; 0x268a <state_machine+0x112>
				uart_putc((unsigned char) ch);
    2684:	8f 81       	ldd	r24, Y+7	; 0x07
    2686:	0e 94 6d 15 	call	0x2ada	; 0x2ada <uart_putc>
			}
			uchar isLastByte = (ch == ASCII_CODE_CR);
    268a:	8f 81       	ldd	r24, Y+7	; 0x07
    268c:	19 82       	std	Y+1, r1	; 0x01
    268e:	8d 30       	cpi	r24, 0x0D	; 13
    2690:	11 f4       	brne	.+4      	; 0x2696 <state_machine+0x11e>
    2692:	81 e0       	ldi	r24, 0x01	; 1
    2694:	89 83       	std	Y+1, r24	; 0x01
			gpib_write_byte(ch, isLastByte);
    2696:	8f 81       	ldd	r24, Y+7	; 0x07
    2698:	69 81       	ldd	r22, Y+1	; 0x01
    269a:	0e 94 46 08 	call	0x108c	; 0x108c <gpib_write_byte>

			if (ch == '?') {
    269e:	8f 81       	ldd	r24, Y+7	; 0x07
    26a0:	8f 33       	cpi	r24, 0x3F	; 63
    26a2:	11 f4       	brne	.+4      	; 0x26a8 <state_machine+0x130>
				is_query = 1;
    26a4:	81 e0       	ldi	r24, 0x01	; 1
    26a6:	8c 83       	std	Y+4, r24	; 0x04
			}

			if (isLastByte) {
    26a8:	89 81       	ldd	r24, Y+1	; 0x01
    26aa:	88 23       	and	r24, r24
    26ac:	61 f0       	breq	.+24     	; 0x26c6 <state_machine+0x14e>
				uart_puts_P("\n\r");
    26ae:	8c e9       	ldi	r24, 0x9C	; 156
    26b0:	92 e0       	ldi	r25, 0x02	; 2
    26b2:	0e 94 b1 15 	call	0x2b62	; 0x2b62 <uart_puts_p>
				if (is_query) {
    26b6:	8c 81       	ldd	r24, Y+4	; 0x04
    26b8:	88 23       	and	r24, r24
    26ba:	19 f0       	breq	.+6      	; 0x26c2 <state_machine+0x14a>
					//uart_puts("Query. Will check for answer.\n\r");
					state = S_GPIB_ANSWER;
    26bc:	85 e0       	ldi	r24, 0x05	; 5
    26be:	8a 83       	std	Y+2, r24	; 0x02
    26c0:	02 c0       	rjmp	.+4      	; 0x26c6 <state_machine+0x14e>
				} else {
					//uart_puts("Command only.\n\r");
					state = S_GPIB_NO_ANSWER;
    26c2:	86 e0       	ldi	r24, 0x06	; 6
    26c4:	8a 83       	std	Y+2, r24	; 0x02
				}
			}
		}

		// write epilogue
		if (state == S_GPIB_ANSWER || state == S_GPIB_NO_ANSWER) {
    26c6:	8a 81       	ldd	r24, Y+2	; 0x02
    26c8:	85 30       	cpi	r24, 0x05	; 5
    26ca:	19 f0       	breq	.+6      	; 0x26d2 <state_machine+0x15a>
    26cc:	8a 81       	ldd	r24, Y+2	; 0x02
    26ce:	86 30       	cpi	r24, 0x06	; 6
    26d0:	41 f4       	brne	.+16     	; 0x26e2 <state_machine+0x16a>
			gpib_write_epilogue(0);
    26d2:	80 e0       	ldi	r24, 0x00	; 0
    26d4:	0e 94 dc 07 	call	0xfb8	; 0xfb8 <gpib_write_epilogue>
			buf_ptr = 0;
    26d8:	fe 01       	movw	r30, r28
    26da:	e8 5a       	subi	r30, 0xA8	; 168
    26dc:	ff 4f       	sbci	r31, 0xFF	; 255
    26de:	11 82       	std	Z+1, r1	; 0x01
    26e0:	10 82       	st	Z, r1
		}

		// if we sent a query, read the answer
		if (state == S_GPIB_ANSWER) {
    26e2:	8a 81       	ldd	r24, Y+2	; 0x02
    26e4:	85 30       	cpi	r24, 0x05	; 5
    26e6:	21 f4       	brne	.+8      	; 0x26f0 <state_machine+0x178>
			receiveAnswer();
    26e8:	0e 94 8e 11 	call	0x231c	; 0x231c <receiveAnswer>
			state = S_FINAL;
    26ec:	87 e0       	ldi	r24, 0x07	; 7
    26ee:	8a 83       	std	Y+2, r24	; 0x02
		}

		// finalize state machine
		if (state == S_GPIB_NO_ANSWER || state == S_FINAL) {
    26f0:	8a 81       	ldd	r24, Y+2	; 0x02
    26f2:	86 30       	cpi	r24, 0x06	; 6
    26f4:	19 f0       	breq	.+6      	; 0x26fc <state_machine+0x184>
    26f6:	8a 81       	ldd	r24, Y+2	; 0x02
    26f8:	87 30       	cpi	r24, 0x07	; 7
    26fa:	51 f4       	brne	.+20     	; 0x2710 <state_machine+0x198>
			// untalk/unlisten all partners
			gpib_untalkUnlisten();
    26fc:	0e 94 8d 05 	call	0xb1a	; 0xb1a <gpib_untalkUnlisten>
			// some devices do not send cr,lf at command end, so create it always itself
			uart_puts_P("\n\r");
    2700:	89 e9       	ldi	r24, 0x99	; 153
    2702:	92 e0       	ldi	r25, 0x02	; 2
    2704:	0e 94 b1 15 	call	0x2b62	; 0x2b62 <uart_puts_p>
			do_prompt = 1;
    2708:	81 e0       	ldi	r24, 0x01	; 1
    270a:	8b 83       	std	Y+3, r24	; 0x03
			state = S_INITIAL;
    270c:	81 e0       	ldi	r24, 0x01	; 1
    270e:	8a 83       	std	Y+2, r24	; 0x02
		}

		// SRQ detection - do this every time when time value s has changed
		// s is incremented every second. So we check once a second.
		if (srq_enabled && srq_occured(&old_time)) {
    2710:	80 91 55 04 	lds	r24, 0x0455
    2714:	88 23       	and	r24, r24
    2716:	09 f4       	brne	.+2      	; 0x271a <state_machine+0x1a2>
    2718:	46 cf       	rjmp	.-372    	; 0x25a6 <state_machine+0x2e>
    271a:	ce 01       	movw	r24, r28
    271c:	05 96       	adiw	r24, 0x05	; 5
    271e:	0e 94 c0 11 	call	0x2380	; 0x2380 <srq_occured>
    2722:	88 23       	and	r24, r24
    2724:	09 f4       	brne	.+2      	; 0x2728 <state_machine+0x1b0>
    2726:	3f cf       	rjmp	.-386    	; 0x25a6 <state_machine+0x2e>
			// TODO: make handle srq work again
			// the returned command_ready was interpreted to read in an answer
			// but this was turned of for new input loop
			// next two lines replace that but must be tested.
			if (handle_srq(buf, &buf_ptr)) {
    2728:	ce 01       	movw	r24, r28
    272a:	08 96       	adiw	r24, 0x08	; 8
    272c:	9e 01       	movw	r18, r28
    272e:	28 5a       	subi	r18, 0xA8	; 168
    2730:	3f 4f       	sbci	r19, 0xFF	; 255
    2732:	b9 01       	movw	r22, r18
    2734:	0e 94 fd 11 	call	0x23fa	; 0x23fa <handle_srq>
    2738:	88 23       	and	r24, r24
    273a:	09 f4       	brne	.+2      	; 0x273e <state_machine+0x1c6>
    273c:	34 cf       	rjmp	.-408    	; 0x25a6 <state_machine+0x2e>
				state = S_GPIB_ANSWER;
    273e:	85 e0       	ldi	r24, 0x05	; 5
    2740:	8a 83       	std	Y+2, r24	; 0x02
    2742:	31 cf       	rjmp	.-414    	; 0x25a6 <state_machine+0x2e>

00002744 <main>:
 * \brief Implementation of GPIB controller. Reads a command from RS232, sends it via bus.
 * If The command contains a '?', an answer from the device is expected and read in. The
 * answer then is printed out. If an SRQ occured, a serial poll is initiated.
 * 
 */
int main(void) {
    2744:	df 93       	push	r29
    2746:	cf 93       	push	r28
    2748:	cd b7       	in	r28, 0x3d	; 61
    274a:	de b7       	in	r29, 0x3e	; 62
	/*
	 *  Initialize UART library, pass baudrate and avr cpu clock 
	 *  with the macro UART_BAUD_SELECT()
	 */DI();
    274c:	8c e0       	ldi	r24, 0x0C	; 12
    274e:	90 e0       	ldi	r25, 0x00	; 0
    2750:	0e 94 e3 14 	call	0x29c6	; 0x29c6 <uart_init>

	/*
	 * now enable interrupt, since UART and TIMER library is interrupt controlled
	 */sei();
    2754:	78 94       	sei

	/** print some usage infos */
	printHelp();
    2756:	0e 94 67 12 	call	0x24ce	; 0x24ce <printHelp>

	// init timer for timeout detection
	timer16_init();
    275a:	0e 94 e4 13 	call	0x27c8	; 0x27c8 <timer16_init>

	// init gpib lines
	gpib_init();
    275e:	0e 94 c8 04 	call	0x990	; 0x990 <gpib_init>
	// init controller part - assign bus 
	gpib_controller_assign(0x00);
    2762:	80 e0       	ldi	r24, 0x00	; 0
    2764:	0e 94 97 06 	call	0xd2e	; 0xd2e <gpib_controller_assign>

	if (xonXoffMode) {
    2768:	80 91 54 04 	lds	r24, 0x0454
    276c:	88 23       	and	r24, r24
    276e:	19 f0       	breq	.+6      	; 0x2776 <main+0x32>
		uart_set_flow_control(FLOWCONTROL_XONXOFF);
    2770:	81 e0       	ldi	r24, 0x01	; 1
    2772:	0e 94 04 14 	call	0x2808	; 0x2808 <uart_set_flow_control>
	}

	// state machine loops forever
	state_machine();
    2776:	0e 94 bc 12 	call	0x2578	; 0x2578 <state_machine>
    277a:	80 e0       	ldi	r24, 0x00	; 0
    277c:	90 e0       	ldi	r25, 0x00	; 0
}
    277e:	cf 91       	pop	r28
    2780:	df 91       	pop	r29
    2782:	08 95       	ret

00002784 <__vector_7>:

/**
 * Interrupt Service Routine - do not call directly
 *  This routine is called when the Timer Value TCNT1 reaches the Output Compare Register Value OCR1A
 */ 
ISR(TIMER1_COMPA_vect) {
    2784:	1f 92       	push	r1
    2786:	0f 92       	push	r0
    2788:	0f b6       	in	r0, 0x3f	; 63
    278a:	0f 92       	push	r0
    278c:	11 24       	eor	r1, r1
    278e:	8f 93       	push	r24
    2790:	df 93       	push	r29
    2792:	cf 93       	push	r28
    2794:	cd b7       	in	r28, 0x3d	; 61
    2796:	de b7       	in	r29, 0x3e	; 62
#if XTAL_CPU % DEBOUNCE
	OCR1A = XTAL_CPU / DEBOUNCE - 1;
#endif
	if (--timer==0) {
    2798:	80 91 c6 05 	lds	r24, 0x05C6
    279c:	81 50       	subi	r24, 0x01	; 1
    279e:	80 93 c6 05 	sts	0x05C6, r24
    27a2:	80 91 c6 05 	lds	r24, 0x05C6
    27a6:	88 23       	and	r24, r24
    27a8:	39 f4       	brne	.+14     	; 0x27b8 <__vector_7+0x34>
		timer=(uint8_t) DEBOUNCE;
    27aa:	10 92 c6 05 	sts	0x05C6, r1
		s++;
    27ae:	80 91 c7 05 	lds	r24, 0x05C7
    27b2:	8f 5f       	subi	r24, 0xFF	; 255
    27b4:	80 93 c7 05 	sts	0x05C7, r24
#if XTAL_CPU % DEBOUNCE
		OCR1A = XTAL_CPU / DEBOUNCE + XTAL_CPU % DEBOUNCE - 1;
#endif
	}
}
    27b8:	cf 91       	pop	r28
    27ba:	df 91       	pop	r29
    27bc:	8f 91       	pop	r24
    27be:	0f 90       	pop	r0
    27c0:	0f be       	out	0x3f, r0	; 63
    27c2:	0f 90       	pop	r0
    27c4:	1f 90       	pop	r1
    27c6:	18 95       	reti

000027c8 <timer16_init>:
/**
 * Timer initialisation.
 *  \brief initializes all registers ands sets second value 's' to zero. Timer is immediately
 * started.
 */ 
void timer16_init( void ) {
    27c8:	df 93       	push	r29
    27ca:	cf 93       	push	r28
    27cc:	cd b7       	in	r28, 0x3d	; 61
    27ce:	de b7       	in	r29, 0x3e	; 62

	// OCR1A=XTAL/DEBOUNCE-1 -> Bei Erreichen dieses Wertes (31249) wird die ISR besucht
	// die ISR wird also alle 1/256s aufgerufen. Wenn man dort also bis 256 hochzhlt, ist genau
	// 1 Sekunde um! 256 ist der Wert der Variable timer und wird ber das define DEBOUNCE festgelegt

	TCCR1B = (1<<CS10) ^ (1<<WGM12);	// Prescaler of 1 | CTC mode
    27d0:	ee e4       	ldi	r30, 0x4E	; 78
    27d2:	f0 e0       	ldi	r31, 0x00	; 0
    27d4:	89 e0       	ldi	r24, 0x09	; 9
    27d6:	80 83       	st	Z, r24
	OCR1A  = F_CPU/DEBOUNCE-1;		// Output compare register value 
    27d8:	ea e4       	ldi	r30, 0x4A	; 74
    27da:	f0 e0       	ldi	r31, 0x00	; 0
    27dc:	81 e1       	ldi	r24, 0x11	; 17
    27de:	9a e7       	ldi	r25, 0x7A	; 122
    27e0:	91 83       	std	Z+1, r25	; 0x01
    27e2:	80 83       	st	Z, r24
	TCNT1 = 0; // Start value for timer register
    27e4:	ec e4       	ldi	r30, 0x4C	; 76
    27e6:	f0 e0       	ldi	r31, 0x00	; 0
    27e8:	11 82       	std	Z+1, r1	; 0x01
    27ea:	10 82       	st	Z, r1
	s=0; // Initialize second value (s) to zero
    27ec:	10 92 c7 05 	sts	0x05C7, r1
	timer = (uint8_t)DEBOUNCE; 
    27f0:	10 92 c6 05 	sts	0x05C6, r1
	TIMSK |= (1<<OCIE1A);		// activate timer interrupts which starts timer run
    27f4:	a9 e5       	ldi	r26, 0x59	; 89
    27f6:	b0 e0       	ldi	r27, 0x00	; 0
    27f8:	e9 e5       	ldi	r30, 0x59	; 89
    27fa:	f0 e0       	ldi	r31, 0x00	; 0
    27fc:	80 81       	ld	r24, Z
    27fe:	80 61       	ori	r24, 0x10	; 16
    2800:	8c 93       	st	X, r24
}
    2802:	cf 91       	pop	r28
    2804:	df 91       	pop	r29
    2806:	08 95       	ret

00002808 <uart_set_flow_control>:
/** number of chars in rx buffer */
static volatile unsigned char chars_in_rx_buffer = 0;

void SendOutOfBand(unsigned char c);

void uart_set_flow_control(unsigned char _flowControl) {
    2808:	df 93       	push	r29
    280a:	cf 93       	push	r28
    280c:	0f 92       	push	r0
    280e:	cd b7       	in	r28, 0x3d	; 61
    2810:	de b7       	in	r29, 0x3e	; 62
    2812:	89 83       	std	Y+1, r24	; 0x01
	flowControl = _flowControl;
    2814:	89 81       	ldd	r24, Y+1	; 0x01
    2816:	80 93 69 04 	sts	0x0469, r24
}
    281a:	0f 90       	pop	r0
    281c:	cf 91       	pop	r28
    281e:	df 91       	pop	r29
    2820:	08 95       	ret

00002822 <uart_get_flow_control>:

unsigned char uart_get_flow_control() {
    2822:	df 93       	push	r29
    2824:	cf 93       	push	r28
    2826:	cd b7       	in	r28, 0x3d	; 61
    2828:	de b7       	in	r29, 0x3e	; 62
	return flowControl;
    282a:	80 91 69 04 	lds	r24, 0x0469
}
    282e:	cf 91       	pop	r28
    2830:	df 91       	pop	r29
    2832:	08 95       	ret

00002834 <__vector_13>:
SIGNAL(UART0_RECEIVE_INTERRUPT)
/*************************************************************************
 Function: UART Receive Complete interrupt
 Purpose:  called when the UART has received a character
 **************************************************************************/
{
    2834:	1f 92       	push	r1
    2836:	0f 92       	push	r0
    2838:	0f b6       	in	r0, 0x3f	; 63
    283a:	0f 92       	push	r0
    283c:	11 24       	eor	r1, r1
    283e:	2f 93       	push	r18
    2840:	3f 93       	push	r19
    2842:	4f 93       	push	r20
    2844:	5f 93       	push	r21
    2846:	6f 93       	push	r22
    2848:	7f 93       	push	r23
    284a:	8f 93       	push	r24
    284c:	9f 93       	push	r25
    284e:	af 93       	push	r26
    2850:	bf 93       	push	r27
    2852:	ef 93       	push	r30
    2854:	ff 93       	push	r31
    2856:	df 93       	push	r29
    2858:	cf 93       	push	r28
    285a:	00 d0       	rcall	.+0      	; 0x285c <__vector_13+0x28>
    285c:	00 d0       	rcall	.+0      	; 0x285e <__vector_13+0x2a>
    285e:	cd b7       	in	r28, 0x3d	; 61
    2860:	de b7       	in	r29, 0x3e	; 62
	unsigned char data;
	unsigned char usr;
	unsigned char lastRxError;

	/* read UART status register and UART data register */
	usr = UART0_STATUS;
    2862:	eb e2       	ldi	r30, 0x2B	; 43
    2864:	f0 e0       	ldi	r31, 0x00	; 0
    2866:	80 81       	ld	r24, Z
    2868:	8a 83       	std	Y+2, r24	; 0x02
	data = UART0_DATA;
    286a:	ec e2       	ldi	r30, 0x2C	; 44
    286c:	f0 e0       	ldi	r31, 0x00	; 0
    286e:	80 81       	ld	r24, Z
    2870:	8b 83       	std	Y+3, r24	; 0x03

	/* */
#if defined( AT90_UART )
	lastRxError = (usr & (_BV(FE)|_BV(DOR)) );
#elif defined( ATMEGA_USART )
	lastRxError = (usr & (_BV(FE) | _BV(DOR)));
    2872:	8a 81       	ldd	r24, Y+2	; 0x02
    2874:	88 71       	andi	r24, 0x18	; 24
    2876:	89 83       	std	Y+1, r24	; 0x01
#elif defined ( ATMEGA_UART )
	lastRxError = (usr & (_BV(FE)|_BV(DOR)) );
#endif

	/* calculate buffer index */
	tmphead = (UART_RxHead + 1) & UART_RX_BUFFER_MASK;
    2878:	80 91 0f 05 	lds	r24, 0x050F
    287c:	8f 5f       	subi	r24, 0xFF	; 255
    287e:	8f 77       	andi	r24, 0x7F	; 127
    2880:	8c 83       	std	Y+4, r24	; 0x04

	if (tmphead == UART_RxTail) {
    2882:	90 91 10 05 	lds	r25, 0x0510
    2886:	8c 81       	ldd	r24, Y+4	; 0x04
    2888:	89 17       	cp	r24, r25
    288a:	19 f4       	brne	.+6      	; 0x2892 <__vector_13+0x5e>
		/* error: receive buffer overflow */
		lastRxError = UART_BUFFER_OVERFLOW >> 8;
    288c:	82 e0       	ldi	r24, 0x02	; 2
    288e:	89 83       	std	Y+1, r24	; 0x01
    2890:	10 c0       	rjmp	.+32     	; 0x28b2 <__vector_13+0x7e>
	} else {
		/* store new index */
		UART_RxHead = tmphead;
    2892:	8c 81       	ldd	r24, Y+4	; 0x04
    2894:	80 93 0f 05 	sts	0x050F, r24
		/* store received data in buffer */
		UART_RxBuf[tmphead] = data;
    2898:	8c 81       	ldd	r24, Y+4	; 0x04
    289a:	88 2f       	mov	r24, r24
    289c:	90 e0       	ldi	r25, 0x00	; 0
    289e:	fc 01       	movw	r30, r24
    28a0:	e3 57       	subi	r30, 0x73	; 115
    28a2:	fb 4f       	sbci	r31, 0xFB	; 251
    28a4:	8b 81       	ldd	r24, Y+3	; 0x03
    28a6:	80 83       	st	Z, r24
		chars_in_rx_buffer++;
    28a8:	80 91 6c 04 	lds	r24, 0x046C
    28ac:	8f 5f       	subi	r24, 0xFF	; 255
    28ae:	80 93 6c 04 	sts	0x046C, r24
	}

	if (flowControl == FLOWCONTROL_XONXOFF
    28b2:	80 91 69 04 	lds	r24, 0x0469
    28b6:	81 30       	cpi	r24, 0x01	; 1
    28b8:	99 f4       	brne	.+38     	; 0x28e0 <__vector_13+0xac>
    28ba:	80 91 6c 04 	lds	r24, 0x046C
    28be:	81 36       	cpi	r24, 0x61	; 97
    28c0:	78 f0       	brcs	.+30     	; 0x28e0 <__vector_13+0xac>
			&& chars_in_rx_buffer > UART_RX_BUFFER_MAX_MARK) {
		/* immediately send XOFF */
		oob_event = 1;
    28c2:	81 e0       	ldi	r24, 0x01	; 1
    28c4:	80 93 6a 04 	sts	0x046A, r24
		if (!after_xoff_sent) {
    28c8:	80 91 6b 04 	lds	r24, 0x046B
    28cc:	88 23       	and	r24, r24
    28ce:	31 f4       	brne	.+12     	; 0x28dc <__vector_13+0xa8>
			SendOutOfBand(XOFF);
    28d0:	83 e1       	ldi	r24, 0x13	; 19
    28d2:	0e 94 8a 14 	call	0x2914	; 0x2914 <SendOutOfBand>
			after_xoff_sent = 1;
    28d6:	81 e0       	ldi	r24, 0x01	; 1
    28d8:	80 93 6b 04 	sts	0x046B, r24
		}
		oob_event = 0;
    28dc:	10 92 6a 04 	sts	0x046A, r1
	}

	UART_LastRxError = lastRxError;
    28e0:	89 81       	ldd	r24, Y+1	; 0x01
    28e2:	80 93 11 05 	sts	0x0511, r24
}
    28e6:	0f 90       	pop	r0
    28e8:	0f 90       	pop	r0
    28ea:	0f 90       	pop	r0
    28ec:	0f 90       	pop	r0
    28ee:	cf 91       	pop	r28
    28f0:	df 91       	pop	r29
    28f2:	ff 91       	pop	r31
    28f4:	ef 91       	pop	r30
    28f6:	bf 91       	pop	r27
    28f8:	af 91       	pop	r26
    28fa:	9f 91       	pop	r25
    28fc:	8f 91       	pop	r24
    28fe:	7f 91       	pop	r23
    2900:	6f 91       	pop	r22
    2902:	5f 91       	pop	r21
    2904:	4f 91       	pop	r20
    2906:	3f 91       	pop	r19
    2908:	2f 91       	pop	r18
    290a:	0f 90       	pop	r0
    290c:	0f be       	out	0x3f, r0	; 63
    290e:	0f 90       	pop	r0
    2910:	1f 90       	pop	r1
    2912:	18 95       	reti

00002914 <SendOutOfBand>:

void SendOutOfBand(unsigned char c) {
    2914:	df 93       	push	r29
    2916:	cf 93       	push	r28
    2918:	0f 92       	push	r0
    291a:	cd b7       	in	r28, 0x3d	; 61
    291c:	de b7       	in	r29, 0x3e	; 62
    291e:	89 83       	std	Y+1, r24	; 0x01
	while (!(UCSRA & (1 << UDRE)))
    2920:	eb e2       	ldi	r30, 0x2B	; 43
    2922:	f0 e0       	ldi	r31, 0x00	; 0
    2924:	80 81       	ld	r24, Z
    2926:	88 2f       	mov	r24, r24
    2928:	90 e0       	ldi	r25, 0x00	; 0
    292a:	80 72       	andi	r24, 0x20	; 32
    292c:	90 70       	andi	r25, 0x00	; 0
    292e:	00 97       	sbiw	r24, 0x00	; 0
    2930:	b9 f3       	breq	.-18     	; 0x2920 <SendOutOfBand+0xc>
		;
	UDR = c;
    2932:	ec e2       	ldi	r30, 0x2C	; 44
    2934:	f0 e0       	ldi	r31, 0x00	; 0
    2936:	89 81       	ldd	r24, Y+1	; 0x01
    2938:	80 83       	st	Z, r24
}
    293a:	0f 90       	pop	r0
    293c:	cf 91       	pop	r28
    293e:	df 91       	pop	r29
    2940:	08 95       	ret

00002942 <__vector_14>:
SIGNAL(UART0_TRANSMIT_INTERRUPT)
/*************************************************************************
 Function: UART Data Register Empty interrupt
 Purpose:  called when the UART is ready to transmit the next byte
 **************************************************************************/
{
    2942:	1f 92       	push	r1
    2944:	0f 92       	push	r0
    2946:	0f b6       	in	r0, 0x3f	; 63
    2948:	0f 92       	push	r0
    294a:	11 24       	eor	r1, r1
    294c:	8f 93       	push	r24
    294e:	9f 93       	push	r25
    2950:	af 93       	push	r26
    2952:	bf 93       	push	r27
    2954:	ef 93       	push	r30
    2956:	ff 93       	push	r31
    2958:	df 93       	push	r29
    295a:	cf 93       	push	r28
    295c:	0f 92       	push	r0
    295e:	cd b7       	in	r28, 0x3d	; 61
    2960:	de b7       	in	r29, 0x3e	; 62
	unsigned char tmptail;

	if (oob_event) {
    2962:	80 91 6a 04 	lds	r24, 0x046A
    2966:	88 23       	and	r24, r24
    2968:	01 f5       	brne	.+64     	; 0x29aa <__vector_14+0x68>
		/* suppress transmitting during oob handling */
		return;
	}
	if (UART_TxHead != UART_TxTail) {
    296a:	90 91 0d 05 	lds	r25, 0x050D
    296e:	80 91 0e 05 	lds	r24, 0x050E
    2972:	98 17       	cp	r25, r24
    2974:	99 f0       	breq	.+38     	; 0x299c <__vector_14+0x5a>
		/* calculate and store new buffer index */
		tmptail = (UART_TxTail + 1) & UART_TX_BUFFER_MASK;
    2976:	80 91 0e 05 	lds	r24, 0x050E
    297a:	8f 5f       	subi	r24, 0xFF	; 255
    297c:	8f 71       	andi	r24, 0x1F	; 31
    297e:	89 83       	std	Y+1, r24	; 0x01
		UART_TxTail = tmptail;
    2980:	89 81       	ldd	r24, Y+1	; 0x01
    2982:	80 93 0e 05 	sts	0x050E, r24
		/* get one byte from buffer and write it to UART */
		UART0_DATA = UART_TxBuf[tmptail]; /* start transmission */
    2986:	ac e2       	ldi	r26, 0x2C	; 44
    2988:	b0 e0       	ldi	r27, 0x00	; 0
    298a:	89 81       	ldd	r24, Y+1	; 0x01
    298c:	88 2f       	mov	r24, r24
    298e:	90 e0       	ldi	r25, 0x00	; 0
    2990:	fc 01       	movw	r30, r24
    2992:	e3 59       	subi	r30, 0x93	; 147
    2994:	fb 4f       	sbci	r31, 0xFB	; 251
    2996:	80 81       	ld	r24, Z
    2998:	8c 93       	st	X, r24
    299a:	07 c0       	rjmp	.+14     	; 0x29aa <__vector_14+0x68>
	} else {
		/* tx buffer empty, disable UDRE interrupt */
		UART0_CONTROL &= ~_BV(UART0_UDRIE);
    299c:	aa e2       	ldi	r26, 0x2A	; 42
    299e:	b0 e0       	ldi	r27, 0x00	; 0
    29a0:	ea e2       	ldi	r30, 0x2A	; 42
    29a2:	f0 e0       	ldi	r31, 0x00	; 0
    29a4:	80 81       	ld	r24, Z
    29a6:	8f 7d       	andi	r24, 0xDF	; 223
    29a8:	8c 93       	st	X, r24
	}
}
    29aa:	0f 90       	pop	r0
    29ac:	cf 91       	pop	r28
    29ae:	df 91       	pop	r29
    29b0:	ff 91       	pop	r31
    29b2:	ef 91       	pop	r30
    29b4:	bf 91       	pop	r27
    29b6:	af 91       	pop	r26
    29b8:	9f 91       	pop	r25
    29ba:	8f 91       	pop	r24
    29bc:	0f 90       	pop	r0
    29be:	0f be       	out	0x3f, r0	; 63
    29c0:	0f 90       	pop	r0
    29c2:	1f 90       	pop	r1
    29c4:	18 95       	reti

000029c6 <uart_init>:
 Function: uart_init()
 Purpose:  initialize UART and set baudrate
 Input:    baudrate using macro UART_BAUD_SELECT()
 Returns:  none
 **************************************************************************/
void uart_init(unsigned int baudrate) {
    29c6:	df 93       	push	r29
    29c8:	cf 93       	push	r28
    29ca:	00 d0       	rcall	.+0      	; 0x29cc <uart_init+0x6>
    29cc:	cd b7       	in	r28, 0x3d	; 61
    29ce:	de b7       	in	r29, 0x3e	; 62
    29d0:	9a 83       	std	Y+2, r25	; 0x02
    29d2:	89 83       	std	Y+1, r24	; 0x01
	UART_TxHead = 0;
    29d4:	10 92 0d 05 	sts	0x050D, r1
	UART_TxTail = 0;
    29d8:	10 92 0e 05 	sts	0x050E, r1
	UART_RxHead = 0;
    29dc:	10 92 0f 05 	sts	0x050F, r1
	UART_RxTail = 0;
    29e0:	10 92 10 05 	sts	0x0510, r1
	/* enable UART receiver and transmmitter and receive complete interrupt */
	UART0_CONTROL = _BV(RXCIE)|_BV(RXEN)|_BV(TXEN);

#elif defined (ATMEGA_USART)
	/* Set baud rate */
	if (baudrate & 0x8000) {
    29e4:	89 81       	ldd	r24, Y+1	; 0x01
    29e6:	9a 81       	ldd	r25, Y+2	; 0x02
    29e8:	99 23       	and	r25, r25
    29ea:	4c f4       	brge	.+18     	; 0x29fe <uart_init+0x38>
		UART0_STATUS = (1 << U2X);  //Enable 2x speed
    29ec:	eb e2       	ldi	r30, 0x2B	; 43
    29ee:	f0 e0       	ldi	r31, 0x00	; 0
    29f0:	82 e0       	ldi	r24, 0x02	; 2
    29f2:	80 83       	st	Z, r24
		baudrate &= ~0x8000;
    29f4:	89 81       	ldd	r24, Y+1	; 0x01
    29f6:	9a 81       	ldd	r25, Y+2	; 0x02
    29f8:	9f 77       	andi	r25, 0x7F	; 127
    29fa:	9a 83       	std	Y+2, r25	; 0x02
    29fc:	89 83       	std	Y+1, r24	; 0x01
	}
	UBRRH = (unsigned char) (baudrate >> 8);
    29fe:	e0 e4       	ldi	r30, 0x40	; 64
    2a00:	f0 e0       	ldi	r31, 0x00	; 0
    2a02:	89 81       	ldd	r24, Y+1	; 0x01
    2a04:	9a 81       	ldd	r25, Y+2	; 0x02
    2a06:	89 2f       	mov	r24, r25
    2a08:	99 27       	eor	r25, r25
    2a0a:	80 83       	st	Z, r24
	UBRRL = (unsigned char) baudrate;
    2a0c:	e9 e2       	ldi	r30, 0x29	; 41
    2a0e:	f0 e0       	ldi	r31, 0x00	; 0
    2a10:	89 81       	ldd	r24, Y+1	; 0x01
    2a12:	80 83       	st	Z, r24

	/* Enable USART receiver and transmitter and receive complete interrupt */
	UART0_CONTROL = _BV(RXCIE) | (1 << RXEN) | (1 << TXEN);
    2a14:	ea e2       	ldi	r30, 0x2A	; 42
    2a16:	f0 e0       	ldi	r31, 0x00	; 0
    2a18:	88 e9       	ldi	r24, 0x98	; 152
    2a1a:	80 83       	st	Z, r24

	/* Set frame format: asynchronous, 8data, no parity, 1stop bit */
#ifdef URSEL
	UCSRC = (1 << URSEL) | (3 << UCSZ0);
    2a1c:	e0 e4       	ldi	r30, 0x40	; 64
    2a1e:	f0 e0       	ldi	r31, 0x00	; 0
    2a20:	86 e8       	ldi	r24, 0x86	; 134
    2a22:	80 83       	st	Z, r24
	/* Enable UART receiver and transmitter and receive complete interrupt */
	UART0_CONTROL = _BV(RXCIE)|(1<<RXEN)|(1<<TXEN);

#endif

}/* uart_init */
    2a24:	0f 90       	pop	r0
    2a26:	0f 90       	pop	r0
    2a28:	cf 91       	pop	r28
    2a2a:	df 91       	pop	r29
    2a2c:	08 95       	ret

00002a2e <uart_getc>:
 Function: uart_getc()
 Purpose:  return byte from ringbuffer
 Returns:  lower byte:  received byte from ringbuffer
 higher byte: last receive error
 **************************************************************************/
unsigned int uart_getc(void) {
    2a2e:	df 93       	push	r29
    2a30:	cf 93       	push	r28
    2a32:	00 d0       	rcall	.+0      	; 0x2a34 <uart_getc+0x6>
    2a34:	00 d0       	rcall	.+0      	; 0x2a36 <uart_getc+0x8>
    2a36:	cd b7       	in	r28, 0x3d	; 61
    2a38:	de b7       	in	r29, 0x3e	; 62
	unsigned char tmptail;
	unsigned char data;

	if (UART_RxHead == UART_RxTail) {
    2a3a:	90 91 0f 05 	lds	r25, 0x050F
    2a3e:	80 91 10 05 	lds	r24, 0x0510
    2a42:	98 17       	cp	r25, r24
    2a44:	29 f4       	brne	.+10     	; 0x2a50 <uart_getc+0x22>
		return UART_NO_DATA; /* no data available */
    2a46:	80 e0       	ldi	r24, 0x00	; 0
    2a48:	91 e0       	ldi	r25, 0x01	; 1
    2a4a:	9c 83       	std	Y+4, r25	; 0x04
    2a4c:	8b 83       	std	Y+3, r24	; 0x03
    2a4e:	3c c0       	rjmp	.+120    	; 0x2ac8 <uart_getc+0x9a>
	}

	/* calculate /store buffer index */
	tmptail = (UART_RxTail + 1) & UART_RX_BUFFER_MASK;
    2a50:	80 91 10 05 	lds	r24, 0x0510
    2a54:	8f 5f       	subi	r24, 0xFF	; 255
    2a56:	8f 77       	andi	r24, 0x7F	; 127
    2a58:	8a 83       	std	Y+2, r24	; 0x02
	UART_RxTail = tmptail;
    2a5a:	8a 81       	ldd	r24, Y+2	; 0x02
    2a5c:	80 93 10 05 	sts	0x0510, r24

	/* get data from receive buffer */
	data = UART_RxBuf[tmptail];
    2a60:	8a 81       	ldd	r24, Y+2	; 0x02
    2a62:	88 2f       	mov	r24, r24
    2a64:	90 e0       	ldi	r25, 0x00	; 0
    2a66:	fc 01       	movw	r30, r24
    2a68:	e3 57       	subi	r30, 0x73	; 115
    2a6a:	fb 4f       	sbci	r31, 0xFB	; 251
    2a6c:	80 81       	ld	r24, Z
    2a6e:	89 83       	std	Y+1, r24	; 0x01
	if (chars_in_rx_buffer > 0) {
    2a70:	80 91 6c 04 	lds	r24, 0x046C
    2a74:	88 23       	and	r24, r24
    2a76:	29 f0       	breq	.+10     	; 0x2a82 <uart_getc+0x54>
		chars_in_rx_buffer--;
    2a78:	80 91 6c 04 	lds	r24, 0x046C
    2a7c:	81 50       	subi	r24, 0x01	; 1
    2a7e:	80 93 6c 04 	sts	0x046C, r24
	}
	if ((flowControl == FLOWCONTROL_XONXOFF) && after_xoff_sent) {
    2a82:	80 91 69 04 	lds	r24, 0x0469
    2a86:	81 30       	cpi	r24, 0x01	; 1
    2a88:	91 f4       	brne	.+36     	; 0x2aae <uart_getc+0x80>
    2a8a:	80 91 6b 04 	lds	r24, 0x046B
    2a8e:	88 23       	and	r24, r24
    2a90:	71 f0       	breq	.+28     	; 0x2aae <uart_getc+0x80>
		if (chars_in_rx_buffer <= UART_RX_BUFFER_MIN_MARK) {
    2a92:	80 91 6c 04 	lds	r24, 0x046C
    2a96:	81 31       	cpi	r24, 0x11	; 17
    2a98:	50 f4       	brcc	.+20     	; 0x2aae <uart_getc+0x80>
			/* immediately send XON */
			oob_event = 1;
    2a9a:	81 e0       	ldi	r24, 0x01	; 1
    2a9c:	80 93 6a 04 	sts	0x046A, r24
			SendOutOfBand(XON);
    2aa0:	81 e1       	ldi	r24, 0x11	; 17
    2aa2:	0e 94 8a 14 	call	0x2914	; 0x2914 <SendOutOfBand>
			after_xoff_sent = 0;
    2aa6:	10 92 6b 04 	sts	0x046B, r1
			oob_event = 0;
    2aaa:	10 92 6a 04 	sts	0x046A, r1
		}
	}

	return (UART_LastRxError << 8) + data;
    2aae:	80 91 11 05 	lds	r24, 0x0511
    2ab2:	88 2f       	mov	r24, r24
    2ab4:	90 e0       	ldi	r25, 0x00	; 0
    2ab6:	38 2f       	mov	r19, r24
    2ab8:	22 27       	eor	r18, r18
    2aba:	89 81       	ldd	r24, Y+1	; 0x01
    2abc:	88 2f       	mov	r24, r24
    2abe:	90 e0       	ldi	r25, 0x00	; 0
    2ac0:	82 0f       	add	r24, r18
    2ac2:	93 1f       	adc	r25, r19
    2ac4:	9c 83       	std	Y+4, r25	; 0x04
    2ac6:	8b 83       	std	Y+3, r24	; 0x03
    2ac8:	8b 81       	ldd	r24, Y+3	; 0x03
    2aca:	9c 81       	ldd	r25, Y+4	; 0x04

}/* uart_getc */
    2acc:	0f 90       	pop	r0
    2ace:	0f 90       	pop	r0
    2ad0:	0f 90       	pop	r0
    2ad2:	0f 90       	pop	r0
    2ad4:	cf 91       	pop	r28
    2ad6:	df 91       	pop	r29
    2ad8:	08 95       	ret

00002ada <uart_putc>:
 Function: uart_putc()
 Purpose:  write byte to ringbuffer for transmitting via UART
 Input:    byte to be transmitted
 Returns:  none
 **************************************************************************/
void uart_putc(unsigned char data) {
    2ada:	df 93       	push	r29
    2adc:	cf 93       	push	r28
    2ade:	00 d0       	rcall	.+0      	; 0x2ae0 <uart_putc+0x6>
    2ae0:	cd b7       	in	r28, 0x3d	; 61
    2ae2:	de b7       	in	r29, 0x3e	; 62
    2ae4:	8a 83       	std	Y+2, r24	; 0x02
	unsigned char tmphead;

	tmphead = (UART_TxHead + 1) & UART_TX_BUFFER_MASK;
    2ae6:	80 91 0d 05 	lds	r24, 0x050D
    2aea:	8f 5f       	subi	r24, 0xFF	; 255
    2aec:	8f 71       	andi	r24, 0x1F	; 31
    2aee:	89 83       	std	Y+1, r24	; 0x01

	while (tmphead == UART_TxTail) {
    2af0:	90 91 0e 05 	lds	r25, 0x050E
    2af4:	89 81       	ldd	r24, Y+1	; 0x01
    2af6:	89 17       	cp	r24, r25
    2af8:	d9 f3       	breq	.-10     	; 0x2af0 <uart_putc+0x16>
		;/* wait for free space in buffer */
	}

	UART_TxBuf[tmphead] = data;
    2afa:	89 81       	ldd	r24, Y+1	; 0x01
    2afc:	88 2f       	mov	r24, r24
    2afe:	90 e0       	ldi	r25, 0x00	; 0
    2b00:	fc 01       	movw	r30, r24
    2b02:	e3 59       	subi	r30, 0x93	; 147
    2b04:	fb 4f       	sbci	r31, 0xFB	; 251
    2b06:	8a 81       	ldd	r24, Y+2	; 0x02
    2b08:	80 83       	st	Z, r24
	UART_TxHead = tmphead;
    2b0a:	89 81       	ldd	r24, Y+1	; 0x01
    2b0c:	80 93 0d 05 	sts	0x050D, r24

	/* enable UDRE interrupt */
	UART0_CONTROL |= _BV(UART0_UDRIE);
    2b10:	aa e2       	ldi	r26, 0x2A	; 42
    2b12:	b0 e0       	ldi	r27, 0x00	; 0
    2b14:	ea e2       	ldi	r30, 0x2A	; 42
    2b16:	f0 e0       	ldi	r31, 0x00	; 0
    2b18:	80 81       	ld	r24, Z
    2b1a:	80 62       	ori	r24, 0x20	; 32
    2b1c:	8c 93       	st	X, r24

}/* uart_putc */
    2b1e:	0f 90       	pop	r0
    2b20:	0f 90       	pop	r0
    2b22:	cf 91       	pop	r28
    2b24:	df 91       	pop	r29
    2b26:	08 95       	ret

00002b28 <uart_puts>:
 Function: uart_puts()
 Purpose:  transmit string to UART
 Input:    string to be transmitted
 Returns:  none
 **************************************************************************/
void uart_puts(const char *s) {
    2b28:	df 93       	push	r29
    2b2a:	cf 93       	push	r28
    2b2c:	00 d0       	rcall	.+0      	; 0x2b2e <uart_puts+0x6>
    2b2e:	cd b7       	in	r28, 0x3d	; 61
    2b30:	de b7       	in	r29, 0x3e	; 62
    2b32:	9a 83       	std	Y+2, r25	; 0x02
    2b34:	89 83       	std	Y+1, r24	; 0x01
    2b36:	0b c0       	rjmp	.+22     	; 0x2b4e <uart_puts+0x26>
	while (*s)
		uart_putc(*s++);
    2b38:	e9 81       	ldd	r30, Y+1	; 0x01
    2b3a:	fa 81       	ldd	r31, Y+2	; 0x02
    2b3c:	20 81       	ld	r18, Z
    2b3e:	89 81       	ldd	r24, Y+1	; 0x01
    2b40:	9a 81       	ldd	r25, Y+2	; 0x02
    2b42:	01 96       	adiw	r24, 0x01	; 1
    2b44:	9a 83       	std	Y+2, r25	; 0x02
    2b46:	89 83       	std	Y+1, r24	; 0x01
    2b48:	82 2f       	mov	r24, r18
    2b4a:	0e 94 6d 15 	call	0x2ada	; 0x2ada <uart_putc>
 Purpose:  transmit string to UART
 Input:    string to be transmitted
 Returns:  none
 **************************************************************************/
void uart_puts(const char *s) {
	while (*s)
    2b4e:	e9 81       	ldd	r30, Y+1	; 0x01
    2b50:	fa 81       	ldd	r31, Y+2	; 0x02
    2b52:	80 81       	ld	r24, Z
    2b54:	88 23       	and	r24, r24
    2b56:	81 f7       	brne	.-32     	; 0x2b38 <uart_puts+0x10>
		uart_putc(*s++);

}/* uart_puts */
    2b58:	0f 90       	pop	r0
    2b5a:	0f 90       	pop	r0
    2b5c:	cf 91       	pop	r28
    2b5e:	df 91       	pop	r29
    2b60:	08 95       	ret

00002b62 <uart_puts_p>:
 Function: uart_puts_p()
 Purpose:  transmit string from program memory to UART
 Input:    program memory string to be transmitted
 Returns:  none
 **************************************************************************/
void uart_puts_p(const char *progmem_s) {
    2b62:	df 93       	push	r29
    2b64:	cf 93       	push	r28
    2b66:	00 d0       	rcall	.+0      	; 0x2b68 <uart_puts_p+0x6>
    2b68:	00 d0       	rcall	.+0      	; 0x2b6a <uart_puts_p+0x8>
    2b6a:	00 d0       	rcall	.+0      	; 0x2b6c <uart_puts_p+0xa>
    2b6c:	cd b7       	in	r28, 0x3d	; 61
    2b6e:	de b7       	in	r29, 0x3e	; 62
    2b70:	9d 83       	std	Y+5, r25	; 0x05
    2b72:	8c 83       	std	Y+4, r24	; 0x04
    2b74:	03 c0       	rjmp	.+6      	; 0x2b7c <uart_puts_p+0x1a>
	register char c;

	while ((c = pgm_read_byte(progmem_s++)))
		uart_putc(c);
    2b76:	8e 81       	ldd	r24, Y+6	; 0x06
    2b78:	0e 94 6d 15 	call	0x2ada	; 0x2ada <uart_putc>
 Returns:  none
 **************************************************************************/
void uart_puts_p(const char *progmem_s) {
	register char c;

	while ((c = pgm_read_byte(progmem_s++)))
    2b7c:	8c 81       	ldd	r24, Y+4	; 0x04
    2b7e:	9d 81       	ldd	r25, Y+5	; 0x05
    2b80:	9b 83       	std	Y+3, r25	; 0x03
    2b82:	8a 83       	std	Y+2, r24	; 0x02
    2b84:	8c 81       	ldd	r24, Y+4	; 0x04
    2b86:	9d 81       	ldd	r25, Y+5	; 0x05
    2b88:	01 96       	adiw	r24, 0x01	; 1
    2b8a:	9d 83       	std	Y+5, r25	; 0x05
    2b8c:	8c 83       	std	Y+4, r24	; 0x04
    2b8e:	ea 81       	ldd	r30, Y+2	; 0x02
    2b90:	fb 81       	ldd	r31, Y+3	; 0x03
    2b92:	84 91       	lpm	r24, Z+
    2b94:	89 83       	std	Y+1, r24	; 0x01
    2b96:	89 81       	ldd	r24, Y+1	; 0x01
    2b98:	8e 83       	std	Y+6, r24	; 0x06
    2b9a:	8e 81       	ldd	r24, Y+6	; 0x06
    2b9c:	88 23       	and	r24, r24
    2b9e:	59 f7       	brne	.-42     	; 0x2b76 <uart_puts_p+0x14>
		uart_putc(c);

}/* uart_puts_p */
    2ba0:	26 96       	adiw	r28, 0x06	; 6
    2ba2:	0f b6       	in	r0, 0x3f	; 63
    2ba4:	f8 94       	cli
    2ba6:	de bf       	out	0x3e, r29	; 62
    2ba8:	0f be       	out	0x3f, r0	; 63
    2baa:	cd bf       	out	0x3d, r28	; 61
    2bac:	cf 91       	pop	r28
    2bae:	df 91       	pop	r29
    2bb0:	08 95       	ret

00002bb2 <__divmodhi4>:
    2bb2:	97 fb       	bst	r25, 7
    2bb4:	09 2e       	mov	r0, r25
    2bb6:	07 26       	eor	r0, r23
    2bb8:	0a d0       	rcall	.+20     	; 0x2bce <__divmodhi4_neg1>
    2bba:	77 fd       	sbrc	r23, 7
    2bbc:	04 d0       	rcall	.+8      	; 0x2bc6 <__divmodhi4_neg2>
    2bbe:	0c d0       	rcall	.+24     	; 0x2bd8 <__udivmodhi4>
    2bc0:	06 d0       	rcall	.+12     	; 0x2bce <__divmodhi4_neg1>
    2bc2:	00 20       	and	r0, r0
    2bc4:	1a f4       	brpl	.+6      	; 0x2bcc <__divmodhi4_exit>

00002bc6 <__divmodhi4_neg2>:
    2bc6:	70 95       	com	r23
    2bc8:	61 95       	neg	r22
    2bca:	7f 4f       	sbci	r23, 0xFF	; 255

00002bcc <__divmodhi4_exit>:
    2bcc:	08 95       	ret

00002bce <__divmodhi4_neg1>:
    2bce:	f6 f7       	brtc	.-4      	; 0x2bcc <__divmodhi4_exit>
    2bd0:	90 95       	com	r25
    2bd2:	81 95       	neg	r24
    2bd4:	9f 4f       	sbci	r25, 0xFF	; 255
    2bd6:	08 95       	ret

00002bd8 <__udivmodhi4>:
    2bd8:	aa 1b       	sub	r26, r26
    2bda:	bb 1b       	sub	r27, r27
    2bdc:	51 e1       	ldi	r21, 0x11	; 17
    2bde:	07 c0       	rjmp	.+14     	; 0x2bee <__udivmodhi4_ep>

00002be0 <__udivmodhi4_loop>:
    2be0:	aa 1f       	adc	r26, r26
    2be2:	bb 1f       	adc	r27, r27
    2be4:	a6 17       	cp	r26, r22
    2be6:	b7 07       	cpc	r27, r23
    2be8:	10 f0       	brcs	.+4      	; 0x2bee <__udivmodhi4_ep>
    2bea:	a6 1b       	sub	r26, r22
    2bec:	b7 0b       	sbc	r27, r23

00002bee <__udivmodhi4_ep>:
    2bee:	88 1f       	adc	r24, r24
    2bf0:	99 1f       	adc	r25, r25
    2bf2:	5a 95       	dec	r21
    2bf4:	a9 f7       	brne	.-22     	; 0x2be0 <__udivmodhi4_loop>
    2bf6:	80 95       	com	r24
    2bf8:	90 95       	com	r25
    2bfa:	bc 01       	movw	r22, r24
    2bfc:	cd 01       	movw	r24, r26
    2bfe:	08 95       	ret

00002c00 <__prologue_saves__>:
    2c00:	2f 92       	push	r2
    2c02:	3f 92       	push	r3
    2c04:	4f 92       	push	r4
    2c06:	5f 92       	push	r5
    2c08:	6f 92       	push	r6
    2c0a:	7f 92       	push	r7
    2c0c:	8f 92       	push	r8
    2c0e:	9f 92       	push	r9
    2c10:	af 92       	push	r10
    2c12:	bf 92       	push	r11
    2c14:	cf 92       	push	r12
    2c16:	df 92       	push	r13
    2c18:	ef 92       	push	r14
    2c1a:	ff 92       	push	r15
    2c1c:	0f 93       	push	r16
    2c1e:	1f 93       	push	r17
    2c20:	cf 93       	push	r28
    2c22:	df 93       	push	r29
    2c24:	cd b7       	in	r28, 0x3d	; 61
    2c26:	de b7       	in	r29, 0x3e	; 62
    2c28:	ca 1b       	sub	r28, r26
    2c2a:	db 0b       	sbc	r29, r27
    2c2c:	0f b6       	in	r0, 0x3f	; 63
    2c2e:	f8 94       	cli
    2c30:	de bf       	out	0x3e, r29	; 62
    2c32:	0f be       	out	0x3f, r0	; 63
    2c34:	cd bf       	out	0x3d, r28	; 61
    2c36:	09 94       	ijmp

00002c38 <__epilogue_restores__>:
    2c38:	2a 88       	ldd	r2, Y+18	; 0x12
    2c3a:	39 88       	ldd	r3, Y+17	; 0x11
    2c3c:	48 88       	ldd	r4, Y+16	; 0x10
    2c3e:	5f 84       	ldd	r5, Y+15	; 0x0f
    2c40:	6e 84       	ldd	r6, Y+14	; 0x0e
    2c42:	7d 84       	ldd	r7, Y+13	; 0x0d
    2c44:	8c 84       	ldd	r8, Y+12	; 0x0c
    2c46:	9b 84       	ldd	r9, Y+11	; 0x0b
    2c48:	aa 84       	ldd	r10, Y+10	; 0x0a
    2c4a:	b9 84       	ldd	r11, Y+9	; 0x09
    2c4c:	c8 84       	ldd	r12, Y+8	; 0x08
    2c4e:	df 80       	ldd	r13, Y+7	; 0x07
    2c50:	ee 80       	ldd	r14, Y+6	; 0x06
    2c52:	fd 80       	ldd	r15, Y+5	; 0x05
    2c54:	0c 81       	ldd	r16, Y+4	; 0x04
    2c56:	1b 81       	ldd	r17, Y+3	; 0x03
    2c58:	aa 81       	ldd	r26, Y+2	; 0x02
    2c5a:	b9 81       	ldd	r27, Y+1	; 0x01
    2c5c:	ce 0f       	add	r28, r30
    2c5e:	d1 1d       	adc	r29, r1
    2c60:	0f b6       	in	r0, 0x3f	; 63
    2c62:	f8 94       	cli
    2c64:	de bf       	out	0x3e, r29	; 62
    2c66:	0f be       	out	0x3f, r0	; 63
    2c68:	cd bf       	out	0x3d, r28	; 61
    2c6a:	ed 01       	movw	r28, r26
    2c6c:	08 95       	ret

00002c6e <_exit>:
    2c6e:	f8 94       	cli

00002c70 <__stop_program>:
    2c70:	ff cf       	rjmp	.-2      	; 0x2c70 <__stop_program>
