
gpib_004.elf:     file format elf32-avr

Sections:
Idx Name          Size      VMA       LMA       File off  Algn
  0 .text         00002372  00000000  00000000  00000074  2**1
                  CONTENTS, ALLOC, LOAD, READONLY, CODE
  1 .data         0000042a  00800060  00002372  000023e6  2**0
                  CONTENTS, ALLOC, LOAD, DATA
  2 .bss          0000010e  0080048a  0000279c  00002810  2**0
                  ALLOC
  3 .stab         00004b54  00000000  00000000  00002810  2**2
                  CONTENTS, READONLY, DEBUGGING
  4 .stabstr      000023be  00000000  00000000  00007364  2**0
                  CONTENTS, READONLY, DEBUGGING
Disassembly of section .text:

00000000 <__vectors>:
       0:	0c 94 4a 00 	jmp	0x94	; 0x94 <__ctors_end>
       4:	0c 94 67 00 	jmp	0xce	; 0xce <__bad_interrupt>
       8:	0c 94 67 00 	jmp	0xce	; 0xce <__bad_interrupt>
       c:	0c 94 67 00 	jmp	0xce	; 0xce <__bad_interrupt>
      10:	0c 94 67 00 	jmp	0xce	; 0xce <__bad_interrupt>
      14:	0c 94 67 00 	jmp	0xce	; 0xce <__bad_interrupt>
      18:	0c 94 67 00 	jmp	0xce	; 0xce <__bad_interrupt>
      1c:	0c 94 e5 0f 	jmp	0x1fca	; 0x1fca <__vector_7>
      20:	0c 94 67 00 	jmp	0xce	; 0xce <__bad_interrupt>
      24:	0c 94 67 00 	jmp	0xce	; 0xce <__bad_interrupt>
      28:	0c 94 67 00 	jmp	0xce	; 0xce <__bad_interrupt>
      2c:	0c 94 67 00 	jmp	0xce	; 0xce <__bad_interrupt>
      30:	0c 94 67 00 	jmp	0xce	; 0xce <__bad_interrupt>
      34:	0c 94 27 10 	jmp	0x204e	; 0x204e <__vector_13>
      38:	0c 94 6b 10 	jmp	0x20d6	; 0x20d6 <__vector_14>
      3c:	0c 94 67 00 	jmp	0xce	; 0xce <__bad_interrupt>
      40:	0c 94 67 00 	jmp	0xce	; 0xce <__bad_interrupt>
      44:	0c 94 67 00 	jmp	0xce	; 0xce <__bad_interrupt>
      48:	0c 94 67 00 	jmp	0xce	; 0xce <__bad_interrupt>
      4c:	0c 94 67 00 	jmp	0xce	; 0xce <__bad_interrupt>
      50:	0c 94 67 00 	jmp	0xce	; 0xce <__bad_interrupt>

00000054 <__c.1991>:
      54:	42 75 66 66 65 72 20 6f 76 65 72 66 6c 6f 77 20     Buffer overflow 
      64:	65 72 72 6f 72 3a 20 00                             error: .

0000006c <__c.1989>:
      6c:	55 41 52 54 20 4f 76 65 72 72 75 6e 20 45 72 72     UART Overrun Err
      7c:	6f 72 3a 20 00                                      or: .

00000081 <__c.1987>:
      81:	55 41 52 54 20 46 72 61 6d 65 20 45 72 72 6f 72     UART Frame Error
      91:	3a 20 00                                            : .

00000094 <__ctors_end>:
      94:	11 24       	eor	r1, r1
      96:	1f be       	out	0x3f, r1	; 63
      98:	cf e5       	ldi	r28, 0x5F	; 95
      9a:	d8 e0       	ldi	r29, 0x08	; 8
      9c:	de bf       	out	0x3e, r29	; 62
      9e:	cd bf       	out	0x3d, r28	; 61

000000a0 <__do_copy_data>:
      a0:	14 e0       	ldi	r17, 0x04	; 4
      a2:	a0 e6       	ldi	r26, 0x60	; 96
      a4:	b0 e0       	ldi	r27, 0x00	; 0
      a6:	e2 e7       	ldi	r30, 0x72	; 114
      a8:	f3 e2       	ldi	r31, 0x23	; 35
      aa:	02 c0       	rjmp	.+4      	; 0xb0 <.do_copy_data_start>

000000ac <.do_copy_data_loop>:
      ac:	05 90       	lpm	r0, Z+
      ae:	0d 92       	st	X+, r0

000000b0 <.do_copy_data_start>:
      b0:	aa 38       	cpi	r26, 0x8A	; 138
      b2:	b1 07       	cpc	r27, r17
      b4:	d9 f7       	brne	.-10     	; 0xac <.do_copy_data_loop>

000000b6 <__do_clear_bss>:
      b6:	15 e0       	ldi	r17, 0x05	; 5
      b8:	aa e8       	ldi	r26, 0x8A	; 138
      ba:	b4 e0       	ldi	r27, 0x04	; 4
      bc:	01 c0       	rjmp	.+2      	; 0xc0 <.do_clear_bss_start>

000000be <.do_clear_bss_loop>:
      be:	1d 92       	st	X+, r1

000000c0 <.do_clear_bss_start>:
      c0:	a8 39       	cpi	r26, 0x98	; 152
      c2:	b1 07       	cpc	r27, r17
      c4:	e1 f7       	brne	.-8      	; 0xbe <.do_clear_bss_loop>
      c6:	0e 94 ad 0e 	call	0x1d5a	; 0x1d5a <main>
      ca:	0c 94 b7 11 	jmp	0x236e	; 0x236e <_exit>

000000ce <__bad_interrupt>:
      ce:	0c 94 00 00 	jmp	0	; 0x0 <__heap_end>

000000d2 <atoi>:
      d2:	fc 01       	movw	r30, r24
      d4:	88 27       	eor	r24, r24
      d6:	99 27       	eor	r25, r25
      d8:	e8 94       	clt
      da:	21 91       	ld	r18, Z+
      dc:	20 32       	cpi	r18, 0x20	; 32
      de:	e9 f3       	breq	.-6      	; 0xda <atoi+0x8>
      e0:	29 30       	cpi	r18, 0x09	; 9
      e2:	10 f0       	brcs	.+4      	; 0xe8 <atoi+0x16>
      e4:	2e 30       	cpi	r18, 0x0E	; 14
      e6:	c8 f3       	brcs	.-14     	; 0xda <atoi+0x8>
      e8:	2b 32       	cpi	r18, 0x2B	; 43
      ea:	41 f0       	breq	.+16     	; 0xfc <atoi+0x2a>
      ec:	2d 32       	cpi	r18, 0x2D	; 45
      ee:	39 f4       	brne	.+14     	; 0xfe <atoi+0x2c>
      f0:	68 94       	set
      f2:	04 c0       	rjmp	.+8      	; 0xfc <atoi+0x2a>
      f4:	0e 94 d2 00 	call	0x1a4	; 0x1a4 <__mulhi_const_10>
      f8:	82 0f       	add	r24, r18
      fa:	91 1d       	adc	r25, r1
      fc:	21 91       	ld	r18, Z+
      fe:	20 53       	subi	r18, 0x30	; 48
     100:	2a 30       	cpi	r18, 0x0A	; 10
     102:	c0 f3       	brcs	.-16     	; 0xf4 <atoi+0x22>
     104:	1e f4       	brtc	.+6      	; 0x10c <atoi+0x3a>
     106:	90 95       	com	r25
     108:	81 95       	neg	r24
     10a:	9f 4f       	sbci	r25, 0xFF	; 255
     10c:	08 95       	ret

0000010e <strtok>:
     10e:	4a e8       	ldi	r20, 0x8A	; 138
     110:	54 e0       	ldi	r21, 0x04	; 4
     112:	0e 94 a0 00 	call	0x140	; 0x140 <strtok_r>
     116:	08 95       	ret

00000118 <strchr>:
     118:	fc 01       	movw	r30, r24
     11a:	81 91       	ld	r24, Z+
     11c:	86 17       	cp	r24, r22
     11e:	21 f0       	breq	.+8      	; 0x128 <strchr+0x10>
     120:	88 23       	and	r24, r24
     122:	d9 f7       	brne	.-10     	; 0x11a <strchr+0x2>
     124:	99 27       	eor	r25, r25
     126:	08 95       	ret
     128:	31 97       	sbiw	r30, 0x01	; 1
     12a:	cf 01       	movw	r24, r30
     12c:	08 95       	ret

0000012e <strlen>:
     12e:	fc 01       	movw	r30, r24
     130:	01 90       	ld	r0, Z+
     132:	00 20       	and	r0, r0
     134:	e9 f7       	brne	.-6      	; 0x130 <strlen+0x2>
     136:	80 95       	com	r24
     138:	90 95       	com	r25
     13a:	8e 0f       	add	r24, r30
     13c:	9f 1f       	adc	r25, r31
     13e:	08 95       	ret

00000140 <strtok_r>:
     140:	00 97       	sbiw	r24, 0x00	; 0
     142:	31 f4       	brne	.+12     	; 0x150 <strtok_r+0x10>
     144:	da 01       	movw	r26, r20
     146:	8d 91       	ld	r24, X+
     148:	9c 91       	ld	r25, X
     14a:	00 97       	sbiw	r24, 0x00	; 0
     14c:	09 f4       	brne	.+2      	; 0x150 <strtok_r+0x10>
     14e:	0e c0       	rjmp	.+28     	; 0x16c <strtok_r+0x2c>
     150:	dc 01       	movw	r26, r24
     152:	fb 01       	movw	r30, r22
     154:	3d 91       	ld	r19, X+
     156:	21 91       	ld	r18, Z+
     158:	22 23       	and	r18, r18
     15a:	19 f0       	breq	.+6      	; 0x162 <strtok_r+0x22>
     15c:	32 17       	cp	r19, r18
     15e:	c9 f3       	breq	.-14     	; 0x152 <strtok_r+0x12>
     160:	fa cf       	rjmp	.-12     	; 0x156 <strtok_r+0x16>
     162:	33 23       	and	r19, r19
     164:	31 f4       	brne	.+12     	; 0x172 <strtok_r+0x32>
     166:	da 01       	movw	r26, r20
     168:	1d 92       	st	X+, r1
     16a:	1c 92       	st	X, r1
     16c:	88 27       	eor	r24, r24
     16e:	99 27       	eor	r25, r25
     170:	08 95       	ret
     172:	11 97       	sbiw	r26, 0x01	; 1
     174:	af 93       	push	r26
     176:	bf 93       	push	r27
     178:	fb 01       	movw	r30, r22
     17a:	3d 91       	ld	r19, X+
     17c:	21 91       	ld	r18, Z+
     17e:	32 17       	cp	r19, r18
     180:	71 f4       	brne	.+28     	; 0x19e <strtok_r+0x5e>
     182:	33 23       	and	r19, r19
     184:	21 f4       	brne	.+8      	; 0x18e <strtok_r+0x4e>
     186:	88 27       	eor	r24, r24
     188:	99 27       	eor	r25, r25
     18a:	11 97       	sbiw	r26, 0x01	; 1
     18c:	02 c0       	rjmp	.+4      	; 0x192 <strtok_r+0x52>
     18e:	1e 92       	st	-X, r1
     190:	11 96       	adiw	r26, 0x01	; 1
     192:	fa 01       	movw	r30, r20
     194:	a1 93       	st	Z+, r26
     196:	b0 83       	st	Z, r27
     198:	9f 91       	pop	r25
     19a:	8f 91       	pop	r24
     19c:	08 95       	ret
     19e:	22 23       	and	r18, r18
     1a0:	69 f7       	brne	.-38     	; 0x17c <strtok_r+0x3c>
     1a2:	ea cf       	rjmp	.-44     	; 0x178 <strtok_r+0x38>

000001a4 <__mulhi_const_10>:
     1a4:	7a e0       	ldi	r23, 0x0A	; 10
     1a6:	97 9f       	mul	r25, r23
     1a8:	90 2d       	mov	r25, r0
     1aa:	87 9f       	mul	r24, r23
     1ac:	80 2d       	mov	r24, r0
     1ae:	91 0d       	add	r25, r1
     1b0:	11 24       	eor	r1, r1
     1b2:	08 95       	ret

000001b4 <sprintf>:
     1b4:	ae e0       	ldi	r26, 0x0E	; 14
     1b6:	b0 e0       	ldi	r27, 0x00	; 0
     1b8:	e0 ee       	ldi	r30, 0xE0	; 224
     1ba:	f0 e0       	ldi	r31, 0x00	; 0
     1bc:	0c 94 8e 11 	jmp	0x231c	; 0x231c <__prologue_saves__+0x1c>
     1c0:	0d 89       	ldd	r16, Y+21	; 0x15
     1c2:	1e 89       	ldd	r17, Y+22	; 0x16
     1c4:	86 e0       	ldi	r24, 0x06	; 6
     1c6:	8c 83       	std	Y+4, r24	; 0x04
     1c8:	1a 83       	std	Y+2, r17	; 0x02
     1ca:	09 83       	std	Y+1, r16	; 0x01
     1cc:	8f ef       	ldi	r24, 0xFF	; 255
     1ce:	9f e7       	ldi	r25, 0x7F	; 127
     1d0:	9e 83       	std	Y+6, r25	; 0x06
     1d2:	8d 83       	std	Y+5, r24	; 0x05
     1d4:	9e 01       	movw	r18, r28
     1d6:	27 5e       	subi	r18, 0xE7	; 231
     1d8:	3f 4f       	sbci	r19, 0xFF	; 255
     1da:	ce 01       	movw	r24, r28
     1dc:	01 96       	adiw	r24, 0x01	; 1
     1de:	6f 89       	ldd	r22, Y+23	; 0x17
     1e0:	78 8d       	ldd	r23, Y+24	; 0x18
     1e2:	a9 01       	movw	r20, r18
     1e4:	0e 94 fe 00 	call	0x1fc	; 0x1fc <vfprintf>
     1e8:	2f 81       	ldd	r18, Y+7	; 0x07
     1ea:	38 85       	ldd	r19, Y+8	; 0x08
     1ec:	02 0f       	add	r16, r18
     1ee:	13 1f       	adc	r17, r19
     1f0:	f8 01       	movw	r30, r16
     1f2:	10 82       	st	Z, r1
     1f4:	2e 96       	adiw	r28, 0x0e	; 14
     1f6:	e4 e0       	ldi	r30, 0x04	; 4
     1f8:	0c 94 aa 11 	jmp	0x2354	; 0x2354 <__epilogue_restores__+0x1c>

000001fc <vfprintf>:
     1fc:	ab e0       	ldi	r26, 0x0B	; 11
     1fe:	b0 e0       	ldi	r27, 0x00	; 0
     200:	e4 e0       	ldi	r30, 0x04	; 4
     202:	f1 e0       	ldi	r31, 0x01	; 1
     204:	0c 94 80 11 	jmp	0x2300	; 0x2300 <__prologue_saves__>
     208:	3c 01       	movw	r6, r24
     20a:	2b 01       	movw	r4, r22
     20c:	5a 01       	movw	r10, r20
     20e:	fc 01       	movw	r30, r24
     210:	17 82       	std	Z+7, r1	; 0x07
     212:	16 82       	std	Z+6, r1	; 0x06
     214:	83 81       	ldd	r24, Z+3	; 0x03
     216:	81 fd       	sbrc	r24, 1
     218:	03 c0       	rjmp	.+6      	; 0x220 <vfprintf+0x24>
     21a:	6f ef       	ldi	r22, 0xFF	; 255
     21c:	7f ef       	ldi	r23, 0xFF	; 255
     21e:	c6 c1       	rjmp	.+908    	; 0x5ac <vfprintf+0x3b0>
     220:	9a e0       	ldi	r25, 0x0A	; 10
     222:	89 2e       	mov	r8, r25
     224:	1e 01       	movw	r2, r28
     226:	08 94       	sec
     228:	21 1c       	adc	r2, r1
     22a:	31 1c       	adc	r3, r1
     22c:	f3 01       	movw	r30, r6
     22e:	23 81       	ldd	r18, Z+3	; 0x03
     230:	f2 01       	movw	r30, r4
     232:	23 fd       	sbrc	r18, 3
     234:	85 91       	lpm	r24, Z+
     236:	23 ff       	sbrs	r18, 3
     238:	81 91       	ld	r24, Z+
     23a:	2f 01       	movw	r4, r30
     23c:	88 23       	and	r24, r24
     23e:	09 f4       	brne	.+2      	; 0x242 <vfprintf+0x46>
     240:	b2 c1       	rjmp	.+868    	; 0x5a6 <vfprintf+0x3aa>
     242:	85 32       	cpi	r24, 0x25	; 37
     244:	39 f4       	brne	.+14     	; 0x254 <vfprintf+0x58>
     246:	23 fd       	sbrc	r18, 3
     248:	85 91       	lpm	r24, Z+
     24a:	23 ff       	sbrs	r18, 3
     24c:	81 91       	ld	r24, Z+
     24e:	2f 01       	movw	r4, r30
     250:	85 32       	cpi	r24, 0x25	; 37
     252:	29 f4       	brne	.+10     	; 0x25e <vfprintf+0x62>
     254:	90 e0       	ldi	r25, 0x00	; 0
     256:	b3 01       	movw	r22, r6
     258:	0e 94 f1 02 	call	0x5e2	; 0x5e2 <fputc>
     25c:	e7 cf       	rjmp	.-50     	; 0x22c <vfprintf+0x30>
     25e:	98 2f       	mov	r25, r24
     260:	ff 24       	eor	r15, r15
     262:	ee 24       	eor	r14, r14
     264:	99 24       	eor	r9, r9
     266:	ff e1       	ldi	r31, 0x1F	; 31
     268:	ff 15       	cp	r31, r15
     26a:	d0 f0       	brcs	.+52     	; 0x2a0 <vfprintf+0xa4>
     26c:	9b 32       	cpi	r25, 0x2B	; 43
     26e:	69 f0       	breq	.+26     	; 0x28a <vfprintf+0x8e>
     270:	9c 32       	cpi	r25, 0x2C	; 44
     272:	28 f4       	brcc	.+10     	; 0x27e <vfprintf+0x82>
     274:	90 32       	cpi	r25, 0x20	; 32
     276:	59 f0       	breq	.+22     	; 0x28e <vfprintf+0x92>
     278:	93 32       	cpi	r25, 0x23	; 35
     27a:	91 f4       	brne	.+36     	; 0x2a0 <vfprintf+0xa4>
     27c:	0e c0       	rjmp	.+28     	; 0x29a <vfprintf+0x9e>
     27e:	9d 32       	cpi	r25, 0x2D	; 45
     280:	49 f0       	breq	.+18     	; 0x294 <vfprintf+0x98>
     282:	90 33       	cpi	r25, 0x30	; 48
     284:	69 f4       	brne	.+26     	; 0x2a0 <vfprintf+0xa4>
     286:	41 e0       	ldi	r20, 0x01	; 1
     288:	24 c0       	rjmp	.+72     	; 0x2d2 <vfprintf+0xd6>
     28a:	52 e0       	ldi	r21, 0x02	; 2
     28c:	f5 2a       	or	r15, r21
     28e:	84 e0       	ldi	r24, 0x04	; 4
     290:	f8 2a       	or	r15, r24
     292:	28 c0       	rjmp	.+80     	; 0x2e4 <vfprintf+0xe8>
     294:	98 e0       	ldi	r25, 0x08	; 8
     296:	f9 2a       	or	r15, r25
     298:	25 c0       	rjmp	.+74     	; 0x2e4 <vfprintf+0xe8>
     29a:	e0 e1       	ldi	r30, 0x10	; 16
     29c:	fe 2a       	or	r15, r30
     29e:	22 c0       	rjmp	.+68     	; 0x2e4 <vfprintf+0xe8>
     2a0:	f7 fc       	sbrc	r15, 7
     2a2:	29 c0       	rjmp	.+82     	; 0x2f6 <vfprintf+0xfa>
     2a4:	89 2f       	mov	r24, r25
     2a6:	80 53       	subi	r24, 0x30	; 48
     2a8:	8a 30       	cpi	r24, 0x0A	; 10
     2aa:	70 f4       	brcc	.+28     	; 0x2c8 <vfprintf+0xcc>
     2ac:	f6 fe       	sbrs	r15, 6
     2ae:	05 c0       	rjmp	.+10     	; 0x2ba <vfprintf+0xbe>
     2b0:	98 9c       	mul	r9, r8
     2b2:	90 2c       	mov	r9, r0
     2b4:	11 24       	eor	r1, r1
     2b6:	98 0e       	add	r9, r24
     2b8:	15 c0       	rjmp	.+42     	; 0x2e4 <vfprintf+0xe8>
     2ba:	e8 9c       	mul	r14, r8
     2bc:	e0 2c       	mov	r14, r0
     2be:	11 24       	eor	r1, r1
     2c0:	e8 0e       	add	r14, r24
     2c2:	f0 e2       	ldi	r31, 0x20	; 32
     2c4:	ff 2a       	or	r15, r31
     2c6:	0e c0       	rjmp	.+28     	; 0x2e4 <vfprintf+0xe8>
     2c8:	9e 32       	cpi	r25, 0x2E	; 46
     2ca:	29 f4       	brne	.+10     	; 0x2d6 <vfprintf+0xda>
     2cc:	f6 fc       	sbrc	r15, 6
     2ce:	6b c1       	rjmp	.+726    	; 0x5a6 <vfprintf+0x3aa>
     2d0:	40 e4       	ldi	r20, 0x40	; 64
     2d2:	f4 2a       	or	r15, r20
     2d4:	07 c0       	rjmp	.+14     	; 0x2e4 <vfprintf+0xe8>
     2d6:	9c 36       	cpi	r25, 0x6C	; 108
     2d8:	19 f4       	brne	.+6      	; 0x2e0 <vfprintf+0xe4>
     2da:	50 e8       	ldi	r21, 0x80	; 128
     2dc:	f5 2a       	or	r15, r21
     2de:	02 c0       	rjmp	.+4      	; 0x2e4 <vfprintf+0xe8>
     2e0:	98 36       	cpi	r25, 0x68	; 104
     2e2:	49 f4       	brne	.+18     	; 0x2f6 <vfprintf+0xfa>
     2e4:	f2 01       	movw	r30, r4
     2e6:	23 fd       	sbrc	r18, 3
     2e8:	95 91       	lpm	r25, Z+
     2ea:	23 ff       	sbrs	r18, 3
     2ec:	91 91       	ld	r25, Z+
     2ee:	2f 01       	movw	r4, r30
     2f0:	99 23       	and	r25, r25
     2f2:	09 f0       	breq	.+2      	; 0x2f6 <vfprintf+0xfa>
     2f4:	b8 cf       	rjmp	.-144    	; 0x266 <vfprintf+0x6a>
     2f6:	89 2f       	mov	r24, r25
     2f8:	85 54       	subi	r24, 0x45	; 69
     2fa:	83 30       	cpi	r24, 0x03	; 3
     2fc:	18 f0       	brcs	.+6      	; 0x304 <vfprintf+0x108>
     2fe:	80 52       	subi	r24, 0x20	; 32
     300:	83 30       	cpi	r24, 0x03	; 3
     302:	38 f4       	brcc	.+14     	; 0x312 <vfprintf+0x116>
     304:	44 e0       	ldi	r20, 0x04	; 4
     306:	50 e0       	ldi	r21, 0x00	; 0
     308:	a4 0e       	add	r10, r20
     30a:	b5 1e       	adc	r11, r21
     30c:	5f e3       	ldi	r21, 0x3F	; 63
     30e:	59 83       	std	Y+1, r21	; 0x01
     310:	0f c0       	rjmp	.+30     	; 0x330 <vfprintf+0x134>
     312:	93 36       	cpi	r25, 0x63	; 99
     314:	31 f0       	breq	.+12     	; 0x322 <vfprintf+0x126>
     316:	93 37       	cpi	r25, 0x73	; 115
     318:	79 f0       	breq	.+30     	; 0x338 <vfprintf+0x13c>
     31a:	93 35       	cpi	r25, 0x53	; 83
     31c:	09 f0       	breq	.+2      	; 0x320 <vfprintf+0x124>
     31e:	56 c0       	rjmp	.+172    	; 0x3cc <vfprintf+0x1d0>
     320:	20 c0       	rjmp	.+64     	; 0x362 <vfprintf+0x166>
     322:	f5 01       	movw	r30, r10
     324:	80 81       	ld	r24, Z
     326:	89 83       	std	Y+1, r24	; 0x01
     328:	42 e0       	ldi	r20, 0x02	; 2
     32a:	50 e0       	ldi	r21, 0x00	; 0
     32c:	a4 0e       	add	r10, r20
     32e:	b5 1e       	adc	r11, r21
     330:	61 01       	movw	r12, r2
     332:	01 e0       	ldi	r16, 0x01	; 1
     334:	10 e0       	ldi	r17, 0x00	; 0
     336:	12 c0       	rjmp	.+36     	; 0x35c <vfprintf+0x160>
     338:	f5 01       	movw	r30, r10
     33a:	c0 80       	ld	r12, Z
     33c:	d1 80       	ldd	r13, Z+1	; 0x01
     33e:	f6 fc       	sbrc	r15, 6
     340:	03 c0       	rjmp	.+6      	; 0x348 <vfprintf+0x14c>
     342:	6f ef       	ldi	r22, 0xFF	; 255
     344:	7f ef       	ldi	r23, 0xFF	; 255
     346:	02 c0       	rjmp	.+4      	; 0x34c <vfprintf+0x150>
     348:	69 2d       	mov	r22, r9
     34a:	70 e0       	ldi	r23, 0x00	; 0
     34c:	42 e0       	ldi	r20, 0x02	; 2
     34e:	50 e0       	ldi	r21, 0x00	; 0
     350:	a4 0e       	add	r10, r20
     352:	b5 1e       	adc	r11, r21
     354:	c6 01       	movw	r24, r12
     356:	0e 94 e6 02 	call	0x5cc	; 0x5cc <strnlen>
     35a:	8c 01       	movw	r16, r24
     35c:	5f e7       	ldi	r21, 0x7F	; 127
     35e:	f5 22       	and	r15, r21
     360:	14 c0       	rjmp	.+40     	; 0x38a <vfprintf+0x18e>
     362:	f5 01       	movw	r30, r10
     364:	c0 80       	ld	r12, Z
     366:	d1 80       	ldd	r13, Z+1	; 0x01
     368:	f6 fc       	sbrc	r15, 6
     36a:	03 c0       	rjmp	.+6      	; 0x372 <vfprintf+0x176>
     36c:	6f ef       	ldi	r22, 0xFF	; 255
     36e:	7f ef       	ldi	r23, 0xFF	; 255
     370:	02 c0       	rjmp	.+4      	; 0x376 <vfprintf+0x17a>
     372:	69 2d       	mov	r22, r9
     374:	70 e0       	ldi	r23, 0x00	; 0
     376:	42 e0       	ldi	r20, 0x02	; 2
     378:	50 e0       	ldi	r21, 0x00	; 0
     37a:	a4 0e       	add	r10, r20
     37c:	b5 1e       	adc	r11, r21
     37e:	c6 01       	movw	r24, r12
     380:	0e 94 db 02 	call	0x5b6	; 0x5b6 <strnlen_P>
     384:	8c 01       	movw	r16, r24
     386:	50 e8       	ldi	r21, 0x80	; 128
     388:	f5 2a       	or	r15, r21
     38a:	f3 fe       	sbrs	r15, 3
     38c:	07 c0       	rjmp	.+14     	; 0x39c <vfprintf+0x1a0>
     38e:	1a c0       	rjmp	.+52     	; 0x3c4 <vfprintf+0x1c8>
     390:	80 e2       	ldi	r24, 0x20	; 32
     392:	90 e0       	ldi	r25, 0x00	; 0
     394:	b3 01       	movw	r22, r6
     396:	0e 94 f1 02 	call	0x5e2	; 0x5e2 <fputc>
     39a:	ea 94       	dec	r14
     39c:	8e 2d       	mov	r24, r14
     39e:	90 e0       	ldi	r25, 0x00	; 0
     3a0:	08 17       	cp	r16, r24
     3a2:	19 07       	cpc	r17, r25
     3a4:	a8 f3       	brcs	.-22     	; 0x390 <vfprintf+0x194>
     3a6:	0e c0       	rjmp	.+28     	; 0x3c4 <vfprintf+0x1c8>
     3a8:	f6 01       	movw	r30, r12
     3aa:	f7 fc       	sbrc	r15, 7
     3ac:	85 91       	lpm	r24, Z+
     3ae:	f7 fe       	sbrs	r15, 7
     3b0:	81 91       	ld	r24, Z+
     3b2:	6f 01       	movw	r12, r30
     3b4:	90 e0       	ldi	r25, 0x00	; 0
     3b6:	b3 01       	movw	r22, r6
     3b8:	0e 94 f1 02 	call	0x5e2	; 0x5e2 <fputc>
     3bc:	e1 10       	cpse	r14, r1
     3be:	ea 94       	dec	r14
     3c0:	01 50       	subi	r16, 0x01	; 1
     3c2:	10 40       	sbci	r17, 0x00	; 0
     3c4:	01 15       	cp	r16, r1
     3c6:	11 05       	cpc	r17, r1
     3c8:	79 f7       	brne	.-34     	; 0x3a8 <vfprintf+0x1ac>
     3ca:	ea c0       	rjmp	.+468    	; 0x5a0 <vfprintf+0x3a4>
     3cc:	94 36       	cpi	r25, 0x64	; 100
     3ce:	11 f0       	breq	.+4      	; 0x3d4 <vfprintf+0x1d8>
     3d0:	99 36       	cpi	r25, 0x69	; 105
     3d2:	69 f5       	brne	.+90     	; 0x42e <vfprintf+0x232>
     3d4:	f7 fe       	sbrs	r15, 7
     3d6:	08 c0       	rjmp	.+16     	; 0x3e8 <vfprintf+0x1ec>
     3d8:	f5 01       	movw	r30, r10
     3da:	20 81       	ld	r18, Z
     3dc:	31 81       	ldd	r19, Z+1	; 0x01
     3de:	42 81       	ldd	r20, Z+2	; 0x02
     3e0:	53 81       	ldd	r21, Z+3	; 0x03
     3e2:	84 e0       	ldi	r24, 0x04	; 4
     3e4:	90 e0       	ldi	r25, 0x00	; 0
     3e6:	0a c0       	rjmp	.+20     	; 0x3fc <vfprintf+0x200>
     3e8:	f5 01       	movw	r30, r10
     3ea:	80 81       	ld	r24, Z
     3ec:	91 81       	ldd	r25, Z+1	; 0x01
     3ee:	9c 01       	movw	r18, r24
     3f0:	44 27       	eor	r20, r20
     3f2:	37 fd       	sbrc	r19, 7
     3f4:	40 95       	com	r20
     3f6:	54 2f       	mov	r21, r20
     3f8:	82 e0       	ldi	r24, 0x02	; 2
     3fa:	90 e0       	ldi	r25, 0x00	; 0
     3fc:	a8 0e       	add	r10, r24
     3fe:	b9 1e       	adc	r11, r25
     400:	9f e6       	ldi	r25, 0x6F	; 111
     402:	f9 22       	and	r15, r25
     404:	57 ff       	sbrs	r21, 7
     406:	09 c0       	rjmp	.+18     	; 0x41a <vfprintf+0x21e>
     408:	50 95       	com	r21
     40a:	40 95       	com	r20
     40c:	30 95       	com	r19
     40e:	21 95       	neg	r18
     410:	3f 4f       	sbci	r19, 0xFF	; 255
     412:	4f 4f       	sbci	r20, 0xFF	; 255
     414:	5f 4f       	sbci	r21, 0xFF	; 255
     416:	e0 e8       	ldi	r30, 0x80	; 128
     418:	fe 2a       	or	r15, r30
     41a:	ca 01       	movw	r24, r20
     41c:	b9 01       	movw	r22, r18
     41e:	a1 01       	movw	r20, r2
     420:	2a e0       	ldi	r18, 0x0A	; 10
     422:	30 e0       	ldi	r19, 0x00	; 0
     424:	0e 94 1d 03 	call	0x63a	; 0x63a <__ultoa_invert>
     428:	d8 2e       	mov	r13, r24
     42a:	d2 18       	sub	r13, r2
     42c:	40 c0       	rjmp	.+128    	; 0x4ae <vfprintf+0x2b2>
     42e:	95 37       	cpi	r25, 0x75	; 117
     430:	29 f4       	brne	.+10     	; 0x43c <vfprintf+0x240>
     432:	1f 2d       	mov	r17, r15
     434:	1f 7e       	andi	r17, 0xEF	; 239
     436:	2a e0       	ldi	r18, 0x0A	; 10
     438:	30 e0       	ldi	r19, 0x00	; 0
     43a:	1d c0       	rjmp	.+58     	; 0x476 <vfprintf+0x27a>
     43c:	1f 2d       	mov	r17, r15
     43e:	19 7f       	andi	r17, 0xF9	; 249
     440:	9f 36       	cpi	r25, 0x6F	; 111
     442:	61 f0       	breq	.+24     	; 0x45c <vfprintf+0x260>
     444:	90 37       	cpi	r25, 0x70	; 112
     446:	20 f4       	brcc	.+8      	; 0x450 <vfprintf+0x254>
     448:	98 35       	cpi	r25, 0x58	; 88
     44a:	09 f0       	breq	.+2      	; 0x44e <vfprintf+0x252>
     44c:	ac c0       	rjmp	.+344    	; 0x5a6 <vfprintf+0x3aa>
     44e:	0f c0       	rjmp	.+30     	; 0x46e <vfprintf+0x272>
     450:	90 37       	cpi	r25, 0x70	; 112
     452:	39 f0       	breq	.+14     	; 0x462 <vfprintf+0x266>
     454:	98 37       	cpi	r25, 0x78	; 120
     456:	09 f0       	breq	.+2      	; 0x45a <vfprintf+0x25e>
     458:	a6 c0       	rjmp	.+332    	; 0x5a6 <vfprintf+0x3aa>
     45a:	04 c0       	rjmp	.+8      	; 0x464 <vfprintf+0x268>
     45c:	28 e0       	ldi	r18, 0x08	; 8
     45e:	30 e0       	ldi	r19, 0x00	; 0
     460:	0a c0       	rjmp	.+20     	; 0x476 <vfprintf+0x27a>
     462:	10 61       	ori	r17, 0x10	; 16
     464:	14 fd       	sbrc	r17, 4
     466:	14 60       	ori	r17, 0x04	; 4
     468:	20 e1       	ldi	r18, 0x10	; 16
     46a:	30 e0       	ldi	r19, 0x00	; 0
     46c:	04 c0       	rjmp	.+8      	; 0x476 <vfprintf+0x27a>
     46e:	14 fd       	sbrc	r17, 4
     470:	16 60       	ori	r17, 0x06	; 6
     472:	20 e1       	ldi	r18, 0x10	; 16
     474:	32 e0       	ldi	r19, 0x02	; 2
     476:	17 ff       	sbrs	r17, 7
     478:	08 c0       	rjmp	.+16     	; 0x48a <vfprintf+0x28e>
     47a:	f5 01       	movw	r30, r10
     47c:	60 81       	ld	r22, Z
     47e:	71 81       	ldd	r23, Z+1	; 0x01
     480:	82 81       	ldd	r24, Z+2	; 0x02
     482:	93 81       	ldd	r25, Z+3	; 0x03
     484:	44 e0       	ldi	r20, 0x04	; 4
     486:	50 e0       	ldi	r21, 0x00	; 0
     488:	08 c0       	rjmp	.+16     	; 0x49a <vfprintf+0x29e>
     48a:	f5 01       	movw	r30, r10
     48c:	80 81       	ld	r24, Z
     48e:	91 81       	ldd	r25, Z+1	; 0x01
     490:	bc 01       	movw	r22, r24
     492:	80 e0       	ldi	r24, 0x00	; 0
     494:	90 e0       	ldi	r25, 0x00	; 0
     496:	42 e0       	ldi	r20, 0x02	; 2
     498:	50 e0       	ldi	r21, 0x00	; 0
     49a:	a4 0e       	add	r10, r20
     49c:	b5 1e       	adc	r11, r21
     49e:	a1 01       	movw	r20, r2
     4a0:	0e 94 1d 03 	call	0x63a	; 0x63a <__ultoa_invert>
     4a4:	d8 2e       	mov	r13, r24
     4a6:	d2 18       	sub	r13, r2
     4a8:	8f e7       	ldi	r24, 0x7F	; 127
     4aa:	f8 2e       	mov	r15, r24
     4ac:	f1 22       	and	r15, r17
     4ae:	f6 fe       	sbrs	r15, 6
     4b0:	0b c0       	rjmp	.+22     	; 0x4c8 <vfprintf+0x2cc>
     4b2:	5e ef       	ldi	r21, 0xFE	; 254
     4b4:	f5 22       	and	r15, r21
     4b6:	d9 14       	cp	r13, r9
     4b8:	38 f4       	brcc	.+14     	; 0x4c8 <vfprintf+0x2cc>
     4ba:	f4 fe       	sbrs	r15, 4
     4bc:	07 c0       	rjmp	.+14     	; 0x4cc <vfprintf+0x2d0>
     4be:	f2 fc       	sbrc	r15, 2
     4c0:	05 c0       	rjmp	.+10     	; 0x4cc <vfprintf+0x2d0>
     4c2:	8f ee       	ldi	r24, 0xEF	; 239
     4c4:	f8 22       	and	r15, r24
     4c6:	02 c0       	rjmp	.+4      	; 0x4cc <vfprintf+0x2d0>
     4c8:	1d 2d       	mov	r17, r13
     4ca:	01 c0       	rjmp	.+2      	; 0x4ce <vfprintf+0x2d2>
     4cc:	19 2d       	mov	r17, r9
     4ce:	f4 fe       	sbrs	r15, 4
     4d0:	0d c0       	rjmp	.+26     	; 0x4ec <vfprintf+0x2f0>
     4d2:	fe 01       	movw	r30, r28
     4d4:	ed 0d       	add	r30, r13
     4d6:	f1 1d       	adc	r31, r1
     4d8:	80 81       	ld	r24, Z
     4da:	80 33       	cpi	r24, 0x30	; 48
     4dc:	19 f4       	brne	.+6      	; 0x4e4 <vfprintf+0x2e8>
     4de:	99 ee       	ldi	r25, 0xE9	; 233
     4e0:	f9 22       	and	r15, r25
     4e2:	08 c0       	rjmp	.+16     	; 0x4f4 <vfprintf+0x2f8>
     4e4:	1f 5f       	subi	r17, 0xFF	; 255
     4e6:	f2 fe       	sbrs	r15, 2
     4e8:	05 c0       	rjmp	.+10     	; 0x4f4 <vfprintf+0x2f8>
     4ea:	03 c0       	rjmp	.+6      	; 0x4f2 <vfprintf+0x2f6>
     4ec:	8f 2d       	mov	r24, r15
     4ee:	86 78       	andi	r24, 0x86	; 134
     4f0:	09 f0       	breq	.+2      	; 0x4f4 <vfprintf+0x2f8>
     4f2:	1f 5f       	subi	r17, 0xFF	; 255
     4f4:	0f 2d       	mov	r16, r15
     4f6:	f3 fc       	sbrc	r15, 3
     4f8:	14 c0       	rjmp	.+40     	; 0x522 <vfprintf+0x326>
     4fa:	f0 fe       	sbrs	r15, 0
     4fc:	0f c0       	rjmp	.+30     	; 0x51c <vfprintf+0x320>
     4fe:	1e 15       	cp	r17, r14
     500:	10 f0       	brcs	.+4      	; 0x506 <vfprintf+0x30a>
     502:	9d 2c       	mov	r9, r13
     504:	0b c0       	rjmp	.+22     	; 0x51c <vfprintf+0x320>
     506:	9d 2c       	mov	r9, r13
     508:	9e 0c       	add	r9, r14
     50a:	91 1a       	sub	r9, r17
     50c:	1e 2d       	mov	r17, r14
     50e:	06 c0       	rjmp	.+12     	; 0x51c <vfprintf+0x320>
     510:	80 e2       	ldi	r24, 0x20	; 32
     512:	90 e0       	ldi	r25, 0x00	; 0
     514:	b3 01       	movw	r22, r6
     516:	0e 94 f1 02 	call	0x5e2	; 0x5e2 <fputc>
     51a:	1f 5f       	subi	r17, 0xFF	; 255
     51c:	1e 15       	cp	r17, r14
     51e:	c0 f3       	brcs	.-16     	; 0x510 <vfprintf+0x314>
     520:	04 c0       	rjmp	.+8      	; 0x52a <vfprintf+0x32e>
     522:	1e 15       	cp	r17, r14
     524:	10 f4       	brcc	.+4      	; 0x52a <vfprintf+0x32e>
     526:	e1 1a       	sub	r14, r17
     528:	01 c0       	rjmp	.+2      	; 0x52c <vfprintf+0x330>
     52a:	ee 24       	eor	r14, r14
     52c:	04 ff       	sbrs	r16, 4
     52e:	0f c0       	rjmp	.+30     	; 0x54e <vfprintf+0x352>
     530:	80 e3       	ldi	r24, 0x30	; 48
     532:	90 e0       	ldi	r25, 0x00	; 0
     534:	b3 01       	movw	r22, r6
     536:	0e 94 f1 02 	call	0x5e2	; 0x5e2 <fputc>
     53a:	02 ff       	sbrs	r16, 2
     53c:	1d c0       	rjmp	.+58     	; 0x578 <vfprintf+0x37c>
     53e:	01 fd       	sbrc	r16, 1
     540:	03 c0       	rjmp	.+6      	; 0x548 <vfprintf+0x34c>
     542:	88 e7       	ldi	r24, 0x78	; 120
     544:	90 e0       	ldi	r25, 0x00	; 0
     546:	0e c0       	rjmp	.+28     	; 0x564 <vfprintf+0x368>
     548:	88 e5       	ldi	r24, 0x58	; 88
     54a:	90 e0       	ldi	r25, 0x00	; 0
     54c:	0b c0       	rjmp	.+22     	; 0x564 <vfprintf+0x368>
     54e:	80 2f       	mov	r24, r16
     550:	86 78       	andi	r24, 0x86	; 134
     552:	91 f0       	breq	.+36     	; 0x578 <vfprintf+0x37c>
     554:	01 ff       	sbrs	r16, 1
     556:	02 c0       	rjmp	.+4      	; 0x55c <vfprintf+0x360>
     558:	8b e2       	ldi	r24, 0x2B	; 43
     55a:	01 c0       	rjmp	.+2      	; 0x55e <vfprintf+0x362>
     55c:	80 e2       	ldi	r24, 0x20	; 32
     55e:	f7 fc       	sbrc	r15, 7
     560:	8d e2       	ldi	r24, 0x2D	; 45
     562:	90 e0       	ldi	r25, 0x00	; 0
     564:	b3 01       	movw	r22, r6
     566:	0e 94 f1 02 	call	0x5e2	; 0x5e2 <fputc>
     56a:	06 c0       	rjmp	.+12     	; 0x578 <vfprintf+0x37c>
     56c:	80 e3       	ldi	r24, 0x30	; 48
     56e:	90 e0       	ldi	r25, 0x00	; 0
     570:	b3 01       	movw	r22, r6
     572:	0e 94 f1 02 	call	0x5e2	; 0x5e2 <fputc>
     576:	9a 94       	dec	r9
     578:	d9 14       	cp	r13, r9
     57a:	c0 f3       	brcs	.-16     	; 0x56c <vfprintf+0x370>
     57c:	da 94       	dec	r13
     57e:	f1 01       	movw	r30, r2
     580:	ed 0d       	add	r30, r13
     582:	f1 1d       	adc	r31, r1
     584:	80 81       	ld	r24, Z
     586:	90 e0       	ldi	r25, 0x00	; 0
     588:	b3 01       	movw	r22, r6
     58a:	0e 94 f1 02 	call	0x5e2	; 0x5e2 <fputc>
     58e:	dd 20       	and	r13, r13
     590:	a9 f7       	brne	.-22     	; 0x57c <vfprintf+0x380>
     592:	06 c0       	rjmp	.+12     	; 0x5a0 <vfprintf+0x3a4>
     594:	80 e2       	ldi	r24, 0x20	; 32
     596:	90 e0       	ldi	r25, 0x00	; 0
     598:	b3 01       	movw	r22, r6
     59a:	0e 94 f1 02 	call	0x5e2	; 0x5e2 <fputc>
     59e:	ea 94       	dec	r14
     5a0:	ee 20       	and	r14, r14
     5a2:	c1 f7       	brne	.-16     	; 0x594 <vfprintf+0x398>
     5a4:	43 ce       	rjmp	.-890    	; 0x22c <vfprintf+0x30>
     5a6:	f3 01       	movw	r30, r6
     5a8:	66 81       	ldd	r22, Z+6	; 0x06
     5aa:	77 81       	ldd	r23, Z+7	; 0x07
     5ac:	cb 01       	movw	r24, r22
     5ae:	2b 96       	adiw	r28, 0x0b	; 11
     5b0:	e2 e1       	ldi	r30, 0x12	; 18
     5b2:	0c 94 9c 11 	jmp	0x2338	; 0x2338 <__epilogue_restores__>

000005b6 <strnlen_P>:
     5b6:	fc 01       	movw	r30, r24
     5b8:	05 90       	lpm	r0, Z+
     5ba:	61 50       	subi	r22, 0x01	; 1
     5bc:	70 40       	sbci	r23, 0x00	; 0
     5be:	01 10       	cpse	r0, r1
     5c0:	d8 f7       	brcc	.-10     	; 0x5b8 <strnlen_P+0x2>
     5c2:	80 95       	com	r24
     5c4:	90 95       	com	r25
     5c6:	8e 0f       	add	r24, r30
     5c8:	9f 1f       	adc	r25, r31
     5ca:	08 95       	ret

000005cc <strnlen>:
     5cc:	fc 01       	movw	r30, r24
     5ce:	61 50       	subi	r22, 0x01	; 1
     5d0:	70 40       	sbci	r23, 0x00	; 0
     5d2:	01 90       	ld	r0, Z+
     5d4:	01 10       	cpse	r0, r1
     5d6:	d8 f7       	brcc	.-10     	; 0x5ce <strnlen+0x2>
     5d8:	80 95       	com	r24
     5da:	90 95       	com	r25
     5dc:	8e 0f       	add	r24, r30
     5de:	9f 1f       	adc	r25, r31
     5e0:	08 95       	ret

000005e2 <fputc>:
     5e2:	0f 93       	push	r16
     5e4:	1f 93       	push	r17
     5e6:	cf 93       	push	r28
     5e8:	df 93       	push	r29
     5ea:	8c 01       	movw	r16, r24
     5ec:	eb 01       	movw	r28, r22
     5ee:	8b 81       	ldd	r24, Y+3	; 0x03
     5f0:	81 ff       	sbrs	r24, 1
     5f2:	1b c0       	rjmp	.+54     	; 0x62a <fputc+0x48>
     5f4:	82 ff       	sbrs	r24, 2
     5f6:	0d c0       	rjmp	.+26     	; 0x612 <fputc+0x30>
     5f8:	2e 81       	ldd	r18, Y+6	; 0x06
     5fa:	3f 81       	ldd	r19, Y+7	; 0x07
     5fc:	8c 81       	ldd	r24, Y+4	; 0x04
     5fe:	9d 81       	ldd	r25, Y+5	; 0x05
     600:	28 17       	cp	r18, r24
     602:	39 07       	cpc	r19, r25
     604:	64 f4       	brge	.+24     	; 0x61e <fputc+0x3c>
     606:	e8 81       	ld	r30, Y
     608:	f9 81       	ldd	r31, Y+1	; 0x01
     60a:	01 93       	st	Z+, r16
     60c:	f9 83       	std	Y+1, r31	; 0x01
     60e:	e8 83       	st	Y, r30
     610:	06 c0       	rjmp	.+12     	; 0x61e <fputc+0x3c>
     612:	e8 85       	ldd	r30, Y+8	; 0x08
     614:	f9 85       	ldd	r31, Y+9	; 0x09
     616:	80 2f       	mov	r24, r16
     618:	09 95       	icall
     61a:	89 2b       	or	r24, r25
     61c:	31 f4       	brne	.+12     	; 0x62a <fputc+0x48>
     61e:	8e 81       	ldd	r24, Y+6	; 0x06
     620:	9f 81       	ldd	r25, Y+7	; 0x07
     622:	01 96       	adiw	r24, 0x01	; 1
     624:	9f 83       	std	Y+7, r25	; 0x07
     626:	8e 83       	std	Y+6, r24	; 0x06
     628:	02 c0       	rjmp	.+4      	; 0x62e <fputc+0x4c>
     62a:	0f ef       	ldi	r16, 0xFF	; 255
     62c:	1f ef       	ldi	r17, 0xFF	; 255
     62e:	c8 01       	movw	r24, r16
     630:	df 91       	pop	r29
     632:	cf 91       	pop	r28
     634:	1f 91       	pop	r17
     636:	0f 91       	pop	r16
     638:	08 95       	ret

0000063a <__ultoa_invert>:
     63a:	fa 01       	movw	r30, r20
     63c:	aa 27       	eor	r26, r26
     63e:	28 30       	cpi	r18, 0x08	; 8
     640:	51 f1       	breq	.+84     	; 0x696 <__ultoa_invert+0x5c>
     642:	20 31       	cpi	r18, 0x10	; 16
     644:	81 f1       	breq	.+96     	; 0x6a6 <__ultoa_invert+0x6c>
     646:	e8 94       	clt
     648:	6f 93       	push	r22
     64a:	6e 7f       	andi	r22, 0xFE	; 254
     64c:	6e 5f       	subi	r22, 0xFE	; 254
     64e:	7f 4f       	sbci	r23, 0xFF	; 255
     650:	8f 4f       	sbci	r24, 0xFF	; 255
     652:	9f 4f       	sbci	r25, 0xFF	; 255
     654:	af 4f       	sbci	r26, 0xFF	; 255
     656:	b1 e0       	ldi	r27, 0x01	; 1
     658:	3e d0       	rcall	.+124    	; 0x6d6 <__ultoa_invert+0x9c>
     65a:	b4 e0       	ldi	r27, 0x04	; 4
     65c:	3c d0       	rcall	.+120    	; 0x6d6 <__ultoa_invert+0x9c>
     65e:	67 0f       	add	r22, r23
     660:	78 1f       	adc	r23, r24
     662:	89 1f       	adc	r24, r25
     664:	9a 1f       	adc	r25, r26
     666:	a1 1d       	adc	r26, r1
     668:	68 0f       	add	r22, r24
     66a:	79 1f       	adc	r23, r25
     66c:	8a 1f       	adc	r24, r26
     66e:	91 1d       	adc	r25, r1
     670:	a1 1d       	adc	r26, r1
     672:	6a 0f       	add	r22, r26
     674:	71 1d       	adc	r23, r1
     676:	81 1d       	adc	r24, r1
     678:	91 1d       	adc	r25, r1
     67a:	a1 1d       	adc	r26, r1
     67c:	20 d0       	rcall	.+64     	; 0x6be <__ultoa_invert+0x84>
     67e:	09 f4       	brne	.+2      	; 0x682 <__ultoa_invert+0x48>
     680:	68 94       	set
     682:	3f 91       	pop	r19
     684:	2a e0       	ldi	r18, 0x0A	; 10
     686:	26 9f       	mul	r18, r22
     688:	11 24       	eor	r1, r1
     68a:	30 19       	sub	r19, r0
     68c:	30 5d       	subi	r19, 0xD0	; 208
     68e:	31 93       	st	Z+, r19
     690:	de f6       	brtc	.-74     	; 0x648 <__ultoa_invert+0xe>
     692:	cf 01       	movw	r24, r30
     694:	08 95       	ret
     696:	46 2f       	mov	r20, r22
     698:	47 70       	andi	r20, 0x07	; 7
     69a:	40 5d       	subi	r20, 0xD0	; 208
     69c:	41 93       	st	Z+, r20
     69e:	b3 e0       	ldi	r27, 0x03	; 3
     6a0:	0f d0       	rcall	.+30     	; 0x6c0 <__ultoa_invert+0x86>
     6a2:	c9 f7       	brne	.-14     	; 0x696 <__ultoa_invert+0x5c>
     6a4:	f6 cf       	rjmp	.-20     	; 0x692 <__ultoa_invert+0x58>
     6a6:	46 2f       	mov	r20, r22
     6a8:	4f 70       	andi	r20, 0x0F	; 15
     6aa:	40 5d       	subi	r20, 0xD0	; 208
     6ac:	4a 33       	cpi	r20, 0x3A	; 58
     6ae:	18 f0       	brcs	.+6      	; 0x6b6 <__ultoa_invert+0x7c>
     6b0:	49 5d       	subi	r20, 0xD9	; 217
     6b2:	31 fd       	sbrc	r19, 1
     6b4:	40 52       	subi	r20, 0x20	; 32
     6b6:	41 93       	st	Z+, r20
     6b8:	02 d0       	rcall	.+4      	; 0x6be <__ultoa_invert+0x84>
     6ba:	a9 f7       	brne	.-22     	; 0x6a6 <__ultoa_invert+0x6c>
     6bc:	ea cf       	rjmp	.-44     	; 0x692 <__ultoa_invert+0x58>
     6be:	b4 e0       	ldi	r27, 0x04	; 4
     6c0:	a6 95       	lsr	r26
     6c2:	97 95       	ror	r25
     6c4:	87 95       	ror	r24
     6c6:	77 95       	ror	r23
     6c8:	67 95       	ror	r22
     6ca:	ba 95       	dec	r27
     6cc:	c9 f7       	brne	.-14     	; 0x6c0 <__ultoa_invert+0x86>
     6ce:	00 97       	sbiw	r24, 0x00	; 0
     6d0:	61 05       	cpc	r22, r1
     6d2:	71 05       	cpc	r23, r1
     6d4:	08 95       	ret
     6d6:	9b 01       	movw	r18, r22
     6d8:	ac 01       	movw	r20, r24
     6da:	0a 2e       	mov	r0, r26
     6dc:	06 94       	lsr	r0
     6de:	57 95       	ror	r21
     6e0:	47 95       	ror	r20
     6e2:	37 95       	ror	r19
     6e4:	27 95       	ror	r18
     6e6:	ba 95       	dec	r27
     6e8:	c9 f7       	brne	.-14     	; 0x6dc <__ultoa_invert+0xa2>
     6ea:	62 0f       	add	r22, r18
     6ec:	73 1f       	adc	r23, r19
     6ee:	84 1f       	adc	r24, r20
     6f0:	95 1f       	adc	r25, r21
     6f2:	a0 1d       	adc	r26, r0
     6f4:	08 95       	ret

000006f6 <delay_ms>:
uchar cmd_buf[100];

/**
 * Some basic delay function
 */
void delay_ms(unsigned short ms) {
     6f6:	df 93       	push	r29
     6f8:	cf 93       	push	r28
     6fa:	00 d0       	rcall	.+0      	; 0x6fc <delay_ms+0x6>
     6fc:	00 d0       	rcall	.+0      	; 0x6fe <delay_ms+0x8>
     6fe:	00 d0       	rcall	.+0      	; 0x700 <delay_ms+0xa>
     700:	cd b7       	in	r28, 0x3d	; 61
     702:	de b7       	in	r29, 0x3e	; 62
     704:	9e 83       	std	Y+6, r25	; 0x06
     706:	8d 83       	std	Y+5, r24	; 0x05
	unsigned short outer1, outer2;
	outer1 = 200 * 12;
     708:	80 e6       	ldi	r24, 0x60	; 96
     70a:	99 e0       	ldi	r25, 0x09	; 9
     70c:	9c 83       	std	Y+4, r25	; 0x04
     70e:	8b 83       	std	Y+3, r24	; 0x03
     710:	1c c0       	rjmp	.+56     	; 0x74a <delay_ms+0x54>

	while (outer1) {
		outer2 = 100;
     712:	84 e6       	ldi	r24, 0x64	; 100
     714:	90 e0       	ldi	r25, 0x00	; 0
     716:	9a 83       	std	Y+2, r25	; 0x02
     718:	89 83       	std	Y+1, r24	; 0x01
     71a:	0e c0       	rjmp	.+28     	; 0x738 <delay_ms+0x42>
		while (outer2) {
			while (ms)
				ms--;
     71c:	8d 81       	ldd	r24, Y+5	; 0x05
     71e:	9e 81       	ldd	r25, Y+6	; 0x06
     720:	01 97       	sbiw	r24, 0x01	; 1
     722:	9e 83       	std	Y+6, r25	; 0x06
     724:	8d 83       	std	Y+5, r24	; 0x05
	outer1 = 200 * 12;

	while (outer1) {
		outer2 = 100;
		while (outer2) {
			while (ms)
     726:	8d 81       	ldd	r24, Y+5	; 0x05
     728:	9e 81       	ldd	r25, Y+6	; 0x06
     72a:	00 97       	sbiw	r24, 0x00	; 0
     72c:	b9 f7       	brne	.-18     	; 0x71c <delay_ms+0x26>
				ms--;
			outer2--;
     72e:	89 81       	ldd	r24, Y+1	; 0x01
     730:	9a 81       	ldd	r25, Y+2	; 0x02
     732:	01 97       	sbiw	r24, 0x01	; 1
     734:	9a 83       	std	Y+2, r25	; 0x02
     736:	89 83       	std	Y+1, r24	; 0x01
	unsigned short outer1, outer2;
	outer1 = 200 * 12;

	while (outer1) {
		outer2 = 100;
		while (outer2) {
     738:	89 81       	ldd	r24, Y+1	; 0x01
     73a:	9a 81       	ldd	r25, Y+2	; 0x02
     73c:	00 97       	sbiw	r24, 0x00	; 0
     73e:	99 f7       	brne	.-26     	; 0x726 <delay_ms+0x30>
			while (ms)
				ms--;
			outer2--;
		}
		outer1--;
     740:	8b 81       	ldd	r24, Y+3	; 0x03
     742:	9c 81       	ldd	r25, Y+4	; 0x04
     744:	01 97       	sbiw	r24, 0x01	; 1
     746:	9c 83       	std	Y+4, r25	; 0x04
     748:	8b 83       	std	Y+3, r24	; 0x03
 */
void delay_ms(unsigned short ms) {
	unsigned short outer1, outer2;
	outer1 = 200 * 12;

	while (outer1) {
     74a:	8b 81       	ldd	r24, Y+3	; 0x03
     74c:	9c 81       	ldd	r25, Y+4	; 0x04
     74e:	00 97       	sbiw	r24, 0x00	; 0
     750:	01 f7       	brne	.-64     	; 0x712 <delay_ms+0x1c>
				ms--;
			outer2--;
		}
		outer1--;
	}
}
     752:	26 96       	adiw	r28, 0x06	; 6
     754:	0f b6       	in	r0, 0x3f	; 63
     756:	f8 94       	cli
     758:	de bf       	out	0x3e, r29	; 62
     75a:	0f be       	out	0x3f, r0	; 63
     75c:	cd bf       	out	0x3d, r28	; 61
     75e:	cf 91       	pop	r28
     760:	df 91       	pop	r29
     762:	08 95       	ret

00000764 <gpib_init>:
 * Init GPIB pins and variables.
 * \brief All signal lines not related to the controller part
 * 		are initialized with useful values.
 *		(The controller part initialization is done on gpib_controller_assert())
 */
void gpib_init(void) {
     764:	df 93       	push	r29
     766:	cf 93       	push	r28
     768:	cd b7       	in	r28, 0x3d	; 61
     76a:	de b7       	in	r29, 0x3e	; 62
	// data lines - complete port A as input
	DDRA = 0x00;
     76c:	ea e3       	ldi	r30, 0x3A	; 58
     76e:	f0 e0       	ldi	r31, 0x00	; 0
     770:	10 82       	st	Z, r1

	// handshake lines - on port D , everything as input
	DDRD &= ~_BV(G_DAV); // DAV 
     772:	a1 e3       	ldi	r26, 0x31	; 49
     774:	b0 e0       	ldi	r27, 0x00	; 0
     776:	e1 e3       	ldi	r30, 0x31	; 49
     778:	f0 e0       	ldi	r31, 0x00	; 0
     77a:	80 81       	ld	r24, Z
     77c:	8b 7f       	andi	r24, 0xFB	; 251
     77e:	8c 93       	st	X, r24
	DDRD &= ~_BV(G_EOI); // EOI 
     780:	a1 e3       	ldi	r26, 0x31	; 49
     782:	b0 e0       	ldi	r27, 0x00	; 0
     784:	e1 e3       	ldi	r30, 0x31	; 49
     786:	f0 e0       	ldi	r31, 0x00	; 0
     788:	80 81       	ld	r24, Z
     78a:	8f 7e       	andi	r24, 0xEF	; 239
     78c:	8c 93       	st	X, r24
	DDRD &= ~_BV(G_SRQ); // SRQ 
     78e:	a1 e3       	ldi	r26, 0x31	; 49
     790:	b0 e0       	ldi	r27, 0x00	; 0
     792:	e1 e3       	ldi	r30, 0x31	; 49
     794:	f0 e0       	ldi	r31, 0x00	; 0
     796:	80 81       	ld	r24, Z
     798:	8f 7b       	andi	r24, 0xBF	; 191
     79a:	8c 93       	st	X, r24
	DDRD &= ~_BV(G_ATN); // ATN  
     79c:	a1 e3       	ldi	r26, 0x31	; 49
     79e:	b0 e0       	ldi	r27, 0x00	; 0
     7a0:	e1 e3       	ldi	r30, 0x31	; 49
     7a2:	f0 e0       	ldi	r31, 0x00	; 0
     7a4:	80 81       	ld	r24, Z
     7a6:	8f 77       	andi	r24, 0x7F	; 127
     7a8:	8c 93       	st	X, r24
	DDRB &= ~_BV(G_REN); // REN  
     7aa:	a7 e3       	ldi	r26, 0x37	; 55
     7ac:	b0 e0       	ldi	r27, 0x00	; 0
     7ae:	e7 e3       	ldi	r30, 0x37	; 55
     7b0:	f0 e0       	ldi	r31, 0x00	; 0
     7b2:	80 81       	ld	r24, Z
     7b4:	8d 7f       	andi	r24, 0xFD	; 253
     7b6:	8c 93       	st	X, r24
	DDRB &= ~_BV(G_IFC); // IFC  
     7b8:	a7 e3       	ldi	r26, 0x37	; 55
     7ba:	b0 e0       	ldi	r27, 0x00	; 0
     7bc:	e7 e3       	ldi	r30, 0x37	; 55
     7be:	f0 e0       	ldi	r31, 0x00	; 0
     7c0:	80 81       	ld	r24, Z
     7c2:	8e 7f       	andi	r24, 0xFE	; 254
     7c4:	8c 93       	st	X, r24

	// init handshake lines
	assign_bit(DDRD, PORTD, G_NRFD);
     7c6:	a2 e3       	ldi	r26, 0x32	; 50
     7c8:	b0 e0       	ldi	r27, 0x00	; 0
     7ca:	e2 e3       	ldi	r30, 0x32	; 50
     7cc:	f0 e0       	ldi	r31, 0x00	; 0
     7ce:	80 81       	ld	r24, Z
     7d0:	87 7f       	andi	r24, 0xF7	; 247
     7d2:	8c 93       	st	X, r24
     7d4:	a1 e3       	ldi	r26, 0x31	; 49
     7d6:	b0 e0       	ldi	r27, 0x00	; 0
     7d8:	e1 e3       	ldi	r30, 0x31	; 49
     7da:	f0 e0       	ldi	r31, 0x00	; 0
     7dc:	80 81       	ld	r24, Z
     7de:	88 60       	ori	r24, 0x08	; 8
     7e0:	8c 93       	st	X, r24
     7e2:	a2 e3       	ldi	r26, 0x32	; 50
     7e4:	b0 e0       	ldi	r27, 0x00	; 0
     7e6:	e2 e3       	ldi	r30, 0x32	; 50
     7e8:	f0 e0       	ldi	r31, 0x00	; 0
     7ea:	80 81       	ld	r24, Z
     7ec:	87 7f       	andi	r24, 0xF7	; 247
     7ee:	8c 93       	st	X, r24
	// not ready for data now
	release_bit(DDRD, PORTD, G_NDAC);
     7f0:	a1 e3       	ldi	r26, 0x31	; 49
     7f2:	b0 e0       	ldi	r27, 0x00	; 0
     7f4:	e1 e3       	ldi	r30, 0x31	; 49
     7f6:	f0 e0       	ldi	r31, 0x00	; 0
     7f8:	80 81       	ld	r24, Z
     7fa:	8f 7d       	andi	r24, 0xDF	; 223
     7fc:	8c 93       	st	X, r24
     7fe:	a2 e3       	ldi	r26, 0x32	; 50
     800:	b0 e0       	ldi	r27, 0x00	; 0
     802:	e2 e3       	ldi	r30, 0x32	; 50
     804:	f0 e0       	ldi	r31, 0x00	; 0
     806:	80 81       	ld	r24, Z
     808:	80 62       	ori	r24, 0x20	; 32
     80a:	8c 93       	st	X, r24
	// initially: ok so far
}
     80c:	cf 91       	pop	r28
     80e:	df 91       	pop	r29
     810:	08 95       	ret

00000812 <gpib_receive>:
 *  \returns		On any error, 0xff is returned. in this case, the value of parameter *_byte is undefined.
 * 		Otherwise the value of the EOI signal line during read is returned. If EOI was assigned, a 0x01 is
 * 		returned. If EOI was not assigned, a 0x00 is returned. Assignment of EOI means that the talker
 * 		is sending the last character for this transmission.
 */
uchar gpib_receive(uchar* _byte) {
     812:	df 93       	push	r29
     814:	cf 93       	push	r28
     816:	cd b7       	in	r28, 0x3d	; 61
     818:	de b7       	in	r29, 0x3e	; 62
     81a:	27 97       	sbiw	r28, 0x07	; 7
     81c:	0f b6       	in	r0, 0x3f	; 63
     81e:	f8 94       	cli
     820:	de bf       	out	0x3e, r29	; 62
     822:	0f be       	out	0x3f, r0	; 63
     824:	cd bf       	out	0x3d, r28	; 61
     826:	9e 83       	std	Y+6, r25	; 0x06
     828:	8d 83       	std	Y+5, r24	; 0x05
	int timeout;
	uchar byte, eoi;

	//uart_puts("\n\rgpib_receive()\n\r");

	if (controller.talks == 1) {
     82a:	80 91 8f 04 	lds	r24, 0x048F
     82e:	81 30       	cpi	r24, 0x01	; 1
     830:	39 f4       	brne	.+14     	; 0x840 <gpib_receive+0x2e>
		*_byte = 0xff;
     832:	ed 81       	ldd	r30, Y+5	; 0x05
     834:	fe 81       	ldd	r31, Y+6	; 0x06
     836:	8f ef       	ldi	r24, 0xFF	; 255
     838:	80 83       	st	Z, r24
		return 0xff;
     83a:	8f ef       	ldi	r24, 0xFF	; 255
     83c:	8f 83       	std	Y+7, r24	; 0x07
     83e:	c6 c0       	rjmp	.+396    	; 0x9cc <__stack+0x16d>
	}

	// handshake: set nrfd, means i am ready to receive some data
	release_bit(DDRD, PORTD, G_NRFD);
     840:	a1 e3       	ldi	r26, 0x31	; 49
     842:	b0 e0       	ldi	r27, 0x00	; 0
     844:	e1 e3       	ldi	r30, 0x31	; 49
     846:	f0 e0       	ldi	r31, 0x00	; 0
     848:	80 81       	ld	r24, Z
     84a:	87 7f       	andi	r24, 0xF7	; 247
     84c:	8c 93       	st	X, r24
     84e:	a2 e3       	ldi	r26, 0x32	; 50
     850:	b0 e0       	ldi	r27, 0x00	; 0
     852:	e2 e3       	ldi	r30, 0x32	; 50
     854:	f0 e0       	ldi	r31, 0x00	; 0
     856:	80 81       	ld	r24, Z
     858:	88 60       	ori	r24, 0x08	; 8
     85a:	8c 93       	st	X, r24
	assign_bit(DDRD, PORTD, G_NDAC);
     85c:	a2 e3       	ldi	r26, 0x32	; 50
     85e:	b0 e0       	ldi	r27, 0x00	; 0
     860:	e2 e3       	ldi	r30, 0x32	; 50
     862:	f0 e0       	ldi	r31, 0x00	; 0
     864:	80 81       	ld	r24, Z
     866:	8f 7d       	andi	r24, 0xDF	; 223
     868:	8c 93       	st	X, r24
     86a:	a1 e3       	ldi	r26, 0x31	; 49
     86c:	b0 e0       	ldi	r27, 0x00	; 0
     86e:	e1 e3       	ldi	r30, 0x31	; 49
     870:	f0 e0       	ldi	r31, 0x00	; 0
     872:	80 81       	ld	r24, Z
     874:	80 62       	ori	r24, 0x20	; 32
     876:	8c 93       	st	X, r24
     878:	a2 e3       	ldi	r26, 0x32	; 50
     87a:	b0 e0       	ldi	r27, 0x00	; 0
     87c:	e2 e3       	ldi	r30, 0x32	; 50
     87e:	f0 e0       	ldi	r31, 0x00	; 0
     880:	80 81       	ld	r24, Z
     882:	8f 7d       	andi	r24, 0xDF	; 223
     884:	8c 93       	st	X, r24

	//gpib_info();

#ifdef WITH_TIMEOUT
	timeout = s + 5;
     886:	80 91 97 05 	lds	r24, 0x0597
     88a:	88 2f       	mov	r24, r24
     88c:	90 e0       	ldi	r25, 0x00	; 0
     88e:	05 96       	adiw	r24, 0x05	; 5
     890:	9c 83       	std	Y+4, r25	; 0x04
     892:	8b 83       	std	Y+3, r24	; 0x03
     894:	10 c0       	rjmp	.+32     	; 0x8b6 <__stack+0x57>
	//gpib_info();
	while ((PIND & _BV(G_DAV)) && (s <= timeout)) {
		if (s == timeout) {
     896:	80 91 97 05 	lds	r24, 0x0597
     89a:	28 2f       	mov	r18, r24
     89c:	30 e0       	ldi	r19, 0x00	; 0
     89e:	8b 81       	ldd	r24, Y+3	; 0x03
     8a0:	9c 81       	ldd	r25, Y+4	; 0x04
     8a2:	28 17       	cp	r18, r24
     8a4:	39 07       	cpc	r19, r25
     8a6:	39 f4       	brne	.+14     	; 0x8b6 <__stack+0x57>
			uart_puts("\n\rError: DAV timeout (1)\n\r");
     8a8:	80 e6       	ldi	r24, 0x60	; 96
     8aa:	90 e0       	ldi	r25, 0x00	; 0
     8ac:	0e 94 3b 11 	call	0x2276	; 0x2276 <uart_puts>
			return 0xff;
     8b0:	8f ef       	ldi	r24, 0xFF	; 255
     8b2:	8f 83       	std	Y+7, r24	; 0x07
     8b4:	8b c0       	rjmp	.+278    	; 0x9cc <__stack+0x16d>
	//gpib_info();

#ifdef WITH_TIMEOUT
	timeout = s + 5;
	//gpib_info();
	while ((PIND & _BV(G_DAV)) && (s <= timeout)) {
     8b6:	e0 e3       	ldi	r30, 0x30	; 48
     8b8:	f0 e0       	ldi	r31, 0x00	; 0
     8ba:	80 81       	ld	r24, Z
     8bc:	88 2f       	mov	r24, r24
     8be:	90 e0       	ldi	r25, 0x00	; 0
     8c0:	84 70       	andi	r24, 0x04	; 4
     8c2:	90 70       	andi	r25, 0x00	; 0
     8c4:	00 97       	sbiw	r24, 0x00	; 0
     8c6:	49 f0       	breq	.+18     	; 0x8da <__stack+0x7b>
     8c8:	80 91 97 05 	lds	r24, 0x0597
     8cc:	28 2f       	mov	r18, r24
     8ce:	30 e0       	ldi	r19, 0x00	; 0
     8d0:	8b 81       	ldd	r24, Y+3	; 0x03
     8d2:	9c 81       	ldd	r25, Y+4	; 0x04
     8d4:	82 17       	cp	r24, r18
     8d6:	93 07       	cpc	r25, r19
     8d8:	f4 f6       	brge	.-68     	; 0x896 <__stack+0x37>
#else
	loop_until_bit_is_clear(PIND,G_DAV);
#endif

	// handshake: clear NRFD, means i am busy now to read data
	assign_bit(DDRD, PORTD, G_NRFD);
     8da:	a2 e3       	ldi	r26, 0x32	; 50
     8dc:	b0 e0       	ldi	r27, 0x00	; 0
     8de:	e2 e3       	ldi	r30, 0x32	; 50
     8e0:	f0 e0       	ldi	r31, 0x00	; 0
     8e2:	80 81       	ld	r24, Z
     8e4:	87 7f       	andi	r24, 0xF7	; 247
     8e6:	8c 93       	st	X, r24
     8e8:	a1 e3       	ldi	r26, 0x31	; 49
     8ea:	b0 e0       	ldi	r27, 0x00	; 0
     8ec:	e1 e3       	ldi	r30, 0x31	; 49
     8ee:	f0 e0       	ldi	r31, 0x00	; 0
     8f0:	80 81       	ld	r24, Z
     8f2:	88 60       	ori	r24, 0x08	; 8
     8f4:	8c 93       	st	X, r24
     8f6:	a2 e3       	ldi	r26, 0x32	; 50
     8f8:	b0 e0       	ldi	r27, 0x00	; 0
     8fa:	e2 e3       	ldi	r30, 0x32	; 50
     8fc:	f0 e0       	ldi	r31, 0x00	; 0
     8fe:	80 81       	ld	r24, Z
     900:	87 7f       	andi	r24, 0xF7	; 247
     902:	8c 93       	st	X, r24
	// read data
	byte = PINA ^ 0xff;
     904:	e9 e3       	ldi	r30, 0x39	; 57
     906:	f0 e0       	ldi	r31, 0x00	; 0
     908:	80 81       	ld	r24, Z
     90a:	80 95       	com	r24
     90c:	8a 83       	std	Y+2, r24	; 0x02

	// handshake: set ndac, means i have completed/accepted the read
	release_bit(DDRD, PORTD, G_NDAC);
     90e:	a1 e3       	ldi	r26, 0x31	; 49
     910:	b0 e0       	ldi	r27, 0x00	; 0
     912:	e1 e3       	ldi	r30, 0x31	; 49
     914:	f0 e0       	ldi	r31, 0x00	; 0
     916:	80 81       	ld	r24, Z
     918:	8f 7d       	andi	r24, 0xDF	; 223
     91a:	8c 93       	st	X, r24
     91c:	a2 e3       	ldi	r26, 0x32	; 50
     91e:	b0 e0       	ldi	r27, 0x00	; 0
     920:	e2 e3       	ldi	r30, 0x32	; 50
     922:	f0 e0       	ldi	r31, 0x00	; 0
     924:	80 81       	ld	r24, Z
     926:	80 62       	ori	r24, 0x20	; 32
     928:	8c 93       	st	X, r24

#ifdef WITH_TIMEOUT
	timeout = s + 5;
     92a:	80 91 97 05 	lds	r24, 0x0597
     92e:	88 2f       	mov	r24, r24
     930:	90 e0       	ldi	r25, 0x00	; 0
     932:	05 96       	adiw	r24, 0x05	; 5
     934:	9c 83       	std	Y+4, r25	; 0x04
     936:	8b 83       	std	Y+3, r24	; 0x03
     938:	10 c0       	rjmp	.+32     	; 0x95a <__stack+0xfb>
	//gpib_info();
	while (!(PIND & _BV(G_DAV)) && (s <= timeout)) {
		if (s == timeout) {
     93a:	80 91 97 05 	lds	r24, 0x0597
     93e:	28 2f       	mov	r18, r24
     940:	30 e0       	ldi	r19, 0x00	; 0
     942:	8b 81       	ldd	r24, Y+3	; 0x03
     944:	9c 81       	ldd	r25, Y+4	; 0x04
     946:	28 17       	cp	r18, r24
     948:	39 07       	cpc	r19, r25
     94a:	39 f4       	brne	.+14     	; 0x95a <__stack+0xfb>
			uart_puts("\n\rError: DAV timeout (2)\n\r");
     94c:	8b e7       	ldi	r24, 0x7B	; 123
     94e:	90 e0       	ldi	r25, 0x00	; 0
     950:	0e 94 3b 11 	call	0x2276	; 0x2276 <uart_puts>
			return 0xff;
     954:	8f ef       	ldi	r24, 0xFF	; 255
     956:	8f 83       	std	Y+7, r24	; 0x07
     958:	39 c0       	rjmp	.+114    	; 0x9cc <__stack+0x16d>
	release_bit(DDRD, PORTD, G_NDAC);

#ifdef WITH_TIMEOUT
	timeout = s + 5;
	//gpib_info();
	while (!(PIND & _BV(G_DAV)) && (s <= timeout)) {
     95a:	e0 e3       	ldi	r30, 0x30	; 48
     95c:	f0 e0       	ldi	r31, 0x00	; 0
     95e:	80 81       	ld	r24, Z
     960:	88 2f       	mov	r24, r24
     962:	90 e0       	ldi	r25, 0x00	; 0
     964:	84 70       	andi	r24, 0x04	; 4
     966:	90 70       	andi	r25, 0x00	; 0
     968:	00 97       	sbiw	r24, 0x00	; 0
     96a:	49 f4       	brne	.+18     	; 0x97e <__stack+0x11f>
     96c:	80 91 97 05 	lds	r24, 0x0597
     970:	28 2f       	mov	r18, r24
     972:	30 e0       	ldi	r19, 0x00	; 0
     974:	8b 81       	ldd	r24, Y+3	; 0x03
     976:	9c 81       	ldd	r25, Y+4	; 0x04
     978:	82 17       	cp	r24, r18
     97a:	93 07       	cpc	r25, r19
     97c:	f4 f6       	brge	.-68     	; 0x93a <__stack+0xdb>
	}
#else
	loop_until_bit_is_set(PIND,G_DAV);
#endif
	// handshake: clear ndac (this is a prerequisite for receive next byte)
	assign_bit(DDRD, PORTD, G_NDAC);
     97e:	a2 e3       	ldi	r26, 0x32	; 50
     980:	b0 e0       	ldi	r27, 0x00	; 0
     982:	e2 e3       	ldi	r30, 0x32	; 50
     984:	f0 e0       	ldi	r31, 0x00	; 0
     986:	80 81       	ld	r24, Z
     988:	8f 7d       	andi	r24, 0xDF	; 223
     98a:	8c 93       	st	X, r24
     98c:	a1 e3       	ldi	r26, 0x31	; 49
     98e:	b0 e0       	ldi	r27, 0x00	; 0
     990:	e1 e3       	ldi	r30, 0x31	; 49
     992:	f0 e0       	ldi	r31, 0x00	; 0
     994:	80 81       	ld	r24, Z
     996:	80 62       	ori	r24, 0x20	; 32
     998:	8c 93       	st	X, r24
     99a:	a2 e3       	ldi	r26, 0x32	; 50
     99c:	b0 e0       	ldi	r27, 0x00	; 0
     99e:	e2 e3       	ldi	r30, 0x32	; 50
     9a0:	f0 e0       	ldi	r31, 0x00	; 0
     9a2:	80 81       	ld	r24, Z
     9a4:	8f 7d       	andi	r24, 0xDF	; 223
     9a6:	8c 93       	st	X, r24

	// check if last byte of transmission
	eoi = bit_is_clear(PIND, G_EOI);
     9a8:	e0 e3       	ldi	r30, 0x30	; 48
     9aa:	f0 e0       	ldi	r31, 0x00	; 0
     9ac:	80 81       	ld	r24, Z
     9ae:	88 2f       	mov	r24, r24
     9b0:	90 e0       	ldi	r25, 0x00	; 0
     9b2:	80 71       	andi	r24, 0x10	; 16
     9b4:	90 70       	andi	r25, 0x00	; 0
     9b6:	19 82       	std	Y+1, r1	; 0x01
     9b8:	00 97       	sbiw	r24, 0x00	; 0
     9ba:	11 f4       	brne	.+4      	; 0x9c0 <__stack+0x161>
     9bc:	81 e0       	ldi	r24, 0x01	; 1
     9be:	89 83       	std	Y+1, r24	; 0x01

	*_byte = byte;
     9c0:	ed 81       	ldd	r30, Y+5	; 0x05
     9c2:	fe 81       	ldd	r31, Y+6	; 0x06
     9c4:	8a 81       	ldd	r24, Y+2	; 0x02
     9c6:	80 83       	st	Z, r24

	return eoi;
     9c8:	89 81       	ldd	r24, Y+1	; 0x01
     9ca:	8f 83       	std	Y+7, r24	; 0x07
     9cc:	8f 81       	ldd	r24, Y+7	; 0x07
}
     9ce:	27 96       	adiw	r28, 0x07	; 7
     9d0:	0f b6       	in	r0, 0x3f	; 63
     9d2:	f8 94       	cli
     9d4:	de bf       	out	0x3e, r29	; 62
     9d6:	0f be       	out	0x3f, r0	; 63
     9d8:	cd bf       	out	0x3d, r28	; 61
     9da:	cf 91       	pop	r28
     9dc:	df 91       	pop	r29
     9de:	08 95       	ret

000009e0 <gpib_controller_assign>:
 * You have to change the initialization of the partner array according to your environment.
 * The partners-array is used by gpib_serial_poll() for looping over all existing devices.
 * 
 * \param address the address to be used by the controller. Usually 0x00.
 */
void gpib_controller_assign(uchar address) {
     9e0:	df 93       	push	r29
     9e2:	cf 93       	push	r28
     9e4:	0f 92       	push	r0
     9e6:	cd b7       	in	r28, 0x3d	; 61
     9e8:	de b7       	in	r29, 0x3e	; 62
     9ea:	89 83       	std	Y+1, r24	; 0x01
	controller.myaddress = address;
     9ec:	89 81       	ldd	r24, Y+1	; 0x01
     9ee:	80 93 8c 04 	sts	0x048C, r24
	controller.talks = 0;
     9f2:	10 92 8f 04 	sts	0x048F, r1
	controller.partner.primary = ADDRESS_NOT_SET; // init default active partner
     9f6:	8f ef       	ldi	r24, 0xFF	; 255
     9f8:	80 93 8d 04 	sts	0x048D, r24
	controller.partner.secondary = ADDRESS_NOT_SET;
     9fc:	8f ef       	ldi	r24, 0xFF	; 255
     9fe:	80 93 8e 04 	sts	0x048E, r24
	controller.flavour = FLAVOUR_NONE;
     a02:	10 92 90 04 	sts	0x0490, r1
	/** clear list of partners */
	gpib_clear_partners();
     a06:	0e 94 f4 0a 	call	0x15e8	; 0x15e8 <gpib_clear_partners>
	// set up initial state of bus
	assign_bit(DDRB, PORTB, G_IFC);
     a0a:	a8 e3       	ldi	r26, 0x38	; 56
     a0c:	b0 e0       	ldi	r27, 0x00	; 0
     a0e:	e8 e3       	ldi	r30, 0x38	; 56
     a10:	f0 e0       	ldi	r31, 0x00	; 0
     a12:	80 81       	ld	r24, Z
     a14:	8e 7f       	andi	r24, 0xFE	; 254
     a16:	8c 93       	st	X, r24
     a18:	a7 e3       	ldi	r26, 0x37	; 55
     a1a:	b0 e0       	ldi	r27, 0x00	; 0
     a1c:	e7 e3       	ldi	r30, 0x37	; 55
     a1e:	f0 e0       	ldi	r31, 0x00	; 0
     a20:	80 81       	ld	r24, Z
     a22:	81 60       	ori	r24, 0x01	; 1
     a24:	8c 93       	st	X, r24
     a26:	a8 e3       	ldi	r26, 0x38	; 56
     a28:	b0 e0       	ldi	r27, 0x00	; 0
     a2a:	e8 e3       	ldi	r30, 0x38	; 56
     a2c:	f0 e0       	ldi	r31, 0x00	; 0
     a2e:	80 81       	ld	r24, Z
     a30:	8e 7f       	andi	r24, 0xFE	; 254
     a32:	8c 93       	st	X, r24
	delay_ms(200);
     a34:	88 ec       	ldi	r24, 0xC8	; 200
     a36:	90 e0       	ldi	r25, 0x00	; 0
     a38:	0e 94 7b 03 	call	0x6f6	; 0x6f6 <delay_ms>
	release_bit(DDRB, PORTB, G_IFC);
     a3c:	a7 e3       	ldi	r26, 0x37	; 55
     a3e:	b0 e0       	ldi	r27, 0x00	; 0
     a40:	e7 e3       	ldi	r30, 0x37	; 55
     a42:	f0 e0       	ldi	r31, 0x00	; 0
     a44:	80 81       	ld	r24, Z
     a46:	8e 7f       	andi	r24, 0xFE	; 254
     a48:	8c 93       	st	X, r24
     a4a:	a8 e3       	ldi	r26, 0x38	; 56
     a4c:	b0 e0       	ldi	r27, 0x00	; 0
     a4e:	e8 e3       	ldi	r30, 0x38	; 56
     a50:	f0 e0       	ldi	r31, 0x00	; 0
     a52:	80 81       	ld	r24, Z
     a54:	81 60       	ori	r24, 0x01	; 1
     a56:	8c 93       	st	X, r24
	// set up all devices for remote control
	assign_bit(DDRB, PORTB, G_REN);
     a58:	a8 e3       	ldi	r26, 0x38	; 56
     a5a:	b0 e0       	ldi	r27, 0x00	; 0
     a5c:	e8 e3       	ldi	r30, 0x38	; 56
     a5e:	f0 e0       	ldi	r31, 0x00	; 0
     a60:	80 81       	ld	r24, Z
     a62:	8d 7f       	andi	r24, 0xFD	; 253
     a64:	8c 93       	st	X, r24
     a66:	a7 e3       	ldi	r26, 0x37	; 55
     a68:	b0 e0       	ldi	r27, 0x00	; 0
     a6a:	e7 e3       	ldi	r30, 0x37	; 55
     a6c:	f0 e0       	ldi	r31, 0x00	; 0
     a6e:	80 81       	ld	r24, Z
     a70:	82 60       	ori	r24, 0x02	; 2
     a72:	8c 93       	st	X, r24
     a74:	a8 e3       	ldi	r26, 0x38	; 56
     a76:	b0 e0       	ldi	r27, 0x00	; 0
     a78:	e8 e3       	ldi	r30, 0x38	; 56
     a7a:	f0 e0       	ldi	r31, 0x00	; 0
     a7c:	80 81       	ld	r24, Z
     a7e:	8d 7f       	andi	r24, 0xFD	; 253
     a80:	8c 93       	st	X, r24

	// DCL - device clear for all devices on bus
	cmd_buf[0] = G_CMD_DCL;
     a82:	84 e1       	ldi	r24, 0x14	; 20
     a84:	80 93 e2 04 	sts	0x04E2, r24
	gpib_cmd(cmd_buf, 1);
     a88:	82 ee       	ldi	r24, 0xE2	; 226
     a8a:	94 e0       	ldi	r25, 0x04	; 4
     a8c:	61 e0       	ldi	r22, 0x01	; 1
     a8e:	70 e0       	ldi	r23, 0x00	; 0
     a90:	0e 94 a3 05 	call	0xb46	; 0xb46 <gpib_cmd>
}
     a94:	0f 90       	pop	r0
     a96:	cf 91       	pop	r28
     a98:	df 91       	pop	r29
     a9a:	08 95       	ret

00000a9c <gpib_controller_release>:

/**
 * Release bus 
 */
void gpib_controller_release(void) {
     a9c:	df 93       	push	r29
     a9e:	cf 93       	push	r28
     aa0:	cd b7       	in	r28, 0x3d	; 61
     aa2:	de b7       	in	r29, 0x3e	; 62
	// set up initial state of bus
	assign_bit(DDRB, PORTB, G_IFC);
     aa4:	a8 e3       	ldi	r26, 0x38	; 56
     aa6:	b0 e0       	ldi	r27, 0x00	; 0
     aa8:	e8 e3       	ldi	r30, 0x38	; 56
     aaa:	f0 e0       	ldi	r31, 0x00	; 0
     aac:	80 81       	ld	r24, Z
     aae:	8e 7f       	andi	r24, 0xFE	; 254
     ab0:	8c 93       	st	X, r24
     ab2:	a7 e3       	ldi	r26, 0x37	; 55
     ab4:	b0 e0       	ldi	r27, 0x00	; 0
     ab6:	e7 e3       	ldi	r30, 0x37	; 55
     ab8:	f0 e0       	ldi	r31, 0x00	; 0
     aba:	80 81       	ld	r24, Z
     abc:	81 60       	ori	r24, 0x01	; 1
     abe:	8c 93       	st	X, r24
     ac0:	a8 e3       	ldi	r26, 0x38	; 56
     ac2:	b0 e0       	ldi	r27, 0x00	; 0
     ac4:	e8 e3       	ldi	r30, 0x38	; 56
     ac6:	f0 e0       	ldi	r31, 0x00	; 0
     ac8:	80 81       	ld	r24, Z
     aca:	8e 7f       	andi	r24, 0xFE	; 254
     acc:	8c 93       	st	X, r24
	delay_ms(200);
     ace:	88 ec       	ldi	r24, 0xC8	; 200
     ad0:	90 e0       	ldi	r25, 0x00	; 0
     ad2:	0e 94 7b 03 	call	0x6f6	; 0x6f6 <delay_ms>
	release_bit(DDRB, PORTB, G_IFC);
     ad6:	a7 e3       	ldi	r26, 0x37	; 55
     ad8:	b0 e0       	ldi	r27, 0x00	; 0
     ada:	e7 e3       	ldi	r30, 0x37	; 55
     adc:	f0 e0       	ldi	r31, 0x00	; 0
     ade:	80 81       	ld	r24, Z
     ae0:	8e 7f       	andi	r24, 0xFE	; 254
     ae2:	8c 93       	st	X, r24
     ae4:	a8 e3       	ldi	r26, 0x38	; 56
     ae6:	b0 e0       	ldi	r27, 0x00	; 0
     ae8:	e8 e3       	ldi	r30, 0x38	; 56
     aea:	f0 e0       	ldi	r31, 0x00	; 0
     aec:	80 81       	ld	r24, Z
     aee:	81 60       	ori	r24, 0x01	; 1
     af0:	8c 93       	st	X, r24
	// set up all devices for local control
	release_bit(DDRB, PORTB, G_REN);
     af2:	a7 e3       	ldi	r26, 0x37	; 55
     af4:	b0 e0       	ldi	r27, 0x00	; 0
     af6:	e7 e3       	ldi	r30, 0x37	; 55
     af8:	f0 e0       	ldi	r31, 0x00	; 0
     afa:	80 81       	ld	r24, Z
     afc:	8d 7f       	andi	r24, 0xFD	; 253
     afe:	8c 93       	st	X, r24
     b00:	a8 e3       	ldi	r26, 0x38	; 56
     b02:	b0 e0       	ldi	r27, 0x00	; 0
     b04:	e8 e3       	ldi	r30, 0x38	; 56
     b06:	f0 e0       	ldi	r31, 0x00	; 0
     b08:	80 81       	ld	r24, Z
     b0a:	82 60       	ori	r24, 0x02	; 2
     b0c:	8c 93       	st	X, r24
}
     b0e:	cf 91       	pop	r28
     b10:	df 91       	pop	r29
     b12:	08 95       	ret

00000b14 <gpib_write>:

/**
 * Write GPIB string to bus
 * \brief See _gpib_write() for further information.
 */
uchar gpib_write(uchar *bytes, int length) {
     b14:	df 93       	push	r29
     b16:	cf 93       	push	r28
     b18:	00 d0       	rcall	.+0      	; 0xb1a <gpib_write+0x6>
     b1a:	00 d0       	rcall	.+0      	; 0xb1c <gpib_write+0x8>
     b1c:	cd b7       	in	r28, 0x3d	; 61
     b1e:	de b7       	in	r29, 0x3e	; 62
     b20:	9a 83       	std	Y+2, r25	; 0x02
     b22:	89 83       	std	Y+1, r24	; 0x01
     b24:	7c 83       	std	Y+4, r23	; 0x04
     b26:	6b 83       	std	Y+3, r22	; 0x03
	// set attention arg false for ordinary strings
	return _gpib_write(bytes, length, (uchar) 0);
     b28:	89 81       	ldd	r24, Y+1	; 0x01
     b2a:	9a 81       	ldd	r25, Y+2	; 0x02
     b2c:	2b 81       	ldd	r18, Y+3	; 0x03
     b2e:	3c 81       	ldd	r19, Y+4	; 0x04
     b30:	b9 01       	movw	r22, r18
     b32:	40 e0       	ldi	r20, 0x00	; 0
     b34:	0e 94 bc 05 	call	0xb78	; 0xb78 <_gpib_write>
}
     b38:	0f 90       	pop	r0
     b3a:	0f 90       	pop	r0
     b3c:	0f 90       	pop	r0
     b3e:	0f 90       	pop	r0
     b40:	cf 91       	pop	r28
     b42:	df 91       	pop	r29
     b44:	08 95       	ret

00000b46 <gpib_cmd>:

/**
 * Write GPIB command to bus
 * \brief See _gpib_write() for further information.
 */
uchar gpib_cmd(uchar *bytes, int length) {
     b46:	df 93       	push	r29
     b48:	cf 93       	push	r28
     b4a:	00 d0       	rcall	.+0      	; 0xb4c <gpib_cmd+0x6>
     b4c:	00 d0       	rcall	.+0      	; 0xb4e <gpib_cmd+0x8>
     b4e:	cd b7       	in	r28, 0x3d	; 61
     b50:	de b7       	in	r29, 0x3e	; 62
     b52:	9a 83       	std	Y+2, r25	; 0x02
     b54:	89 83       	std	Y+1, r24	; 0x01
     b56:	7c 83       	std	Y+4, r23	; 0x04
     b58:	6b 83       	std	Y+3, r22	; 0x03
	// set attention arg true for commands
	return _gpib_write(bytes, length, (uchar) 1);
     b5a:	89 81       	ldd	r24, Y+1	; 0x01
     b5c:	9a 81       	ldd	r25, Y+2	; 0x02
     b5e:	2b 81       	ldd	r18, Y+3	; 0x03
     b60:	3c 81       	ldd	r19, Y+4	; 0x04
     b62:	b9 01       	movw	r22, r18
     b64:	41 e0       	ldi	r20, 0x01	; 1
     b66:	0e 94 bc 05 	call	0xb78	; 0xb78 <_gpib_write>
}
     b6a:	0f 90       	pop	r0
     b6c:	0f 90       	pop	r0
     b6e:	0f 90       	pop	r0
     b70:	0f 90       	pop	r0
     b72:	cf 91       	pop	r28
     b74:	df 91       	pop	r29
     b76:	08 95       	ret

00000b78 <_gpib_write>:
 * \param length length of valid bytes in byte array or zero.
 * for binary data, lenght must be defined. For strings, length can be set to zero. Then the length of
 * the string is calculated internally.
 * \param attention attention tur means assign ATN signal line during write.
 */
uchar _gpib_write(uchar *bytes, int length, uchar attention) {
     b78:	df 93       	push	r29
     b7a:	cf 93       	push	r28
     b7c:	cd b7       	in	r28, 0x3d	; 61
     b7e:	de b7       	in	r29, 0x3e	; 62
     b80:	2b 97       	sbiw	r28, 0x0b	; 11
     b82:	0f b6       	in	r0, 0x3f	; 63
     b84:	f8 94       	cli
     b86:	de bf       	out	0x3e, r29	; 62
     b88:	0f be       	out	0x3f, r0	; 63
     b8a:	cd bf       	out	0x3d, r28	; 61
     b8c:	9f 83       	std	Y+7, r25	; 0x07
     b8e:	8e 83       	std	Y+6, r24	; 0x06
     b90:	79 87       	std	Y+9, r23	; 0x09
     b92:	68 87       	std	Y+8, r22	; 0x08
     b94:	4a 87       	std	Y+10, r20	; 0x0a
	int timeout;
	//uchar buf[64];

	// set talks state. This is used by ISR to recognize own talk
	// (controller must not talk to itself and must not take part in listener handshake when talking)
	controller.talks = 1;
     b96:	81 e0       	ldi	r24, 0x01	; 1
     b98:	80 93 8f 04 	sts	0x048F, r24

	if (attention) {
     b9c:	8a 85       	ldd	r24, Y+10	; 0x0a
     b9e:	88 23       	and	r24, r24
     ba0:	a9 f0       	breq	.+42     	; 0xbcc <_gpib_write+0x54>
		//uart_puts("\n\rgpib_controller_write()\n\r");
		// assign ATN for commands
		assign_bit(DDRD, PORTD, G_ATN);
     ba2:	a2 e3       	ldi	r26, 0x32	; 50
     ba4:	b0 e0       	ldi	r27, 0x00	; 0
     ba6:	e2 e3       	ldi	r30, 0x32	; 50
     ba8:	f0 e0       	ldi	r31, 0x00	; 0
     baa:	80 81       	ld	r24, Z
     bac:	8f 77       	andi	r24, 0x7F	; 127
     bae:	8c 93       	st	X, r24
     bb0:	a1 e3       	ldi	r26, 0x31	; 49
     bb2:	b0 e0       	ldi	r27, 0x00	; 0
     bb4:	e1 e3       	ldi	r30, 0x31	; 49
     bb6:	f0 e0       	ldi	r31, 0x00	; 0
     bb8:	80 81       	ld	r24, Z
     bba:	80 68       	ori	r24, 0x80	; 128
     bbc:	8c 93       	st	X, r24
     bbe:	a2 e3       	ldi	r26, 0x32	; 50
     bc0:	b0 e0       	ldi	r27, 0x00	; 0
     bc2:	e2 e3       	ldi	r30, 0x32	; 50
     bc4:	f0 e0       	ldi	r31, 0x00	; 0
     bc6:	80 81       	ld	r24, Z
     bc8:	8f 77       	andi	r24, 0x7F	; 127
     bca:	8c 93       	st	X, r24
	}

	if (length == 0) {
     bcc:	88 85       	ldd	r24, Y+8	; 0x08
     bce:	99 85       	ldd	r25, Y+9	; 0x09
     bd0:	00 97       	sbiw	r24, 0x00	; 0
     bd2:	31 f4       	brne	.+12     	; 0xbe0 <_gpib_write+0x68>
		// length==0 means this is a common C string, null-terminated.
		// then, length can be easily calculated
		length = strlen((char*) bytes);
     bd4:	8e 81       	ldd	r24, Y+6	; 0x06
     bd6:	9f 81       	ldd	r25, Y+7	; 0x07
     bd8:	0e 94 97 00 	call	0x12e	; 0x12e <strlen>
     bdc:	99 87       	std	Y+9, r25	; 0x09
     bde:	88 87       	std	Y+8, r24	; 0x08
	//	else 
	//		sprintf( buf, "gpib_write: 0x%02x\n\r", bytes[0] );
	//	uart_puts((char*)buf);

	// release EOI during transmission
	release_bit(DDRD, PORTD, G_EOI);
     be0:	a1 e3       	ldi	r26, 0x31	; 49
     be2:	b0 e0       	ldi	r27, 0x00	; 0
     be4:	e1 e3       	ldi	r30, 0x31	; 49
     be6:	f0 e0       	ldi	r31, 0x00	; 0
     be8:	80 81       	ld	r24, Z
     bea:	8f 7e       	andi	r24, 0xEF	; 239
     bec:	8c 93       	st	X, r24
     bee:	a2 e3       	ldi	r26, 0x32	; 50
     bf0:	b0 e0       	ldi	r27, 0x00	; 0
     bf2:	e2 e3       	ldi	r30, 0x32	; 50
     bf4:	f0 e0       	ldi	r31, 0x00	; 0
     bf6:	80 81       	ld	r24, Z
     bf8:	80 61       	ori	r24, 0x10	; 16
     bfa:	8c 93       	st	X, r24
	// release DAV, data not valid anymore
	release_bit(DDRD, PORTD, G_DAV);
     bfc:	a1 e3       	ldi	r26, 0x31	; 49
     bfe:	b0 e0       	ldi	r27, 0x00	; 0
     c00:	e1 e3       	ldi	r30, 0x31	; 49
     c02:	f0 e0       	ldi	r31, 0x00	; 0
     c04:	80 81       	ld	r24, Z
     c06:	8b 7f       	andi	r24, 0xFB	; 251
     c08:	8c 93       	st	X, r24
     c0a:	a2 e3       	ldi	r26, 0x32	; 50
     c0c:	b0 e0       	ldi	r27, 0x00	; 0
     c0e:	e2 e3       	ldi	r30, 0x32	; 50
     c10:	f0 e0       	ldi	r31, 0x00	; 0
     c12:	80 81       	ld	r24, Z
     c14:	84 60       	ori	r24, 0x04	; 4
     c16:	8c 93       	st	X, r24
	// release NRFD (just to be sure)
	release_bit(DDRD, PORTD, G_NRFD);
     c18:	a1 e3       	ldi	r26, 0x31	; 49
     c1a:	b0 e0       	ldi	r27, 0x00	; 0
     c1c:	e1 e3       	ldi	r30, 0x31	; 49
     c1e:	f0 e0       	ldi	r31, 0x00	; 0
     c20:	80 81       	ld	r24, Z
     c22:	87 7f       	andi	r24, 0xF7	; 247
     c24:	8c 93       	st	X, r24
     c26:	a2 e3       	ldi	r26, 0x32	; 50
     c28:	b0 e0       	ldi	r27, 0x00	; 0
     c2a:	e2 e3       	ldi	r30, 0x32	; 50
     c2c:	f0 e0       	ldi	r31, 0x00	; 0
     c2e:	80 81       	ld	r24, Z
     c30:	88 60       	ori	r24, 0x08	; 8
     c32:	8c 93       	st	X, r24

	// bytes[0] = 'a'
	// bytes[1] = 'b'
	// length = 2
	for (i = 0; i < length; i++) {
     c34:	1c 82       	std	Y+4, r1	; 0x04
     c36:	1b 82       	std	Y+3, r1	; 0x03
     c38:	34 c2       	rjmp	.+1128   	; 0x10a2 <_gpib_write+0x52a>

		// put data on bus
		c = bytes[i];
     c3a:	2b 81       	ldd	r18, Y+3	; 0x03
     c3c:	3c 81       	ldd	r19, Y+4	; 0x04
     c3e:	8e 81       	ldd	r24, Y+6	; 0x06
     c40:	9f 81       	ldd	r25, Y+7	; 0x07
     c42:	fc 01       	movw	r30, r24
     c44:	e2 0f       	add	r30, r18
     c46:	f3 1f       	adc	r31, r19
     c48:	80 81       	ld	r24, Z
     c4a:	8d 83       	std	Y+5, r24	; 0x05
		//sprintf( buf, "char: %c\n\r", c );
		//uart_puts(buf);		

		release_bit(DDRD, PORTD, G_NDAC);
     c4c:	a1 e3       	ldi	r26, 0x31	; 49
     c4e:	b0 e0       	ldi	r27, 0x00	; 0
     c50:	e1 e3       	ldi	r30, 0x31	; 49
     c52:	f0 e0       	ldi	r31, 0x00	; 0
     c54:	80 81       	ld	r24, Z
     c56:	8f 7d       	andi	r24, 0xDF	; 223
     c58:	8c 93       	st	X, r24
     c5a:	a2 e3       	ldi	r26, 0x32	; 50
     c5c:	b0 e0       	ldi	r27, 0x00	; 0
     c5e:	e2 e3       	ldi	r30, 0x32	; 50
     c60:	f0 e0       	ldi	r31, 0x00	; 0
     c62:	80 81       	ld	r24, Z
     c64:	80 62       	ori	r24, 0x20	; 32
     c66:	8c 93       	st	X, r24
		//uart_puts("0");
		// wait for NDAC assign from all listeners
#ifdef WITH_TIMEOUT
		timeout = s + 5;
     c68:	80 91 97 05 	lds	r24, 0x0597
     c6c:	88 2f       	mov	r24, r24
     c6e:	90 e0       	ldi	r25, 0x00	; 0
     c70:	05 96       	adiw	r24, 0x05	; 5
     c72:	9a 83       	std	Y+2, r25	; 0x02
     c74:	89 83       	std	Y+1, r24	; 0x01
     c76:	10 c0       	rjmp	.+32     	; 0xc98 <_gpib_write+0x120>
		//gpib_info();
		while ((PIND & _BV(G_NDAC)) && (s <= timeout)) {
			if (s == timeout) {
     c78:	80 91 97 05 	lds	r24, 0x0597
     c7c:	28 2f       	mov	r18, r24
     c7e:	30 e0       	ldi	r19, 0x00	; 0
     c80:	89 81       	ldd	r24, Y+1	; 0x01
     c82:	9a 81       	ldd	r25, Y+2	; 0x02
     c84:	28 17       	cp	r18, r24
     c86:	39 07       	cpc	r19, r25
     c88:	39 f4       	brne	.+14     	; 0xc98 <_gpib_write+0x120>
				uart_puts("\n\rError: NDAC timeout\n\r");
     c8a:	86 e9       	ldi	r24, 0x96	; 150
     c8c:	90 e0       	ldi	r25, 0x00	; 0
     c8e:	0e 94 3b 11 	call	0x2276	; 0x2276 <uart_puts>
				return 0xff;
     c92:	8f ef       	ldi	r24, 0xFF	; 255
     c94:	8b 87       	std	Y+11, r24	; 0x0b
     c96:	21 c2       	rjmp	.+1090   	; 0x10da <_gpib_write+0x562>
		//uart_puts("0");
		// wait for NDAC assign from all listeners
#ifdef WITH_TIMEOUT
		timeout = s + 5;
		//gpib_info();
		while ((PIND & _BV(G_NDAC)) && (s <= timeout)) {
     c98:	e0 e3       	ldi	r30, 0x30	; 48
     c9a:	f0 e0       	ldi	r31, 0x00	; 0
     c9c:	80 81       	ld	r24, Z
     c9e:	88 2f       	mov	r24, r24
     ca0:	90 e0       	ldi	r25, 0x00	; 0
     ca2:	80 72       	andi	r24, 0x20	; 32
     ca4:	90 70       	andi	r25, 0x00	; 0
     ca6:	00 97       	sbiw	r24, 0x00	; 0
     ca8:	49 f0       	breq	.+18     	; 0xcbc <_gpib_write+0x144>
     caa:	80 91 97 05 	lds	r24, 0x0597
     cae:	28 2f       	mov	r18, r24
     cb0:	30 e0       	ldi	r19, 0x00	; 0
     cb2:	89 81       	ldd	r24, Y+1	; 0x01
     cb4:	9a 81       	ldd	r25, Y+2	; 0x02
     cb6:	82 17       	cp	r24, r18
     cb8:	93 07       	cpc	r25, r19
     cba:	f4 f6       	brge	.-68     	; 0xc78 <_gpib_write+0x100>
		}
#else
		loop_until_bit_is_clear(PIND,G_NDAC);
#endif

		DDRA = 0x00;
     cbc:	ea e3       	ldi	r30, 0x3A	; 58
     cbe:	f0 e0       	ldi	r31, 0x00	; 0
     cc0:	10 82       	st	Z, r1
		if (c & 0x01) {
     cc2:	8d 81       	ldd	r24, Y+5	; 0x05
     cc4:	88 2f       	mov	r24, r24
     cc6:	90 e0       	ldi	r25, 0x00	; 0
     cc8:	81 70       	andi	r24, 0x01	; 1
     cca:	90 70       	andi	r25, 0x00	; 0
     ccc:	88 23       	and	r24, r24
     cce:	b1 f0       	breq	.+44     	; 0xcfc <_gpib_write+0x184>
			assign_bit(DDRA, PORTA, PA0);
     cd0:	ab e3       	ldi	r26, 0x3B	; 59
     cd2:	b0 e0       	ldi	r27, 0x00	; 0
     cd4:	eb e3       	ldi	r30, 0x3B	; 59
     cd6:	f0 e0       	ldi	r31, 0x00	; 0
     cd8:	80 81       	ld	r24, Z
     cda:	8e 7f       	andi	r24, 0xFE	; 254
     cdc:	8c 93       	st	X, r24
     cde:	aa e3       	ldi	r26, 0x3A	; 58
     ce0:	b0 e0       	ldi	r27, 0x00	; 0
     ce2:	ea e3       	ldi	r30, 0x3A	; 58
     ce4:	f0 e0       	ldi	r31, 0x00	; 0
     ce6:	80 81       	ld	r24, Z
     ce8:	81 60       	ori	r24, 0x01	; 1
     cea:	8c 93       	st	X, r24
     cec:	ab e3       	ldi	r26, 0x3B	; 59
     cee:	b0 e0       	ldi	r27, 0x00	; 0
     cf0:	eb e3       	ldi	r30, 0x3B	; 59
     cf2:	f0 e0       	ldi	r31, 0x00	; 0
     cf4:	80 81       	ld	r24, Z
     cf6:	8e 7f       	andi	r24, 0xFE	; 254
     cf8:	8c 93       	st	X, r24
     cfa:	0e c0       	rjmp	.+28     	; 0xd18 <_gpib_write+0x1a0>
		} else {
			release_bit(DDRA, PORTA, PA0)
     cfc:	aa e3       	ldi	r26, 0x3A	; 58
     cfe:	b0 e0       	ldi	r27, 0x00	; 0
     d00:	ea e3       	ldi	r30, 0x3A	; 58
     d02:	f0 e0       	ldi	r31, 0x00	; 0
     d04:	80 81       	ld	r24, Z
     d06:	8e 7f       	andi	r24, 0xFE	; 254
     d08:	8c 93       	st	X, r24
     d0a:	ab e3       	ldi	r26, 0x3B	; 59
     d0c:	b0 e0       	ldi	r27, 0x00	; 0
     d0e:	eb e3       	ldi	r30, 0x3B	; 59
     d10:	f0 e0       	ldi	r31, 0x00	; 0
     d12:	80 81       	ld	r24, Z
     d14:	81 60       	ori	r24, 0x01	; 1
     d16:	8c 93       	st	X, r24
		}

		if (c & 0x02) {
     d18:	8d 81       	ldd	r24, Y+5	; 0x05
     d1a:	88 2f       	mov	r24, r24
     d1c:	90 e0       	ldi	r25, 0x00	; 0
     d1e:	82 70       	andi	r24, 0x02	; 2
     d20:	90 70       	andi	r25, 0x00	; 0
     d22:	00 97       	sbiw	r24, 0x00	; 0
     d24:	b1 f0       	breq	.+44     	; 0xd52 <_gpib_write+0x1da>
			assign_bit(DDRA, PORTA, PA1)
     d26:	ab e3       	ldi	r26, 0x3B	; 59
     d28:	b0 e0       	ldi	r27, 0x00	; 0
     d2a:	eb e3       	ldi	r30, 0x3B	; 59
     d2c:	f0 e0       	ldi	r31, 0x00	; 0
     d2e:	80 81       	ld	r24, Z
     d30:	8d 7f       	andi	r24, 0xFD	; 253
     d32:	8c 93       	st	X, r24
     d34:	aa e3       	ldi	r26, 0x3A	; 58
     d36:	b0 e0       	ldi	r27, 0x00	; 0
     d38:	ea e3       	ldi	r30, 0x3A	; 58
     d3a:	f0 e0       	ldi	r31, 0x00	; 0
     d3c:	80 81       	ld	r24, Z
     d3e:	82 60       	ori	r24, 0x02	; 2
     d40:	8c 93       	st	X, r24
     d42:	ab e3       	ldi	r26, 0x3B	; 59
     d44:	b0 e0       	ldi	r27, 0x00	; 0
     d46:	eb e3       	ldi	r30, 0x3B	; 59
     d48:	f0 e0       	ldi	r31, 0x00	; 0
     d4a:	80 81       	ld	r24, Z
     d4c:	8d 7f       	andi	r24, 0xFD	; 253
     d4e:	8c 93       	st	X, r24
     d50:	0e c0       	rjmp	.+28     	; 0xd6e <_gpib_write+0x1f6>
		} else {
			release_bit(DDRA, PORTA, PA1);
     d52:	aa e3       	ldi	r26, 0x3A	; 58
     d54:	b0 e0       	ldi	r27, 0x00	; 0
     d56:	ea e3       	ldi	r30, 0x3A	; 58
     d58:	f0 e0       	ldi	r31, 0x00	; 0
     d5a:	80 81       	ld	r24, Z
     d5c:	8d 7f       	andi	r24, 0xFD	; 253
     d5e:	8c 93       	st	X, r24
     d60:	ab e3       	ldi	r26, 0x3B	; 59
     d62:	b0 e0       	ldi	r27, 0x00	; 0
     d64:	eb e3       	ldi	r30, 0x3B	; 59
     d66:	f0 e0       	ldi	r31, 0x00	; 0
     d68:	80 81       	ld	r24, Z
     d6a:	82 60       	ori	r24, 0x02	; 2
     d6c:	8c 93       	st	X, r24
		}

		if (c & 0x04) {
     d6e:	8d 81       	ldd	r24, Y+5	; 0x05
     d70:	88 2f       	mov	r24, r24
     d72:	90 e0       	ldi	r25, 0x00	; 0
     d74:	84 70       	andi	r24, 0x04	; 4
     d76:	90 70       	andi	r25, 0x00	; 0
     d78:	00 97       	sbiw	r24, 0x00	; 0
     d7a:	b1 f0       	breq	.+44     	; 0xda8 <_gpib_write+0x230>
			assign_bit(DDRA, PORTA, PA2);
     d7c:	ab e3       	ldi	r26, 0x3B	; 59
     d7e:	b0 e0       	ldi	r27, 0x00	; 0
     d80:	eb e3       	ldi	r30, 0x3B	; 59
     d82:	f0 e0       	ldi	r31, 0x00	; 0
     d84:	80 81       	ld	r24, Z
     d86:	8b 7f       	andi	r24, 0xFB	; 251
     d88:	8c 93       	st	X, r24
     d8a:	aa e3       	ldi	r26, 0x3A	; 58
     d8c:	b0 e0       	ldi	r27, 0x00	; 0
     d8e:	ea e3       	ldi	r30, 0x3A	; 58
     d90:	f0 e0       	ldi	r31, 0x00	; 0
     d92:	80 81       	ld	r24, Z
     d94:	84 60       	ori	r24, 0x04	; 4
     d96:	8c 93       	st	X, r24
     d98:	ab e3       	ldi	r26, 0x3B	; 59
     d9a:	b0 e0       	ldi	r27, 0x00	; 0
     d9c:	eb e3       	ldi	r30, 0x3B	; 59
     d9e:	f0 e0       	ldi	r31, 0x00	; 0
     da0:	80 81       	ld	r24, Z
     da2:	8b 7f       	andi	r24, 0xFB	; 251
     da4:	8c 93       	st	X, r24
     da6:	0e c0       	rjmp	.+28     	; 0xdc4 <_gpib_write+0x24c>
		} else {
			release_bit(DDRA, PORTA, PA2);
     da8:	aa e3       	ldi	r26, 0x3A	; 58
     daa:	b0 e0       	ldi	r27, 0x00	; 0
     dac:	ea e3       	ldi	r30, 0x3A	; 58
     dae:	f0 e0       	ldi	r31, 0x00	; 0
     db0:	80 81       	ld	r24, Z
     db2:	8b 7f       	andi	r24, 0xFB	; 251
     db4:	8c 93       	st	X, r24
     db6:	ab e3       	ldi	r26, 0x3B	; 59
     db8:	b0 e0       	ldi	r27, 0x00	; 0
     dba:	eb e3       	ldi	r30, 0x3B	; 59
     dbc:	f0 e0       	ldi	r31, 0x00	; 0
     dbe:	80 81       	ld	r24, Z
     dc0:	84 60       	ori	r24, 0x04	; 4
     dc2:	8c 93       	st	X, r24
		}

		if (c & 0x08) {
     dc4:	8d 81       	ldd	r24, Y+5	; 0x05
     dc6:	88 2f       	mov	r24, r24
     dc8:	90 e0       	ldi	r25, 0x00	; 0
     dca:	88 70       	andi	r24, 0x08	; 8
     dcc:	90 70       	andi	r25, 0x00	; 0
     dce:	00 97       	sbiw	r24, 0x00	; 0
     dd0:	b1 f0       	breq	.+44     	; 0xdfe <_gpib_write+0x286>
			assign_bit(DDRA, PORTA, PA3);
     dd2:	ab e3       	ldi	r26, 0x3B	; 59
     dd4:	b0 e0       	ldi	r27, 0x00	; 0
     dd6:	eb e3       	ldi	r30, 0x3B	; 59
     dd8:	f0 e0       	ldi	r31, 0x00	; 0
     dda:	80 81       	ld	r24, Z
     ddc:	87 7f       	andi	r24, 0xF7	; 247
     dde:	8c 93       	st	X, r24
     de0:	aa e3       	ldi	r26, 0x3A	; 58
     de2:	b0 e0       	ldi	r27, 0x00	; 0
     de4:	ea e3       	ldi	r30, 0x3A	; 58
     de6:	f0 e0       	ldi	r31, 0x00	; 0
     de8:	80 81       	ld	r24, Z
     dea:	88 60       	ori	r24, 0x08	; 8
     dec:	8c 93       	st	X, r24
     dee:	ab e3       	ldi	r26, 0x3B	; 59
     df0:	b0 e0       	ldi	r27, 0x00	; 0
     df2:	eb e3       	ldi	r30, 0x3B	; 59
     df4:	f0 e0       	ldi	r31, 0x00	; 0
     df6:	80 81       	ld	r24, Z
     df8:	87 7f       	andi	r24, 0xF7	; 247
     dfa:	8c 93       	st	X, r24
     dfc:	0e c0       	rjmp	.+28     	; 0xe1a <_gpib_write+0x2a2>
		} else {
			release_bit(DDRA, PORTA, PA3);
     dfe:	aa e3       	ldi	r26, 0x3A	; 58
     e00:	b0 e0       	ldi	r27, 0x00	; 0
     e02:	ea e3       	ldi	r30, 0x3A	; 58
     e04:	f0 e0       	ldi	r31, 0x00	; 0
     e06:	80 81       	ld	r24, Z
     e08:	87 7f       	andi	r24, 0xF7	; 247
     e0a:	8c 93       	st	X, r24
     e0c:	ab e3       	ldi	r26, 0x3B	; 59
     e0e:	b0 e0       	ldi	r27, 0x00	; 0
     e10:	eb e3       	ldi	r30, 0x3B	; 59
     e12:	f0 e0       	ldi	r31, 0x00	; 0
     e14:	80 81       	ld	r24, Z
     e16:	88 60       	ori	r24, 0x08	; 8
     e18:	8c 93       	st	X, r24
		}

		if (c & 0x10) {
     e1a:	8d 81       	ldd	r24, Y+5	; 0x05
     e1c:	88 2f       	mov	r24, r24
     e1e:	90 e0       	ldi	r25, 0x00	; 0
     e20:	80 71       	andi	r24, 0x10	; 16
     e22:	90 70       	andi	r25, 0x00	; 0
     e24:	00 97       	sbiw	r24, 0x00	; 0
     e26:	b1 f0       	breq	.+44     	; 0xe54 <_gpib_write+0x2dc>
			assign_bit(DDRA, PORTA, PA4);
     e28:	ab e3       	ldi	r26, 0x3B	; 59
     e2a:	b0 e0       	ldi	r27, 0x00	; 0
     e2c:	eb e3       	ldi	r30, 0x3B	; 59
     e2e:	f0 e0       	ldi	r31, 0x00	; 0
     e30:	80 81       	ld	r24, Z
     e32:	8f 7e       	andi	r24, 0xEF	; 239
     e34:	8c 93       	st	X, r24
     e36:	aa e3       	ldi	r26, 0x3A	; 58
     e38:	b0 e0       	ldi	r27, 0x00	; 0
     e3a:	ea e3       	ldi	r30, 0x3A	; 58
     e3c:	f0 e0       	ldi	r31, 0x00	; 0
     e3e:	80 81       	ld	r24, Z
     e40:	80 61       	ori	r24, 0x10	; 16
     e42:	8c 93       	st	X, r24
     e44:	ab e3       	ldi	r26, 0x3B	; 59
     e46:	b0 e0       	ldi	r27, 0x00	; 0
     e48:	eb e3       	ldi	r30, 0x3B	; 59
     e4a:	f0 e0       	ldi	r31, 0x00	; 0
     e4c:	80 81       	ld	r24, Z
     e4e:	8f 7e       	andi	r24, 0xEF	; 239
     e50:	8c 93       	st	X, r24
     e52:	0e c0       	rjmp	.+28     	; 0xe70 <_gpib_write+0x2f8>
		} else {
			release_bit(DDRA, PORTA, PA4);
     e54:	aa e3       	ldi	r26, 0x3A	; 58
     e56:	b0 e0       	ldi	r27, 0x00	; 0
     e58:	ea e3       	ldi	r30, 0x3A	; 58
     e5a:	f0 e0       	ldi	r31, 0x00	; 0
     e5c:	80 81       	ld	r24, Z
     e5e:	8f 7e       	andi	r24, 0xEF	; 239
     e60:	8c 93       	st	X, r24
     e62:	ab e3       	ldi	r26, 0x3B	; 59
     e64:	b0 e0       	ldi	r27, 0x00	; 0
     e66:	eb e3       	ldi	r30, 0x3B	; 59
     e68:	f0 e0       	ldi	r31, 0x00	; 0
     e6a:	80 81       	ld	r24, Z
     e6c:	80 61       	ori	r24, 0x10	; 16
     e6e:	8c 93       	st	X, r24
		}

		if (c & 0x20) {
     e70:	8d 81       	ldd	r24, Y+5	; 0x05
     e72:	88 2f       	mov	r24, r24
     e74:	90 e0       	ldi	r25, 0x00	; 0
     e76:	80 72       	andi	r24, 0x20	; 32
     e78:	90 70       	andi	r25, 0x00	; 0
     e7a:	00 97       	sbiw	r24, 0x00	; 0
     e7c:	b1 f0       	breq	.+44     	; 0xeaa <_gpib_write+0x332>
			assign_bit(DDRA, PORTA, PA5);
     e7e:	ab e3       	ldi	r26, 0x3B	; 59
     e80:	b0 e0       	ldi	r27, 0x00	; 0
     e82:	eb e3       	ldi	r30, 0x3B	; 59
     e84:	f0 e0       	ldi	r31, 0x00	; 0
     e86:	80 81       	ld	r24, Z
     e88:	8f 7d       	andi	r24, 0xDF	; 223
     e8a:	8c 93       	st	X, r24
     e8c:	aa e3       	ldi	r26, 0x3A	; 58
     e8e:	b0 e0       	ldi	r27, 0x00	; 0
     e90:	ea e3       	ldi	r30, 0x3A	; 58
     e92:	f0 e0       	ldi	r31, 0x00	; 0
     e94:	80 81       	ld	r24, Z
     e96:	80 62       	ori	r24, 0x20	; 32
     e98:	8c 93       	st	X, r24
     e9a:	ab e3       	ldi	r26, 0x3B	; 59
     e9c:	b0 e0       	ldi	r27, 0x00	; 0
     e9e:	eb e3       	ldi	r30, 0x3B	; 59
     ea0:	f0 e0       	ldi	r31, 0x00	; 0
     ea2:	80 81       	ld	r24, Z
     ea4:	8f 7d       	andi	r24, 0xDF	; 223
     ea6:	8c 93       	st	X, r24
     ea8:	0e c0       	rjmp	.+28     	; 0xec6 <_gpib_write+0x34e>
		} else {
			release_bit(DDRA, PORTA, PA5);
     eaa:	aa e3       	ldi	r26, 0x3A	; 58
     eac:	b0 e0       	ldi	r27, 0x00	; 0
     eae:	ea e3       	ldi	r30, 0x3A	; 58
     eb0:	f0 e0       	ldi	r31, 0x00	; 0
     eb2:	80 81       	ld	r24, Z
     eb4:	8f 7d       	andi	r24, 0xDF	; 223
     eb6:	8c 93       	st	X, r24
     eb8:	ab e3       	ldi	r26, 0x3B	; 59
     eba:	b0 e0       	ldi	r27, 0x00	; 0
     ebc:	eb e3       	ldi	r30, 0x3B	; 59
     ebe:	f0 e0       	ldi	r31, 0x00	; 0
     ec0:	80 81       	ld	r24, Z
     ec2:	80 62       	ori	r24, 0x20	; 32
     ec4:	8c 93       	st	X, r24
		}

		if (c & 0x40) {
     ec6:	8d 81       	ldd	r24, Y+5	; 0x05
     ec8:	88 2f       	mov	r24, r24
     eca:	90 e0       	ldi	r25, 0x00	; 0
     ecc:	80 74       	andi	r24, 0x40	; 64
     ece:	90 70       	andi	r25, 0x00	; 0
     ed0:	00 97       	sbiw	r24, 0x00	; 0
     ed2:	b1 f0       	breq	.+44     	; 0xf00 <_gpib_write+0x388>
			assign_bit(DDRA, PORTA, PA6);
     ed4:	ab e3       	ldi	r26, 0x3B	; 59
     ed6:	b0 e0       	ldi	r27, 0x00	; 0
     ed8:	eb e3       	ldi	r30, 0x3B	; 59
     eda:	f0 e0       	ldi	r31, 0x00	; 0
     edc:	80 81       	ld	r24, Z
     ede:	8f 7b       	andi	r24, 0xBF	; 191
     ee0:	8c 93       	st	X, r24
     ee2:	aa e3       	ldi	r26, 0x3A	; 58
     ee4:	b0 e0       	ldi	r27, 0x00	; 0
     ee6:	ea e3       	ldi	r30, 0x3A	; 58
     ee8:	f0 e0       	ldi	r31, 0x00	; 0
     eea:	80 81       	ld	r24, Z
     eec:	80 64       	ori	r24, 0x40	; 64
     eee:	8c 93       	st	X, r24
     ef0:	ab e3       	ldi	r26, 0x3B	; 59
     ef2:	b0 e0       	ldi	r27, 0x00	; 0
     ef4:	eb e3       	ldi	r30, 0x3B	; 59
     ef6:	f0 e0       	ldi	r31, 0x00	; 0
     ef8:	80 81       	ld	r24, Z
     efa:	8f 7b       	andi	r24, 0xBF	; 191
     efc:	8c 93       	st	X, r24
     efe:	0e c0       	rjmp	.+28     	; 0xf1c <_gpib_write+0x3a4>
		} else {
			release_bit(DDRA, PORTA, PA6);
     f00:	aa e3       	ldi	r26, 0x3A	; 58
     f02:	b0 e0       	ldi	r27, 0x00	; 0
     f04:	ea e3       	ldi	r30, 0x3A	; 58
     f06:	f0 e0       	ldi	r31, 0x00	; 0
     f08:	80 81       	ld	r24, Z
     f0a:	8f 7b       	andi	r24, 0xBF	; 191
     f0c:	8c 93       	st	X, r24
     f0e:	ab e3       	ldi	r26, 0x3B	; 59
     f10:	b0 e0       	ldi	r27, 0x00	; 0
     f12:	eb e3       	ldi	r30, 0x3B	; 59
     f14:	f0 e0       	ldi	r31, 0x00	; 0
     f16:	80 81       	ld	r24, Z
     f18:	80 64       	ori	r24, 0x40	; 64
     f1a:	8c 93       	st	X, r24
		}

		if (c & 0x80) {
     f1c:	8d 81       	ldd	r24, Y+5	; 0x05
     f1e:	88 23       	and	r24, r24
     f20:	b4 f4       	brge	.+44     	; 0xf4e <_gpib_write+0x3d6>
			assign_bit(DDRA, PORTA, PA7);
     f22:	ab e3       	ldi	r26, 0x3B	; 59
     f24:	b0 e0       	ldi	r27, 0x00	; 0
     f26:	eb e3       	ldi	r30, 0x3B	; 59
     f28:	f0 e0       	ldi	r31, 0x00	; 0
     f2a:	80 81       	ld	r24, Z
     f2c:	8f 77       	andi	r24, 0x7F	; 127
     f2e:	8c 93       	st	X, r24
     f30:	aa e3       	ldi	r26, 0x3A	; 58
     f32:	b0 e0       	ldi	r27, 0x00	; 0
     f34:	ea e3       	ldi	r30, 0x3A	; 58
     f36:	f0 e0       	ldi	r31, 0x00	; 0
     f38:	80 81       	ld	r24, Z
     f3a:	80 68       	ori	r24, 0x80	; 128
     f3c:	8c 93       	st	X, r24
     f3e:	ab e3       	ldi	r26, 0x3B	; 59
     f40:	b0 e0       	ldi	r27, 0x00	; 0
     f42:	eb e3       	ldi	r30, 0x3B	; 59
     f44:	f0 e0       	ldi	r31, 0x00	; 0
     f46:	80 81       	ld	r24, Z
     f48:	8f 77       	andi	r24, 0x7F	; 127
     f4a:	8c 93       	st	X, r24
     f4c:	0e c0       	rjmp	.+28     	; 0xf6a <_gpib_write+0x3f2>
		} else {
			release_bit(DDRA, PORTA, PA7);
     f4e:	aa e3       	ldi	r26, 0x3A	; 58
     f50:	b0 e0       	ldi	r27, 0x00	; 0
     f52:	ea e3       	ldi	r30, 0x3A	; 58
     f54:	f0 e0       	ldi	r31, 0x00	; 0
     f56:	80 81       	ld	r24, Z
     f58:	8f 77       	andi	r24, 0x7F	; 127
     f5a:	8c 93       	st	X, r24
     f5c:	ab e3       	ldi	r26, 0x3B	; 59
     f5e:	b0 e0       	ldi	r27, 0x00	; 0
     f60:	eb e3       	ldi	r30, 0x3B	; 59
     f62:	f0 e0       	ldi	r31, 0x00	; 0
     f64:	80 81       	ld	r24, Z
     f66:	80 68       	ori	r24, 0x80	; 128
     f68:	8c 93       	st	X, r24
		}

		// wait until listeners release NRFD
		//uart_puts("1");
		release_bit(DDRD, PORTD, G_NRFD);
     f6a:	a1 e3       	ldi	r26, 0x31	; 49
     f6c:	b0 e0       	ldi	r27, 0x00	; 0
     f6e:	e1 e3       	ldi	r30, 0x31	; 49
     f70:	f0 e0       	ldi	r31, 0x00	; 0
     f72:	80 81       	ld	r24, Z
     f74:	87 7f       	andi	r24, 0xF7	; 247
     f76:	8c 93       	st	X, r24
     f78:	a2 e3       	ldi	r26, 0x32	; 50
     f7a:	b0 e0       	ldi	r27, 0x00	; 0
     f7c:	e2 e3       	ldi	r30, 0x32	; 50
     f7e:	f0 e0       	ldi	r31, 0x00	; 0
     f80:	80 81       	ld	r24, Z
     f82:	88 60       	ori	r24, 0x08	; 8
     f84:	8c 93       	st	X, r24
#ifdef WITH_TIMEOUT
		//gpib_info();
		timeout = s + 5;
     f86:	80 91 97 05 	lds	r24, 0x0597
     f8a:	88 2f       	mov	r24, r24
     f8c:	90 e0       	ldi	r25, 0x00	; 0
     f8e:	05 96       	adiw	r24, 0x05	; 5
     f90:	9a 83       	std	Y+2, r25	; 0x02
     f92:	89 83       	std	Y+1, r24	; 0x01
     f94:	10 c0       	rjmp	.+32     	; 0xfb6 <_gpib_write+0x43e>
		while (!(PIND & _BV(G_NRFD)) && (s <= timeout)) {
			if (s == timeout) {
     f96:	80 91 97 05 	lds	r24, 0x0597
     f9a:	28 2f       	mov	r18, r24
     f9c:	30 e0       	ldi	r19, 0x00	; 0
     f9e:	89 81       	ldd	r24, Y+1	; 0x01
     fa0:	9a 81       	ldd	r25, Y+2	; 0x02
     fa2:	28 17       	cp	r18, r24
     fa4:	39 07       	cpc	r19, r25
     fa6:	39 f4       	brne	.+14     	; 0xfb6 <_gpib_write+0x43e>
				uart_puts("\n\rError: NRFD timeout\n\r");
     fa8:	8e ea       	ldi	r24, 0xAE	; 174
     faa:	90 e0       	ldi	r25, 0x00	; 0
     fac:	0e 94 3b 11 	call	0x2276	; 0x2276 <uart_puts>
				return 0xff;
     fb0:	8f ef       	ldi	r24, 0xFF	; 255
     fb2:	8b 87       	std	Y+11, r24	; 0x0b
     fb4:	92 c0       	rjmp	.+292    	; 0x10da <_gpib_write+0x562>
		//uart_puts("1");
		release_bit(DDRD, PORTD, G_NRFD);
#ifdef WITH_TIMEOUT
		//gpib_info();
		timeout = s + 5;
		while (!(PIND & _BV(G_NRFD)) && (s <= timeout)) {
     fb6:	e0 e3       	ldi	r30, 0x30	; 48
     fb8:	f0 e0       	ldi	r31, 0x00	; 0
     fba:	80 81       	ld	r24, Z
     fbc:	88 2f       	mov	r24, r24
     fbe:	90 e0       	ldi	r25, 0x00	; 0
     fc0:	88 70       	andi	r24, 0x08	; 8
     fc2:	90 70       	andi	r25, 0x00	; 0
     fc4:	00 97       	sbiw	r24, 0x00	; 0
     fc6:	49 f4       	brne	.+18     	; 0xfda <_gpib_write+0x462>
     fc8:	80 91 97 05 	lds	r24, 0x0597
     fcc:	28 2f       	mov	r18, r24
     fce:	30 e0       	ldi	r19, 0x00	; 0
     fd0:	89 81       	ldd	r24, Y+1	; 0x01
     fd2:	9a 81       	ldd	r25, Y+2	; 0x02
     fd4:	82 17       	cp	r24, r18
     fd6:	93 07       	cpc	r25, r19
     fd8:	f4 f6       	brge	.-68     	; 0xf96 <_gpib_write+0x41e>
#else
		loop_until_bit_is_set(PIND,G_NRFD);
#endif

		// assign EOI during transmission of only last byte
		if ((i == length - 1) && !attention) {
     fda:	88 85       	ldd	r24, Y+8	; 0x08
     fdc:	99 85       	ldd	r25, Y+9	; 0x09
     fde:	9c 01       	movw	r18, r24
     fe0:	21 50       	subi	r18, 0x01	; 1
     fe2:	30 40       	sbci	r19, 0x00	; 0
     fe4:	8b 81       	ldd	r24, Y+3	; 0x03
     fe6:	9c 81       	ldd	r25, Y+4	; 0x04
     fe8:	28 17       	cp	r18, r24
     fea:	39 07       	cpc	r19, r25
     fec:	c1 f4       	brne	.+48     	; 0x101e <_gpib_write+0x4a6>
     fee:	8a 85       	ldd	r24, Y+10	; 0x0a
     ff0:	88 23       	and	r24, r24
     ff2:	a9 f4       	brne	.+42     	; 0x101e <_gpib_write+0x4a6>
			//uart_puts("\n\rE\n\r");
			assign_bit(DDRD, PORTD, G_EOI);
     ff4:	a2 e3       	ldi	r26, 0x32	; 50
     ff6:	b0 e0       	ldi	r27, 0x00	; 0
     ff8:	e2 e3       	ldi	r30, 0x32	; 50
     ffa:	f0 e0       	ldi	r31, 0x00	; 0
     ffc:	80 81       	ld	r24, Z
     ffe:	8f 7e       	andi	r24, 0xEF	; 239
    1000:	8c 93       	st	X, r24
    1002:	a1 e3       	ldi	r26, 0x31	; 49
    1004:	b0 e0       	ldi	r27, 0x00	; 0
    1006:	e1 e3       	ldi	r30, 0x31	; 49
    1008:	f0 e0       	ldi	r31, 0x00	; 0
    100a:	80 81       	ld	r24, Z
    100c:	80 61       	ori	r24, 0x10	; 16
    100e:	8c 93       	st	X, r24
    1010:	a2 e3       	ldi	r26, 0x32	; 50
    1012:	b0 e0       	ldi	r27, 0x00	; 0
    1014:	e2 e3       	ldi	r30, 0x32	; 50
    1016:	f0 e0       	ldi	r31, 0x00	; 0
    1018:	80 81       	ld	r24, Z
    101a:	8f 7e       	andi	r24, 0xEF	; 239
    101c:	8c 93       	st	X, r24
		}

		// assign DAV, data valid for listeners
		assign_bit(DDRD, PORTD, G_DAV);
    101e:	a2 e3       	ldi	r26, 0x32	; 50
    1020:	b0 e0       	ldi	r27, 0x00	; 0
    1022:	e2 e3       	ldi	r30, 0x32	; 50
    1024:	f0 e0       	ldi	r31, 0x00	; 0
    1026:	80 81       	ld	r24, Z
    1028:	8b 7f       	andi	r24, 0xFB	; 251
    102a:	8c 93       	st	X, r24
    102c:	a1 e3       	ldi	r26, 0x31	; 49
    102e:	b0 e0       	ldi	r27, 0x00	; 0
    1030:	e1 e3       	ldi	r30, 0x31	; 49
    1032:	f0 e0       	ldi	r31, 0x00	; 0
    1034:	80 81       	ld	r24, Z
    1036:	84 60       	ori	r24, 0x04	; 4
    1038:	8c 93       	st	X, r24
    103a:	a2 e3       	ldi	r26, 0x32	; 50
    103c:	b0 e0       	ldi	r27, 0x00	; 0
    103e:	e2 e3       	ldi	r30, 0x32	; 50
    1040:	f0 e0       	ldi	r31, 0x00	; 0
    1042:	80 81       	ld	r24, Z
    1044:	8b 7f       	andi	r24, 0xFB	; 251
    1046:	8c 93       	st	X, r24

		// wait for NDAC release
		//uart_puts("2");
		release_bit(DDRD, PORTD, G_NDAC);
    1048:	a1 e3       	ldi	r26, 0x31	; 49
    104a:	b0 e0       	ldi	r27, 0x00	; 0
    104c:	e1 e3       	ldi	r30, 0x31	; 49
    104e:	f0 e0       	ldi	r31, 0x00	; 0
    1050:	80 81       	ld	r24, Z
    1052:	8f 7d       	andi	r24, 0xDF	; 223
    1054:	8c 93       	st	X, r24
    1056:	a2 e3       	ldi	r26, 0x32	; 50
    1058:	b0 e0       	ldi	r27, 0x00	; 0
    105a:	e2 e3       	ldi	r30, 0x32	; 50
    105c:	f0 e0       	ldi	r31, 0x00	; 0
    105e:	80 81       	ld	r24, Z
    1060:	80 62       	ori	r24, 0x20	; 32
    1062:	8c 93       	st	X, r24
		loop_until_bit_is_set(PIND, G_NDAC);
    1064:	e0 e3       	ldi	r30, 0x30	; 48
    1066:	f0 e0       	ldi	r31, 0x00	; 0
    1068:	80 81       	ld	r24, Z
    106a:	88 2f       	mov	r24, r24
    106c:	90 e0       	ldi	r25, 0x00	; 0
    106e:	80 72       	andi	r24, 0x20	; 32
    1070:	90 70       	andi	r25, 0x00	; 0
    1072:	00 97       	sbiw	r24, 0x00	; 0
    1074:	b9 f3       	breq	.-18     	; 0x1064 <_gpib_write+0x4ec>

		// release DAV, data not valid anymore
		release_bit(DDRD, PORTD, G_DAV);
    1076:	a1 e3       	ldi	r26, 0x31	; 49
    1078:	b0 e0       	ldi	r27, 0x00	; 0
    107a:	e1 e3       	ldi	r30, 0x31	; 49
    107c:	f0 e0       	ldi	r31, 0x00	; 0
    107e:	80 81       	ld	r24, Z
    1080:	8b 7f       	andi	r24, 0xFB	; 251
    1082:	8c 93       	st	X, r24
    1084:	a2 e3       	ldi	r26, 0x32	; 50
    1086:	b0 e0       	ldi	r27, 0x00	; 0
    1088:	e2 e3       	ldi	r30, 0x32	; 50
    108a:	f0 e0       	ldi	r31, 0x00	; 0
    108c:	80 81       	ld	r24, Z
    108e:	84 60       	ori	r24, 0x04	; 4
    1090:	8c 93       	st	X, r24

		// reset Port to all input
		DDRA = 0x00;
    1092:	ea e3       	ldi	r30, 0x3A	; 58
    1094:	f0 e0       	ldi	r31, 0x00	; 0
    1096:	10 82       	st	Z, r1
	release_bit(DDRD, PORTD, G_NRFD);

	// bytes[0] = 'a'
	// bytes[1] = 'b'
	// length = 2
	for (i = 0; i < length; i++) {
    1098:	8b 81       	ldd	r24, Y+3	; 0x03
    109a:	9c 81       	ldd	r25, Y+4	; 0x04
    109c:	01 96       	adiw	r24, 0x01	; 1
    109e:	9c 83       	std	Y+4, r25	; 0x04
    10a0:	8b 83       	std	Y+3, r24	; 0x03
    10a2:	2b 81       	ldd	r18, Y+3	; 0x03
    10a4:	3c 81       	ldd	r19, Y+4	; 0x04
    10a6:	88 85       	ldd	r24, Y+8	; 0x08
    10a8:	99 85       	ldd	r25, Y+9	; 0x09
    10aa:	28 17       	cp	r18, r24
    10ac:	39 07       	cpc	r19, r25
    10ae:	0c f4       	brge	.+2      	; 0x10b2 <_gpib_write+0x53a>
    10b0:	c4 cd       	rjmp	.-1144   	; 0xc3a <_gpib_write+0xc2>
		DDRA = 0x00;

		//uart_puts("3\r\n");
	}

	if (attention) {
    10b2:	8a 85       	ldd	r24, Y+10	; 0x0a
    10b4:	88 23       	and	r24, r24
    10b6:	71 f0       	breq	.+28     	; 0x10d4 <_gpib_write+0x55c>
		// assign ATN for commands
		release_bit(DDRD, PORTD, G_ATN);
    10b8:	a1 e3       	ldi	r26, 0x31	; 49
    10ba:	b0 e0       	ldi	r27, 0x00	; 0
    10bc:	e1 e3       	ldi	r30, 0x31	; 49
    10be:	f0 e0       	ldi	r31, 0x00	; 0
    10c0:	80 81       	ld	r24, Z
    10c2:	8f 77       	andi	r24, 0x7F	; 127
    10c4:	8c 93       	st	X, r24
    10c6:	a2 e3       	ldi	r26, 0x32	; 50
    10c8:	b0 e0       	ldi	r27, 0x00	; 0
    10ca:	e2 e3       	ldi	r30, 0x32	; 50
    10cc:	f0 e0       	ldi	r31, 0x00	; 0
    10ce:	80 81       	ld	r24, Z
    10d0:	80 68       	ori	r24, 0x80	; 128
    10d2:	8c 93       	st	X, r24
	}

	// clear talk state.Controller does not talk anymore.
	controller.talks = 0;
    10d4:	10 92 8f 04 	sts	0x048F, r1

	return 0x00;
    10d8:	1b 86       	std	Y+11, r1	; 0x0b
    10da:	8b 85       	ldd	r24, Y+11	; 0x0b
}
    10dc:	2b 96       	adiw	r28, 0x0b	; 11
    10de:	0f b6       	in	r0, 0x3f	; 63
    10e0:	f8 94       	cli
    10e2:	de bf       	out	0x3e, r29	; 62
    10e4:	0f be       	out	0x3f, r0	; 63
    10e6:	cd bf       	out	0x3d, r28	; 61
    10e8:	cf 91       	pop	r28
    10ea:	df 91       	pop	r29
    10ec:	08 95       	ret

000010ee <gpib_info>:

/**
 * print some useful info about bus state (for example value of handshake pins)
 */
void gpib_info(void) {
    10ee:	af 92       	push	r10
    10f0:	bf 92       	push	r11
    10f2:	cf 92       	push	r12
    10f4:	df 92       	push	r13
    10f6:	ef 92       	push	r14
    10f8:	ff 92       	push	r15
    10fa:	0f 93       	push	r16
    10fc:	1f 93       	push	r17
    10fe:	df 93       	push	r29
    1100:	cf 93       	push	r28
    1102:	cd b7       	in	r28, 0x3d	; 61
    1104:	de b7       	in	r29, 0x3e	; 62
    1106:	2a 97       	sbiw	r28, 0x0a	; 10
    1108:	0f b6       	in	r0, 0x3f	; 63
    110a:	f8 94       	cli
    110c:	de bf       	out	0x3e, r29	; 62
    110e:	0f be       	out	0x3f, r0	; 63
    1110:	cd bf       	out	0x3d, r28	; 61
	uchar dav, nrfd, ndac, eoi, atn, srq, ifc, ren;
	extern uchar buf[80];

	sprintf(buf, "Partner address: primary: %u, secondary: %u\n\r",
    1112:	0e 94 c3 0a 	call	0x1586	; 0x1586 <gpib_get_partner_pad>
    1116:	08 2f       	mov	r16, r24
    1118:	10 e0       	ldi	r17, 0x00	; 0
    111a:	0e 94 cc 0a 	call	0x1598	; 0x1598 <gpib_get_partner_sad>
    111e:	28 2f       	mov	r18, r24
    1120:	30 e0       	ldi	r19, 0x00	; 0
    1122:	8d b7       	in	r24, 0x3d	; 61
    1124:	9e b7       	in	r25, 0x3e	; 62
    1126:	08 97       	sbiw	r24, 0x08	; 8
    1128:	0f b6       	in	r0, 0x3f	; 63
    112a:	f8 94       	cli
    112c:	9e bf       	out	0x3e, r25	; 62
    112e:	0f be       	out	0x3f, r0	; 63
    1130:	8d bf       	out	0x3d, r24	; 61
    1132:	ed b7       	in	r30, 0x3d	; 61
    1134:	fe b7       	in	r31, 0x3e	; 62
    1136:	31 96       	adiw	r30, 0x01	; 1
    1138:	86 e4       	ldi	r24, 0x46	; 70
    113a:	95 e0       	ldi	r25, 0x05	; 5
    113c:	91 83       	std	Z+1, r25	; 0x01
    113e:	80 83       	st	Z, r24
    1140:	86 ec       	ldi	r24, 0xC6	; 198
    1142:	90 e0       	ldi	r25, 0x00	; 0
    1144:	93 83       	std	Z+3, r25	; 0x03
    1146:	82 83       	std	Z+2, r24	; 0x02
    1148:	15 83       	std	Z+5, r17	; 0x05
    114a:	04 83       	std	Z+4, r16	; 0x04
    114c:	37 83       	std	Z+7, r19	; 0x07
    114e:	26 83       	std	Z+6, r18	; 0x06
    1150:	0e 94 da 00 	call	0x1b4	; 0x1b4 <sprintf>
    1154:	8d b7       	in	r24, 0x3d	; 61
    1156:	9e b7       	in	r25, 0x3e	; 62
    1158:	08 96       	adiw	r24, 0x08	; 8
    115a:	0f b6       	in	r0, 0x3f	; 63
    115c:	f8 94       	cli
    115e:	9e bf       	out	0x3e, r25	; 62
    1160:	0f be       	out	0x3f, r0	; 63
    1162:	8d bf       	out	0x3d, r24	; 61
			gpib_get_partner_pad(), gpib_get_partner_sad());
	uart_puts(buf);
    1164:	86 e4       	ldi	r24, 0x46	; 70
    1166:	95 e0       	ldi	r25, 0x05	; 5
    1168:	0e 94 3b 11 	call	0x2276	; 0x2276 <uart_puts>

	uart_puts("Partner list\n\r");
    116c:	84 ef       	ldi	r24, 0xF4	; 244
    116e:	90 e0       	ldi	r25, 0x00	; 0
    1170:	0e 94 3b 11 	call	0x2276	; 0x2276 <uart_puts>
	for (int i = 0; i < MAX_PARTNER; i++) {
    1174:	1a 82       	std	Y+2, r1	; 0x02
    1176:	19 82       	std	Y+1, r1	; 0x01
    1178:	49 c0       	rjmp	.+146    	; 0x120c <gpib_info+0x11e>
		if (controller.partners[i].primary != ADDRESS_NOT_SET) {
    117a:	89 81       	ldd	r24, Y+1	; 0x01
    117c:	9a 81       	ldd	r25, Y+2	; 0x02
    117e:	88 0f       	add	r24, r24
    1180:	99 1f       	adc	r25, r25
    1182:	fc 01       	movw	r30, r24
    1184:	ef 56       	subi	r30, 0x6F	; 111
    1186:	fb 4f       	sbci	r31, 0xFB	; 251
    1188:	80 81       	ld	r24, Z
    118a:	8f 3f       	cpi	r24, 0xFF	; 255
    118c:	d1 f1       	breq	.+116    	; 0x1202 <gpib_info+0x114>
			sprintf(buf, "Partner address: primary: %u, secondary: %u\n\r",
    118e:	89 81       	ldd	r24, Y+1	; 0x01
    1190:	9a 81       	ldd	r25, Y+2	; 0x02
    1192:	88 0f       	add	r24, r24
    1194:	99 1f       	adc	r25, r25
    1196:	fc 01       	movw	r30, r24
    1198:	ef 56       	subi	r30, 0x6F	; 111
    119a:	fb 4f       	sbci	r31, 0xFB	; 251
    119c:	80 81       	ld	r24, Z
    119e:	48 2f       	mov	r20, r24
    11a0:	50 e0       	ldi	r21, 0x00	; 0
    11a2:	89 81       	ldd	r24, Y+1	; 0x01
    11a4:	9a 81       	ldd	r25, Y+2	; 0x02
    11a6:	03 96       	adiw	r24, 0x03	; 3
    11a8:	88 0f       	add	r24, r24
    11aa:	99 1f       	adc	r25, r25
    11ac:	fc 01       	movw	r30, r24
    11ae:	e4 57       	subi	r30, 0x74	; 116
    11b0:	fb 4f       	sbci	r31, 0xFB	; 251
    11b2:	80 81       	ld	r24, Z
    11b4:	28 2f       	mov	r18, r24
    11b6:	30 e0       	ldi	r19, 0x00	; 0
    11b8:	8d b7       	in	r24, 0x3d	; 61
    11ba:	9e b7       	in	r25, 0x3e	; 62
    11bc:	08 97       	sbiw	r24, 0x08	; 8
    11be:	0f b6       	in	r0, 0x3f	; 63
    11c0:	f8 94       	cli
    11c2:	9e bf       	out	0x3e, r25	; 62
    11c4:	0f be       	out	0x3f, r0	; 63
    11c6:	8d bf       	out	0x3d, r24	; 61
    11c8:	ed b7       	in	r30, 0x3d	; 61
    11ca:	fe b7       	in	r31, 0x3e	; 62
    11cc:	31 96       	adiw	r30, 0x01	; 1
    11ce:	86 e4       	ldi	r24, 0x46	; 70
    11d0:	95 e0       	ldi	r25, 0x05	; 5
    11d2:	91 83       	std	Z+1, r25	; 0x01
    11d4:	80 83       	st	Z, r24
    11d6:	86 ec       	ldi	r24, 0xC6	; 198
    11d8:	90 e0       	ldi	r25, 0x00	; 0
    11da:	93 83       	std	Z+3, r25	; 0x03
    11dc:	82 83       	std	Z+2, r24	; 0x02
    11de:	55 83       	std	Z+5, r21	; 0x05
    11e0:	44 83       	std	Z+4, r20	; 0x04
    11e2:	37 83       	std	Z+7, r19	; 0x07
    11e4:	26 83       	std	Z+6, r18	; 0x06
    11e6:	0e 94 da 00 	call	0x1b4	; 0x1b4 <sprintf>
    11ea:	8d b7       	in	r24, 0x3d	; 61
    11ec:	9e b7       	in	r25, 0x3e	; 62
    11ee:	08 96       	adiw	r24, 0x08	; 8
    11f0:	0f b6       	in	r0, 0x3f	; 63
    11f2:	f8 94       	cli
    11f4:	9e bf       	out	0x3e, r25	; 62
    11f6:	0f be       	out	0x3f, r0	; 63
    11f8:	8d bf       	out	0x3d, r24	; 61
					controller.partners[i].primary,
					controller.partners[i].secondary);
			uart_puts(buf);
    11fa:	86 e4       	ldi	r24, 0x46	; 70
    11fc:	95 e0       	ldi	r25, 0x05	; 5
    11fe:	0e 94 3b 11 	call	0x2276	; 0x2276 <uart_puts>
	sprintf(buf, "Partner address: primary: %u, secondary: %u\n\r",
			gpib_get_partner_pad(), gpib_get_partner_sad());
	uart_puts(buf);

	uart_puts("Partner list\n\r");
	for (int i = 0; i < MAX_PARTNER; i++) {
    1202:	89 81       	ldd	r24, Y+1	; 0x01
    1204:	9a 81       	ldd	r25, Y+2	; 0x02
    1206:	01 96       	adiw	r24, 0x01	; 1
    1208:	9a 83       	std	Y+2, r25	; 0x02
    120a:	89 83       	std	Y+1, r24	; 0x01
    120c:	89 81       	ldd	r24, Y+1	; 0x01
    120e:	9a 81       	ldd	r25, Y+2	; 0x02
    1210:	85 30       	cpi	r24, 0x05	; 5
    1212:	91 05       	cpc	r25, r1
    1214:	0c f4       	brge	.+2      	; 0x1218 <gpib_info+0x12a>
    1216:	b1 cf       	rjmp	.-158    	; 0x117a <gpib_info+0x8c>
					controller.partners[i].secondary);
			uart_puts(buf);
		}
	}

	dav = bit_is_set(PIND, G_DAV);
    1218:	e0 e3       	ldi	r30, 0x30	; 48
    121a:	f0 e0       	ldi	r31, 0x00	; 0
    121c:	80 81       	ld	r24, Z
    121e:	84 70       	andi	r24, 0x04	; 4
    1220:	8a 87       	std	Y+10, r24	; 0x0a
	nrfd = bit_is_set(PIND, G_NRFD);
    1222:	e0 e3       	ldi	r30, 0x30	; 48
    1224:	f0 e0       	ldi	r31, 0x00	; 0
    1226:	80 81       	ld	r24, Z
    1228:	88 70       	andi	r24, 0x08	; 8
    122a:	89 87       	std	Y+9, r24	; 0x09
	ndac = bit_is_set(PIND, G_NDAC);
    122c:	e0 e3       	ldi	r30, 0x30	; 48
    122e:	f0 e0       	ldi	r31, 0x00	; 0
    1230:	80 81       	ld	r24, Z
    1232:	80 72       	andi	r24, 0x20	; 32
    1234:	88 87       	std	Y+8, r24	; 0x08
	eoi = bit_is_set(PIND, G_EOI);
    1236:	e0 e3       	ldi	r30, 0x30	; 48
    1238:	f0 e0       	ldi	r31, 0x00	; 0
    123a:	80 81       	ld	r24, Z
    123c:	80 71       	andi	r24, 0x10	; 16
    123e:	8f 83       	std	Y+7, r24	; 0x07
	atn = bit_is_set(PIND, G_ATN);
    1240:	e0 e3       	ldi	r30, 0x30	; 48
    1242:	f0 e0       	ldi	r31, 0x00	; 0
    1244:	80 81       	ld	r24, Z
    1246:	80 78       	andi	r24, 0x80	; 128
    1248:	8e 83       	std	Y+6, r24	; 0x06
	srq = bit_is_set(PIND, G_SRQ);
    124a:	e0 e3       	ldi	r30, 0x30	; 48
    124c:	f0 e0       	ldi	r31, 0x00	; 0
    124e:	80 81       	ld	r24, Z
    1250:	80 74       	andi	r24, 0x40	; 64
    1252:	8d 83       	std	Y+5, r24	; 0x05
	ifc = bit_is_set(PINB, G_IFC);
    1254:	e6 e3       	ldi	r30, 0x36	; 54
    1256:	f0 e0       	ldi	r31, 0x00	; 0
    1258:	80 81       	ld	r24, Z
    125a:	81 70       	andi	r24, 0x01	; 1
    125c:	8c 83       	std	Y+4, r24	; 0x04
	ren = bit_is_set(PINB, G_REN);
    125e:	e6 e3       	ldi	r30, 0x36	; 54
    1260:	f0 e0       	ldi	r31, 0x00	; 0
    1262:	80 81       	ld	r24, Z
    1264:	82 70       	andi	r24, 0x02	; 2
    1266:	8b 83       	std	Y+3, r24	; 0x03
	//d = PINA;
	//di = d ^ 0xff;
	if (dav == 0x00)
    1268:	8a 85       	ldd	r24, Y+10	; 0x0a
    126a:	88 23       	and	r24, r24
    126c:	19 f4       	brne	.+6      	; 0x1274 <gpib_info+0x186>
		dav = '0';
    126e:	80 e3       	ldi	r24, 0x30	; 48
    1270:	8a 87       	std	Y+10, r24	; 0x0a
    1272:	02 c0       	rjmp	.+4      	; 0x1278 <gpib_info+0x18a>
	else
		dav = '1';
    1274:	81 e3       	ldi	r24, 0x31	; 49
    1276:	8a 87       	std	Y+10, r24	; 0x0a
	if (nrfd == 0x00)
    1278:	89 85       	ldd	r24, Y+9	; 0x09
    127a:	88 23       	and	r24, r24
    127c:	19 f4       	brne	.+6      	; 0x1284 <gpib_info+0x196>
		nrfd = '0';
    127e:	80 e3       	ldi	r24, 0x30	; 48
    1280:	89 87       	std	Y+9, r24	; 0x09
    1282:	02 c0       	rjmp	.+4      	; 0x1288 <gpib_info+0x19a>
	else
		nrfd = '1';
    1284:	81 e3       	ldi	r24, 0x31	; 49
    1286:	89 87       	std	Y+9, r24	; 0x09
	if (ndac == 0x00)
    1288:	88 85       	ldd	r24, Y+8	; 0x08
    128a:	88 23       	and	r24, r24
    128c:	19 f4       	brne	.+6      	; 0x1294 <gpib_info+0x1a6>
		ndac = '0';
    128e:	80 e3       	ldi	r24, 0x30	; 48
    1290:	88 87       	std	Y+8, r24	; 0x08
    1292:	02 c0       	rjmp	.+4      	; 0x1298 <gpib_info+0x1aa>
	else
		ndac = '1';
    1294:	81 e3       	ldi	r24, 0x31	; 49
    1296:	88 87       	std	Y+8, r24	; 0x08
	if (eoi == 0x00)
    1298:	8f 81       	ldd	r24, Y+7	; 0x07
    129a:	88 23       	and	r24, r24
    129c:	19 f4       	brne	.+6      	; 0x12a4 <gpib_info+0x1b6>
		eoi = '0';
    129e:	80 e3       	ldi	r24, 0x30	; 48
    12a0:	8f 83       	std	Y+7, r24	; 0x07
    12a2:	02 c0       	rjmp	.+4      	; 0x12a8 <gpib_info+0x1ba>
	else
		eoi = '1';
    12a4:	81 e3       	ldi	r24, 0x31	; 49
    12a6:	8f 83       	std	Y+7, r24	; 0x07
	if (atn == 0x00)
    12a8:	8e 81       	ldd	r24, Y+6	; 0x06
    12aa:	88 23       	and	r24, r24
    12ac:	19 f4       	brne	.+6      	; 0x12b4 <gpib_info+0x1c6>
		atn = '0';
    12ae:	80 e3       	ldi	r24, 0x30	; 48
    12b0:	8e 83       	std	Y+6, r24	; 0x06
    12b2:	02 c0       	rjmp	.+4      	; 0x12b8 <gpib_info+0x1ca>
	else
		atn = '1';
    12b4:	81 e3       	ldi	r24, 0x31	; 49
    12b6:	8e 83       	std	Y+6, r24	; 0x06
	if (srq == 0x00)
    12b8:	8d 81       	ldd	r24, Y+5	; 0x05
    12ba:	88 23       	and	r24, r24
    12bc:	19 f4       	brne	.+6      	; 0x12c4 <gpib_info+0x1d6>
		srq = '0';
    12be:	80 e3       	ldi	r24, 0x30	; 48
    12c0:	8d 83       	std	Y+5, r24	; 0x05
    12c2:	02 c0       	rjmp	.+4      	; 0x12c8 <gpib_info+0x1da>
	else
		srq = '1';
    12c4:	81 e3       	ldi	r24, 0x31	; 49
    12c6:	8d 83       	std	Y+5, r24	; 0x05
	if (ifc == 0x00)
    12c8:	8c 81       	ldd	r24, Y+4	; 0x04
    12ca:	88 23       	and	r24, r24
    12cc:	19 f4       	brne	.+6      	; 0x12d4 <gpib_info+0x1e6>
		ifc = '0';
    12ce:	80 e3       	ldi	r24, 0x30	; 48
    12d0:	8c 83       	std	Y+4, r24	; 0x04
    12d2:	02 c0       	rjmp	.+4      	; 0x12d8 <gpib_info+0x1ea>
	else
		ifc = '1';
    12d4:	81 e3       	ldi	r24, 0x31	; 49
    12d6:	8c 83       	std	Y+4, r24	; 0x04
	if (ren == 0x00)
    12d8:	8b 81       	ldd	r24, Y+3	; 0x03
    12da:	88 23       	and	r24, r24
    12dc:	19 f4       	brne	.+6      	; 0x12e4 <gpib_info+0x1f6>
		ren = '0';
    12de:	80 e3       	ldi	r24, 0x30	; 48
    12e0:	8b 83       	std	Y+3, r24	; 0x03
    12e2:	02 c0       	rjmp	.+4      	; 0x12e8 <gpib_info+0x1fa>
	else
		ren = '1';
    12e4:	81 e3       	ldi	r24, 0x31	; 49
    12e6:	8b 83       	std	Y+3, r24	; 0x03

	sprintf(buf,
    12e8:	8a 85       	ldd	r24, Y+10	; 0x0a
    12ea:	a8 2e       	mov	r10, r24
    12ec:	bb 24       	eor	r11, r11
    12ee:	89 85       	ldd	r24, Y+9	; 0x09
    12f0:	28 2f       	mov	r18, r24
    12f2:	30 e0       	ldi	r19, 0x00	; 0
    12f4:	88 85       	ldd	r24, Y+8	; 0x08
    12f6:	48 2f       	mov	r20, r24
    12f8:	50 e0       	ldi	r21, 0x00	; 0
    12fa:	8f 81       	ldd	r24, Y+7	; 0x07
    12fc:	68 2f       	mov	r22, r24
    12fe:	70 e0       	ldi	r23, 0x00	; 0
    1300:	8c 81       	ldd	r24, Y+4	; 0x04
    1302:	a8 2f       	mov	r26, r24
    1304:	b0 e0       	ldi	r27, 0x00	; 0
    1306:	8b 81       	ldd	r24, Y+3	; 0x03
    1308:	08 2f       	mov	r16, r24
    130a:	10 e0       	ldi	r17, 0x00	; 0
    130c:	8e 81       	ldd	r24, Y+6	; 0x06
    130e:	e8 2e       	mov	r14, r24
    1310:	ff 24       	eor	r15, r15
    1312:	8d 81       	ldd	r24, Y+5	; 0x05
    1314:	c8 2e       	mov	r12, r24
    1316:	dd 24       	eor	r13, r13
    1318:	8d b7       	in	r24, 0x3d	; 61
    131a:	9e b7       	in	r25, 0x3e	; 62
    131c:	44 97       	sbiw	r24, 0x14	; 20
    131e:	0f b6       	in	r0, 0x3f	; 63
    1320:	f8 94       	cli
    1322:	9e bf       	out	0x3e, r25	; 62
    1324:	0f be       	out	0x3f, r0	; 63
    1326:	8d bf       	out	0x3d, r24	; 61
    1328:	ed b7       	in	r30, 0x3d	; 61
    132a:	fe b7       	in	r31, 0x3e	; 62
    132c:	31 96       	adiw	r30, 0x01	; 1
    132e:	86 e4       	ldi	r24, 0x46	; 70
    1330:	95 e0       	ldi	r25, 0x05	; 5
    1332:	91 83       	std	Z+1, r25	; 0x01
    1334:	80 83       	st	Z, r24
    1336:	83 e0       	ldi	r24, 0x03	; 3
    1338:	91 e0       	ldi	r25, 0x01	; 1
    133a:	93 83       	std	Z+3, r25	; 0x03
    133c:	82 83       	std	Z+2, r24	; 0x02
    133e:	b5 82       	std	Z+5, r11	; 0x05
    1340:	a4 82       	std	Z+4, r10	; 0x04
    1342:	37 83       	std	Z+7, r19	; 0x07
    1344:	26 83       	std	Z+6, r18	; 0x06
    1346:	51 87       	std	Z+9, r21	; 0x09
    1348:	40 87       	std	Z+8, r20	; 0x08
    134a:	73 87       	std	Z+11, r23	; 0x0b
    134c:	62 87       	std	Z+10, r22	; 0x0a
    134e:	b5 87       	std	Z+13, r27	; 0x0d
    1350:	a4 87       	std	Z+12, r26	; 0x0c
    1352:	17 87       	std	Z+15, r17	; 0x0f
    1354:	06 87       	std	Z+14, r16	; 0x0e
    1356:	f1 8a       	std	Z+17, r15	; 0x11
    1358:	e0 8a       	std	Z+16, r14	; 0x10
    135a:	d3 8a       	std	Z+19, r13	; 0x13
    135c:	c2 8a       	std	Z+18, r12	; 0x12
    135e:	0e 94 da 00 	call	0x1b4	; 0x1b4 <sprintf>
    1362:	8d b7       	in	r24, 0x3d	; 61
    1364:	9e b7       	in	r25, 0x3e	; 62
    1366:	44 96       	adiw	r24, 0x14	; 20
    1368:	0f b6       	in	r0, 0x3f	; 63
    136a:	f8 94       	cli
    136c:	9e bf       	out	0x3e, r25	; 62
    136e:	0f be       	out	0x3f, r0	; 63
    1370:	8d bf       	out	0x3d, r24	; 61
			"dav=%c,nrfd=%c,ndac=%c, eoi=%c, ifc=%c,ren=%c,atn=%c,srq=%c\n\r",
			dav, nrfd, ndac, eoi, ifc, ren, atn, srq);
	uart_puts(buf);
    1372:	86 e4       	ldi	r24, 0x46	; 70
    1374:	95 e0       	ldi	r25, 0x05	; 5
    1376:	0e 94 3b 11 	call	0x2276	; 0x2276 <uart_puts>
}
    137a:	2a 96       	adiw	r28, 0x0a	; 10
    137c:	0f b6       	in	r0, 0x3f	; 63
    137e:	f8 94       	cli
    1380:	de bf       	out	0x3e, r29	; 62
    1382:	0f be       	out	0x3f, r0	; 63
    1384:	cd bf       	out	0x3d, r28	; 61
    1386:	cf 91       	pop	r28
    1388:	df 91       	pop	r29
    138a:	1f 91       	pop	r17
    138c:	0f 91       	pop	r16
    138e:	ff 90       	pop	r15
    1390:	ef 90       	pop	r14
    1392:	df 90       	pop	r13
    1394:	cf 90       	pop	r12
    1396:	bf 90       	pop	r11
    1398:	af 90       	pop	r10
    139a:	08 95       	ret

0000139c <gpib_serial_poll>:
/**
 * execute serial polling
 *
 * We return the physical address of the device that created the SRQ.
 */
uchar gpib_serial_poll(void) {
    139c:	df 93       	push	r29
    139e:	cf 93       	push	r28
    13a0:	cd b7       	in	r28, 0x3d	; 61
    13a2:	de b7       	in	r29, 0x3e	; 62
    13a4:	27 97       	sbiw	r28, 0x07	; 7
    13a6:	0f b6       	in	r0, 0x3f	; 63
    13a8:	f8 94       	cli
    13aa:	de bf       	out	0x3e, r29	; 62
    13ac:	0f be       	out	0x3f, r0	; 63
    13ae:	cd bf       	out	0x3d, r28	; 61
	uchar b, e;
	uchar address = 0, found = 0, foundPhysical = 0;
    13b0:	1d 82       	std	Y+5, r1	; 0x05
    13b2:	1c 82       	std	Y+4, r1	; 0x04
    13b4:	1b 82       	std	Y+3, r1	; 0x03
	int i;

	// send UNT and UNL commands (unlisten and untalk)
	// effect: all talker stop talking and all listeners stop listening
	cmd_buf[0] = G_CMD_UNT;
    13b6:	8f e5       	ldi	r24, 0x5F	; 95
    13b8:	80 93 e2 04 	sts	0x04E2, r24
	gpib_cmd(cmd_buf, 1);
    13bc:	82 ee       	ldi	r24, 0xE2	; 226
    13be:	94 e0       	ldi	r25, 0x04	; 4
    13c0:	61 e0       	ldi	r22, 0x01	; 1
    13c2:	70 e0       	ldi	r23, 0x00	; 0
    13c4:	0e 94 a3 05 	call	0xb46	; 0xb46 <gpib_cmd>
	cmd_buf[0] = G_CMD_UNL;
    13c8:	8f e3       	ldi	r24, 0x3F	; 63
    13ca:	80 93 e2 04 	sts	0x04E2, r24
	gpib_cmd(cmd_buf, 1);
    13ce:	82 ee       	ldi	r24, 0xE2	; 226
    13d0:	94 e0       	ldi	r25, 0x04	; 4
    13d2:	61 e0       	ldi	r22, 0x01	; 1
    13d4:	70 e0       	ldi	r23, 0x00	; 0
    13d6:	0e 94 a3 05 	call	0xb46	; 0xb46 <gpib_cmd>

	// serial poll enable
	// effect: all devices will send status byte instead of normal data when addressed
	// as talker
	//uart_puts("before SPE\r\n");
	cmd_buf[0] = G_CMD_SPE;
    13da:	88 e1       	ldi	r24, 0x18	; 24
    13dc:	80 93 e2 04 	sts	0x04E2, r24
	gpib_cmd(cmd_buf, 1);
    13e0:	82 ee       	ldi	r24, 0xE2	; 226
    13e2:	94 e0       	ldi	r25, 0x04	; 4
    13e4:	61 e0       	ldi	r22, 0x01	; 1
    13e6:	70 e0       	ldi	r23, 0x00	; 0
    13e8:	0e 94 a3 05 	call	0xb46	; 0xb46 <gpib_cmd>
	//uart_puts("after SPE\r\n");

	// searching for SRQ emitter in a loop ...
	for (i = 0; (controller.partners[i].primary != 0x00) && !found; i++) {
    13ec:	1a 82       	std	Y+2, r1	; 0x02
    13ee:	19 82       	std	Y+1, r1	; 0x01
    13f0:	8a c0       	rjmp	.+276    	; 0x1506 <gpib_serial_poll+0x16a>

		// set partner to talker mode
		address = address2TalkerAddress(controller.partners[i].primary);
    13f2:	89 81       	ldd	r24, Y+1	; 0x01
    13f4:	9a 81       	ldd	r25, Y+2	; 0x02
    13f6:	88 0f       	add	r24, r24
    13f8:	99 1f       	adc	r25, r25
    13fa:	fc 01       	movw	r30, r24
    13fc:	ef 56       	subi	r30, 0x6F	; 111
    13fe:	fb 4f       	sbci	r31, 0xFB	; 251
    1400:	80 81       	ld	r24, Z
    1402:	80 5c       	subi	r24, 0xC0	; 192
    1404:	8d 83       	std	Y+5, r24	; 0x05
		// TODO: handle secondary address
		cmd_buf[0] = address;
    1406:	8d 81       	ldd	r24, Y+5	; 0x05
    1408:	80 93 e2 04 	sts	0x04E2, r24
		//uart_puts("before talker address write\r\n");
		gpib_cmd(cmd_buf, 1);
    140c:	82 ee       	ldi	r24, 0xE2	; 226
    140e:	94 e0       	ldi	r25, 0x04	; 4
    1410:	61 e0       	ldi	r22, 0x01	; 1
    1412:	70 e0       	ldi	r23, 0x00	; 0
    1414:	0e 94 a3 05 	call	0xb46	; 0xb46 <gpib_cmd>
		//uart_puts("after talker address write\r\n");

		// now receive data
		//uart_puts("before status byte receive\r\n");
		e = gpib_receive(&b);
    1418:	ce 01       	movw	r24, r28
    141a:	07 96       	adiw	r24, 0x07	; 7
    141c:	0e 94 09 04 	call	0x812	; 0x812 <gpib_receive>
    1420:	8e 83       	std	Y+6, r24	; 0x06
		//uart_puts("after status byte receive\r\n");
		// status byte is now in b
		sprintf((char*) cmd_buf,
    1422:	8d 81       	ldd	r24, Y+5	; 0x05
    1424:	88 2f       	mov	r24, r24
    1426:	90 e0       	ldi	r25, 0x00	; 0
    1428:	9c 01       	movw	r18, r24
    142a:	20 54       	subi	r18, 0x40	; 64
    142c:	30 40       	sbci	r19, 0x00	; 0
    142e:	8f 81       	ldd	r24, Y+7	; 0x07
    1430:	48 2f       	mov	r20, r24
    1432:	50 e0       	ldi	r21, 0x00	; 0
    1434:	8d b7       	in	r24, 0x3d	; 61
    1436:	9e b7       	in	r25, 0x3e	; 62
    1438:	08 97       	sbiw	r24, 0x08	; 8
    143a:	0f b6       	in	r0, 0x3f	; 63
    143c:	f8 94       	cli
    143e:	9e bf       	out	0x3e, r25	; 62
    1440:	0f be       	out	0x3f, r0	; 63
    1442:	8d bf       	out	0x3d, r24	; 61
    1444:	ed b7       	in	r30, 0x3d	; 61
    1446:	fe b7       	in	r31, 0x3e	; 62
    1448:	31 96       	adiw	r30, 0x01	; 1
    144a:	82 ee       	ldi	r24, 0xE2	; 226
    144c:	94 e0       	ldi	r25, 0x04	; 4
    144e:	91 83       	std	Z+1, r25	; 0x01
    1450:	80 83       	st	Z, r24
    1452:	81 e4       	ldi	r24, 0x41	; 65
    1454:	91 e0       	ldi	r25, 0x01	; 1
    1456:	93 83       	std	Z+3, r25	; 0x03
    1458:	82 83       	std	Z+2, r24	; 0x02
    145a:	35 83       	std	Z+5, r19	; 0x05
    145c:	24 83       	std	Z+4, r18	; 0x04
    145e:	57 83       	std	Z+7, r21	; 0x07
    1460:	46 83       	std	Z+6, r20	; 0x06
    1462:	0e 94 da 00 	call	0x1b4	; 0x1b4 <sprintf>
    1466:	8d b7       	in	r24, 0x3d	; 61
    1468:	9e b7       	in	r25, 0x3e	; 62
    146a:	08 96       	adiw	r24, 0x08	; 8
    146c:	0f b6       	in	r0, 0x3f	; 63
    146e:	f8 94       	cli
    1470:	9e bf       	out	0x3e, r25	; 62
    1472:	0f be       	out	0x3f, r0	; 63
    1474:	8d bf       	out	0x3d, r24	; 61
				"Status byte from device 0x%02x (physical address) = 0x%02x\n\r",
				TalkerAddress2Address(address), b);
		uart_puts((char*) cmd_buf);
    1476:	82 ee       	ldi	r24, 0xE2	; 226
    1478:	94 e0       	ldi	r25, 0x04	; 4
    147a:	0e 94 3b 11 	call	0x2276	; 0x2276 <uart_puts>

		// send UNT and UNL commands (unlisten and untalk)
		// effect: all talker stop talking and all listeners stop listening
		cmd_buf[0] = G_CMD_UNT;
    147e:	8f e5       	ldi	r24, 0x5F	; 95
    1480:	80 93 e2 04 	sts	0x04E2, r24
		gpib_cmd(cmd_buf, 1);
    1484:	82 ee       	ldi	r24, 0xE2	; 226
    1486:	94 e0       	ldi	r25, 0x04	; 4
    1488:	61 e0       	ldi	r22, 0x01	; 1
    148a:	70 e0       	ldi	r23, 0x00	; 0
    148c:	0e 94 a3 05 	call	0xb46	; 0xb46 <gpib_cmd>
		cmd_buf[0] = G_CMD_UNL;
    1490:	8f e3       	ldi	r24, 0x3F	; 63
    1492:	80 93 e2 04 	sts	0x04E2, r24
		gpib_cmd(cmd_buf, 1);
    1496:	82 ee       	ldi	r24, 0xE2	; 226
    1498:	94 e0       	ldi	r25, 0x04	; 4
    149a:	61 e0       	ldi	r22, 0x01	; 1
    149c:	70 e0       	ldi	r23, 0x00	; 0
    149e:	0e 94 a3 05 	call	0xb46	; 0xb46 <gpib_cmd>

		if (b & (1 << 6)) {
    14a2:	8f 81       	ldd	r24, Y+7	; 0x07
    14a4:	88 2f       	mov	r24, r24
    14a6:	90 e0       	ldi	r25, 0x00	; 0
    14a8:	80 74       	andi	r24, 0x40	; 64
    14aa:	90 70       	andi	r25, 0x00	; 0
    14ac:	00 97       	sbiw	r24, 0x00	; 0
    14ae:	31 f1       	breq	.+76     	; 0x14fc <gpib_serial_poll+0x160>
			found = address;
    14b0:	8d 81       	ldd	r24, Y+5	; 0x05
    14b2:	8c 83       	std	Y+4, r24	; 0x04
			foundPhysical = TalkerAddress2Address(found);
    14b4:	8c 81       	ldd	r24, Y+4	; 0x04
    14b6:	80 54       	subi	r24, 0x40	; 64
    14b8:	8b 83       	std	Y+3, r24	; 0x03
			// bit 6 of status byte of SRQ emitter is 1
			// when reading status byte from emitter, he releases SRQ line (may also be tested here)
			sprintf((char*) cmd_buf,
    14ba:	8b 81       	ldd	r24, Y+3	; 0x03
    14bc:	28 2f       	mov	r18, r24
    14be:	30 e0       	ldi	r19, 0x00	; 0
    14c0:	00 d0       	rcall	.+0      	; 0x14c2 <gpib_serial_poll+0x126>
    14c2:	00 d0       	rcall	.+0      	; 0x14c4 <gpib_serial_poll+0x128>
    14c4:	00 d0       	rcall	.+0      	; 0x14c6 <gpib_serial_poll+0x12a>
    14c6:	ed b7       	in	r30, 0x3d	; 61
    14c8:	fe b7       	in	r31, 0x3e	; 62
    14ca:	31 96       	adiw	r30, 0x01	; 1
    14cc:	82 ee       	ldi	r24, 0xE2	; 226
    14ce:	94 e0       	ldi	r25, 0x04	; 4
    14d0:	91 83       	std	Z+1, r25	; 0x01
    14d2:	80 83       	st	Z, r24
    14d4:	8e e7       	ldi	r24, 0x7E	; 126
    14d6:	91 e0       	ldi	r25, 0x01	; 1
    14d8:	93 83       	std	Z+3, r25	; 0x03
    14da:	82 83       	std	Z+2, r24	; 0x02
    14dc:	35 83       	std	Z+5, r19	; 0x05
    14de:	24 83       	std	Z+4, r18	; 0x04
    14e0:	0e 94 da 00 	call	0x1b4	; 0x1b4 <sprintf>
    14e4:	8d b7       	in	r24, 0x3d	; 61
    14e6:	9e b7       	in	r25, 0x3e	; 62
    14e8:	06 96       	adiw	r24, 0x06	; 6
    14ea:	0f b6       	in	r0, 0x3f	; 63
    14ec:	f8 94       	cli
    14ee:	9e bf       	out	0x3e, r25	; 62
    14f0:	0f be       	out	0x3f, r0	; 63
    14f2:	8d bf       	out	0x3d, r24	; 61
					"SRQ emitter is device = 0x%02x (physical address)\n\r",
					foundPhysical);
			uart_puts((char*) cmd_buf);
    14f4:	82 ee       	ldi	r24, 0xE2	; 226
    14f6:	94 e0       	ldi	r25, 0x04	; 4
    14f8:	0e 94 3b 11 	call	0x2276	; 0x2276 <uart_puts>
	cmd_buf[0] = G_CMD_SPE;
	gpib_cmd(cmd_buf, 1);
	//uart_puts("after SPE\r\n");

	// searching for SRQ emitter in a loop ...
	for (i = 0; (controller.partners[i].primary != 0x00) && !found; i++) {
    14fc:	89 81       	ldd	r24, Y+1	; 0x01
    14fe:	9a 81       	ldd	r25, Y+2	; 0x02
    1500:	01 96       	adiw	r24, 0x01	; 1
    1502:	9a 83       	std	Y+2, r25	; 0x02
    1504:	89 83       	std	Y+1, r24	; 0x01
    1506:	89 81       	ldd	r24, Y+1	; 0x01
    1508:	9a 81       	ldd	r25, Y+2	; 0x02
    150a:	88 0f       	add	r24, r24
    150c:	99 1f       	adc	r25, r25
    150e:	fc 01       	movw	r30, r24
    1510:	ef 56       	subi	r30, 0x6F	; 111
    1512:	fb 4f       	sbci	r31, 0xFB	; 251
    1514:	80 81       	ld	r24, Z
    1516:	88 23       	and	r24, r24
    1518:	21 f0       	breq	.+8      	; 0x1522 <gpib_serial_poll+0x186>
    151a:	8c 81       	ldd	r24, Y+4	; 0x04
    151c:	88 23       	and	r24, r24
    151e:	09 f4       	brne	.+2      	; 0x1522 <gpib_serial_poll+0x186>
    1520:	68 cf       	rjmp	.-304    	; 0x13f2 <gpib_serial_poll+0x56>
		}
	}

	// serial poll disable
	// effect: all devices will return to normal behaviour as talker
	cmd_buf[0] = G_CMD_SPD;
    1522:	89 e1       	ldi	r24, 0x19	; 25
    1524:	80 93 e2 04 	sts	0x04E2, r24
	//uart_puts("before SPD\r\n");
	gpib_cmd(cmd_buf, 1);
    1528:	82 ee       	ldi	r24, 0xE2	; 226
    152a:	94 e0       	ldi	r25, 0x04	; 4
    152c:	61 e0       	ldi	r22, 0x01	; 1
    152e:	70 e0       	ldi	r23, 0x00	; 0
    1530:	0e 94 a3 05 	call	0xb46	; 0xb46 <gpib_cmd>
	//uart_puts("after SPD\r\n");

	// return SRQ emitter address if found
	return foundPhysical;
    1534:	8b 81       	ldd	r24, Y+3	; 0x03
}
    1536:	27 96       	adiw	r28, 0x07	; 7
    1538:	0f b6       	in	r0, 0x3f	; 63
    153a:	f8 94       	cli
    153c:	de bf       	out	0x3e, r29	; 62
    153e:	0f be       	out	0x3f, r0	; 63
    1540:	cd bf       	out	0x3d, r28	; 61
    1542:	cf 91       	pop	r28
    1544:	df 91       	pop	r29
    1546:	08 95       	ret

00001548 <gpib_set_partner_address>:

/**
 * Set device to be controlled.
 * \param address Address of device.
 */
void gpib_set_partner_address(uchar primary, uchar secondary) {
    1548:	df 93       	push	r29
    154a:	cf 93       	push	r28
    154c:	00 d0       	rcall	.+0      	; 0x154e <gpib_set_partner_address+0x6>
    154e:	cd b7       	in	r28, 0x3d	; 61
    1550:	de b7       	in	r29, 0x3e	; 62
    1552:	89 83       	std	Y+1, r24	; 0x01
    1554:	6a 83       	std	Y+2, r22	; 0x02
	controller.partner.primary = primary;
    1556:	89 81       	ldd	r24, Y+1	; 0x01
    1558:	80 93 8d 04 	sts	0x048D, r24
	controller.partner.secondary = secondary;
    155c:	8a 81       	ldd	r24, Y+2	; 0x02
    155e:	80 93 8e 04 	sts	0x048E, r24
}
    1562:	0f 90       	pop	r0
    1564:	0f 90       	pop	r0
    1566:	cf 91       	pop	r28
    1568:	df 91       	pop	r29
    156a:	08 95       	ret

0000156c <gpib_set_partner_secondary>:

/**
 * Set device to be controlled.
 * \param address Address of device.
 */
void gpib_set_partner_secondary(uchar secondary) {
    156c:	df 93       	push	r29
    156e:	cf 93       	push	r28
    1570:	0f 92       	push	r0
    1572:	cd b7       	in	r28, 0x3d	; 61
    1574:	de b7       	in	r29, 0x3e	; 62
    1576:	89 83       	std	Y+1, r24	; 0x01
	controller.partner.secondary = secondary;
    1578:	89 81       	ldd	r24, Y+1	; 0x01
    157a:	80 93 8e 04 	sts	0x048E, r24
}
    157e:	0f 90       	pop	r0
    1580:	cf 91       	pop	r28
    1582:	df 91       	pop	r29
    1584:	08 95       	ret

00001586 <gpib_get_partner_pad>:

/**
 * Get primary address of device currently controlled.
 * \returns primary address Address of device.
 */
uchar gpib_get_partner_pad(void) {
    1586:	df 93       	push	r29
    1588:	cf 93       	push	r28
    158a:	cd b7       	in	r28, 0x3d	; 61
    158c:	de b7       	in	r29, 0x3e	; 62
	return controller.partner.primary;
    158e:	80 91 8d 04 	lds	r24, 0x048D
}
    1592:	cf 91       	pop	r28
    1594:	df 91       	pop	r29
    1596:	08 95       	ret

00001598 <gpib_get_partner_sad>:

/**
 * Get secondary address of device currently controlled.
 * \returns secondary address Address of device.
 */
uchar gpib_get_partner_sad(void) {
    1598:	df 93       	push	r29
    159a:	cf 93       	push	r28
    159c:	cd b7       	in	r28, 0x3d	; 61
    159e:	de b7       	in	r29, 0x3e	; 62
	return controller.partner.secondary;
    15a0:	80 91 8e 04 	lds	r24, 0x048E
}
    15a4:	cf 91       	pop	r28
    15a6:	df 91       	pop	r29
    15a8:	08 95       	ret

000015aa <gpib_get_address>:

/**
 * Get controller address.
 * \returns address of controller.
 */
uchar gpib_get_address(void) {
    15aa:	df 93       	push	r29
    15ac:	cf 93       	push	r28
    15ae:	cd b7       	in	r28, 0x3d	; 61
    15b0:	de b7       	in	r29, 0x3e	; 62
	return controller.myaddress;
    15b2:	80 91 8c 04 	lds	r24, 0x048C
}
    15b6:	cf 91       	pop	r28
    15b8:	df 91       	pop	r29
    15ba:	08 95       	ret

000015bc <gpib_set_flavour>:

void gpib_set_flavour(uchar flavour) {
    15bc:	df 93       	push	r29
    15be:	cf 93       	push	r28
    15c0:	0f 92       	push	r0
    15c2:	cd b7       	in	r28, 0x3d	; 61
    15c4:	de b7       	in	r29, 0x3e	; 62
    15c6:	89 83       	std	Y+1, r24	; 0x01
	controller.flavour = flavour;
    15c8:	89 81       	ldd	r24, Y+1	; 0x01
    15ca:	80 93 90 04 	sts	0x0490, r24
}
    15ce:	0f 90       	pop	r0
    15d0:	cf 91       	pop	r28
    15d2:	df 91       	pop	r29
    15d4:	08 95       	ret

000015d6 <gpib_get_flavour>:

uchar gpib_get_flavour(void) {
    15d6:	df 93       	push	r29
    15d8:	cf 93       	push	r28
    15da:	cd b7       	in	r28, 0x3d	; 61
    15dc:	de b7       	in	r29, 0x3e	; 62
	return controller.flavour;
    15de:	80 91 90 04 	lds	r24, 0x0490
}
    15e2:	cf 91       	pop	r28
    15e4:	df 91       	pop	r29
    15e6:	08 95       	ret

000015e8 <gpib_clear_partners>:

void gpib_clear_partners() {
    15e8:	df 93       	push	r29
    15ea:	cf 93       	push	r28
    15ec:	00 d0       	rcall	.+0      	; 0x15ee <gpib_clear_partners+0x6>
    15ee:	cd b7       	in	r28, 0x3d	; 61
    15f0:	de b7       	in	r29, 0x3e	; 62
	for (int i = 0; i < MAX_PARTNER; i++) {
    15f2:	1a 82       	std	Y+2, r1	; 0x02
    15f4:	19 82       	std	Y+1, r1	; 0x01
    15f6:	0e c0       	rjmp	.+28     	; 0x1614 <gpib_clear_partners+0x2c>
		controller.partners[i].primary = ADDRESS_NOT_SET;
    15f8:	89 81       	ldd	r24, Y+1	; 0x01
    15fa:	9a 81       	ldd	r25, Y+2	; 0x02
    15fc:	88 0f       	add	r24, r24
    15fe:	99 1f       	adc	r25, r25
    1600:	fc 01       	movw	r30, r24
    1602:	ef 56       	subi	r30, 0x6F	; 111
    1604:	fb 4f       	sbci	r31, 0xFB	; 251
    1606:	8f ef       	ldi	r24, 0xFF	; 255
    1608:	80 83       	st	Z, r24
uchar gpib_get_flavour(void) {
	return controller.flavour;
}

void gpib_clear_partners() {
	for (int i = 0; i < MAX_PARTNER; i++) {
    160a:	89 81       	ldd	r24, Y+1	; 0x01
    160c:	9a 81       	ldd	r25, Y+2	; 0x02
    160e:	01 96       	adiw	r24, 0x01	; 1
    1610:	9a 83       	std	Y+2, r25	; 0x02
    1612:	89 83       	std	Y+1, r24	; 0x01
    1614:	89 81       	ldd	r24, Y+1	; 0x01
    1616:	9a 81       	ldd	r25, Y+2	; 0x02
    1618:	85 30       	cpi	r24, 0x05	; 5
    161a:	91 05       	cpc	r25, r1
    161c:	6c f3       	brlt	.-38     	; 0x15f8 <gpib_clear_partners+0x10>
		controller.partners[i].primary = ADDRESS_NOT_SET;
	}
}
    161e:	0f 90       	pop	r0
    1620:	0f 90       	pop	r0
    1622:	cf 91       	pop	r28
    1624:	df 91       	pop	r29
    1626:	08 95       	ret

00001628 <gpib_add_partner_address>:

/**
 * Add partner to list of known devices. Only these acre scanned during a serial poll.
 */
uchar gpib_add_partner_address(uchar primary, uchar secondary) {
    1628:	df 93       	push	r29
    162a:	cf 93       	push	r28
    162c:	00 d0       	rcall	.+0      	; 0x162e <gpib_add_partner_address+0x6>
    162e:	00 d0       	rcall	.+0      	; 0x1630 <gpib_add_partner_address+0x8>
    1630:	0f 92       	push	r0
    1632:	cd b7       	in	r28, 0x3d	; 61
    1634:	de b7       	in	r29, 0x3e	; 62
    1636:	8b 83       	std	Y+3, r24	; 0x03
    1638:	6c 83       	std	Y+4, r22	; 0x04
	int i;
	for (i = 0;
    163a:	1a 82       	std	Y+2, r1	; 0x02
    163c:	19 82       	std	Y+1, r1	; 0x01
    163e:	05 c0       	rjmp	.+10     	; 0x164a <gpib_add_partner_address+0x22>
			i < MAX_PARTNER && controller.partners[i].primary != ADDRESS_NOT_SET;
			i++) {
    1640:	89 81       	ldd	r24, Y+1	; 0x01
    1642:	9a 81       	ldd	r25, Y+2	; 0x02
    1644:	01 96       	adiw	r24, 0x01	; 1
    1646:	9a 83       	std	Y+2, r25	; 0x02
    1648:	89 83       	std	Y+1, r24	; 0x01
 * Add partner to list of known devices. Only these acre scanned during a serial poll.
 */
uchar gpib_add_partner_address(uchar primary, uchar secondary) {
	int i;
	for (i = 0;
			i < MAX_PARTNER && controller.partners[i].primary != ADDRESS_NOT_SET;
    164a:	89 81       	ldd	r24, Y+1	; 0x01
    164c:	9a 81       	ldd	r25, Y+2	; 0x02
    164e:	85 30       	cpi	r24, 0x05	; 5
    1650:	91 05       	cpc	r25, r1
    1652:	54 f4       	brge	.+20     	; 0x1668 <gpib_add_partner_address+0x40>
    1654:	89 81       	ldd	r24, Y+1	; 0x01
    1656:	9a 81       	ldd	r25, Y+2	; 0x02
    1658:	88 0f       	add	r24, r24
    165a:	99 1f       	adc	r25, r25
    165c:	fc 01       	movw	r30, r24
    165e:	ef 56       	subi	r30, 0x6F	; 111
    1660:	fb 4f       	sbci	r31, 0xFB	; 251
    1662:	80 81       	ld	r24, Z
    1664:	8f 3f       	cpi	r24, 0xFF	; 255
    1666:	61 f7       	brne	.-40     	; 0x1640 <gpib_add_partner_address+0x18>
			i++) {
	}
	if (i == MAX_PARTNER) {
    1668:	89 81       	ldd	r24, Y+1	; 0x01
    166a:	9a 81       	ldd	r25, Y+2	; 0x02
    166c:	85 30       	cpi	r24, 0x05	; 5
    166e:	91 05       	cpc	r25, r1
    1670:	39 f4       	brne	.+14     	; 0x1680 <gpib_add_partner_address+0x58>
		uart_puts("Too much partners.\n\r");
    1672:	82 eb       	ldi	r24, 0xB2	; 178
    1674:	91 e0       	ldi	r25, 0x01	; 1
    1676:	0e 94 3b 11 	call	0x2276	; 0x2276 <uart_puts>
		return 1;
    167a:	81 e0       	ldi	r24, 0x01	; 1
    167c:	8d 83       	std	Y+5, r24	; 0x05
    167e:	14 c0       	rjmp	.+40     	; 0x16a8 <gpib_add_partner_address+0x80>
	}
	controller.partners[i].primary = primary;
    1680:	89 81       	ldd	r24, Y+1	; 0x01
    1682:	9a 81       	ldd	r25, Y+2	; 0x02
    1684:	88 0f       	add	r24, r24
    1686:	99 1f       	adc	r25, r25
    1688:	fc 01       	movw	r30, r24
    168a:	ef 56       	subi	r30, 0x6F	; 111
    168c:	fb 4f       	sbci	r31, 0xFB	; 251
    168e:	8b 81       	ldd	r24, Y+3	; 0x03
    1690:	80 83       	st	Z, r24
	controller.partners[i].secondary = secondary;
    1692:	89 81       	ldd	r24, Y+1	; 0x01
    1694:	9a 81       	ldd	r25, Y+2	; 0x02
    1696:	03 96       	adiw	r24, 0x03	; 3
    1698:	88 0f       	add	r24, r24
    169a:	99 1f       	adc	r25, r25
    169c:	fc 01       	movw	r30, r24
    169e:	e4 57       	subi	r30, 0x74	; 116
    16a0:	fb 4f       	sbci	r31, 0xFB	; 251
    16a2:	8c 81       	ldd	r24, Y+4	; 0x04
    16a4:	80 83       	st	Z, r24
	return 0;
    16a6:	1d 82       	std	Y+5, r1	; 0x05
    16a8:	8d 81       	ldd	r24, Y+5	; 0x05
}
    16aa:	0f 90       	pop	r0
    16ac:	0f 90       	pop	r0
    16ae:	0f 90       	pop	r0
    16b0:	0f 90       	pop	r0
    16b2:	0f 90       	pop	r0
    16b4:	cf 91       	pop	r28
    16b6:	df 91       	pop	r29
    16b8:	08 95       	ret

000016ba <gpib_remove_partner_address>:

uchar gpib_remove_partner_address(uchar primary, uchar secondary) {
    16ba:	df 93       	push	r29
    16bc:	cf 93       	push	r28
    16be:	00 d0       	rcall	.+0      	; 0x16c0 <gpib_remove_partner_address+0x6>
    16c0:	00 d0       	rcall	.+0      	; 0x16c2 <gpib_remove_partner_address+0x8>
    16c2:	0f 92       	push	r0
    16c4:	cd b7       	in	r28, 0x3d	; 61
    16c6:	de b7       	in	r29, 0x3e	; 62
    16c8:	8b 83       	std	Y+3, r24	; 0x03
    16ca:	6c 83       	std	Y+4, r22	; 0x04
	int i;
	for (i = 0; i < MAX_PARTNER && (controller.partners[i].primary != primary ||
    16cc:	1a 82       	std	Y+2, r1	; 0x02
    16ce:	19 82       	std	Y+1, r1	; 0x01
    16d0:	05 c0       	rjmp	.+10     	; 0x16dc <gpib_remove_partner_address+0x22>
	controller.partners[i].secondary != secondary);
			i++) {
    16d2:	89 81       	ldd	r24, Y+1	; 0x01
    16d4:	9a 81       	ldd	r25, Y+2	; 0x02
    16d6:	01 96       	adiw	r24, 0x01	; 1
    16d8:	9a 83       	std	Y+2, r25	; 0x02
    16da:	89 83       	std	Y+1, r24	; 0x01
	return 0;
}

uchar gpib_remove_partner_address(uchar primary, uchar secondary) {
	int i;
	for (i = 0; i < MAX_PARTNER && (controller.partners[i].primary != primary ||
    16dc:	89 81       	ldd	r24, Y+1	; 0x01
    16de:	9a 81       	ldd	r25, Y+2	; 0x02
    16e0:	85 30       	cpi	r24, 0x05	; 5
    16e2:	91 05       	cpc	r25, r1
    16e4:	bc f4       	brge	.+46     	; 0x1714 <gpib_remove_partner_address+0x5a>
    16e6:	89 81       	ldd	r24, Y+1	; 0x01
    16e8:	9a 81       	ldd	r25, Y+2	; 0x02
    16ea:	88 0f       	add	r24, r24
    16ec:	99 1f       	adc	r25, r25
    16ee:	fc 01       	movw	r30, r24
    16f0:	ef 56       	subi	r30, 0x6F	; 111
    16f2:	fb 4f       	sbci	r31, 0xFB	; 251
    16f4:	90 81       	ld	r25, Z
    16f6:	8b 81       	ldd	r24, Y+3	; 0x03
    16f8:	98 17       	cp	r25, r24
    16fa:	59 f7       	brne	.-42     	; 0x16d2 <gpib_remove_partner_address+0x18>
    16fc:	89 81       	ldd	r24, Y+1	; 0x01
    16fe:	9a 81       	ldd	r25, Y+2	; 0x02
    1700:	03 96       	adiw	r24, 0x03	; 3
    1702:	88 0f       	add	r24, r24
    1704:	99 1f       	adc	r25, r25
    1706:	fc 01       	movw	r30, r24
    1708:	e4 57       	subi	r30, 0x74	; 116
    170a:	fb 4f       	sbci	r31, 0xFB	; 251
    170c:	90 81       	ld	r25, Z
    170e:	8c 81       	ldd	r24, Y+4	; 0x04
    1710:	98 17       	cp	r25, r24
    1712:	f9 f6       	brne	.-66     	; 0x16d2 <gpib_remove_partner_address+0x18>
	controller.partners[i].secondary != secondary);
			i++) {
	}
	if (i == MAX_PARTNER) {
    1714:	89 81       	ldd	r24, Y+1	; 0x01
    1716:	9a 81       	ldd	r25, Y+2	; 0x02
    1718:	85 30       	cpi	r24, 0x05	; 5
    171a:	91 05       	cpc	r25, r1
    171c:	39 f4       	brne	.+14     	; 0x172c <gpib_remove_partner_address+0x72>
		uart_puts("Partner unknown.\n\r");
    171e:	87 ec       	ldi	r24, 0xC7	; 199
    1720:	91 e0       	ldi	r25, 0x01	; 1
    1722:	0e 94 3b 11 	call	0x2276	; 0x2276 <uart_puts>
		return 1;
    1726:	81 e0       	ldi	r24, 0x01	; 1
    1728:	8d 83       	std	Y+5, r24	; 0x05
    172a:	14 c0       	rjmp	.+40     	; 0x1754 <gpib_remove_partner_address+0x9a>
	}
	controller.partners[i].primary = ADDRESS_NOT_SET;
    172c:	89 81       	ldd	r24, Y+1	; 0x01
    172e:	9a 81       	ldd	r25, Y+2	; 0x02
    1730:	88 0f       	add	r24, r24
    1732:	99 1f       	adc	r25, r25
    1734:	fc 01       	movw	r30, r24
    1736:	ef 56       	subi	r30, 0x6F	; 111
    1738:	fb 4f       	sbci	r31, 0xFB	; 251
    173a:	8f ef       	ldi	r24, 0xFF	; 255
    173c:	80 83       	st	Z, r24
	controller.partners[i].secondary = ADDRESS_NOT_SET;
    173e:	89 81       	ldd	r24, Y+1	; 0x01
    1740:	9a 81       	ldd	r25, Y+2	; 0x02
    1742:	03 96       	adiw	r24, 0x03	; 3
    1744:	88 0f       	add	r24, r24
    1746:	99 1f       	adc	r25, r25
    1748:	fc 01       	movw	r30, r24
    174a:	e4 57       	subi	r30, 0x74	; 116
    174c:	fb 4f       	sbci	r31, 0xFB	; 251
    174e:	8f ef       	ldi	r24, 0xFF	; 255
    1750:	80 83       	st	Z, r24
	return 0;
    1752:	1d 82       	std	Y+5, r1	; 0x05
    1754:	8d 81       	ldd	r24, Y+5	; 0x05

}
    1756:	0f 90       	pop	r0
    1758:	0f 90       	pop	r0
    175a:	0f 90       	pop	r0
    175c:	0f 90       	pop	r0
    175e:	0f 90       	pop	r0
    1760:	cf 91       	pop	r28
    1762:	df 91       	pop	r29
    1764:	08 95       	ret

00001766 <stringToTwoUchars>:

/**
 * Read two integers from string like "45 56" or one integer. In latter case
 * the second integer is initialized with a special value.
 */
void stringToTwoUchars(char *string, uchar *a, uchar *b) {
    1766:	df 93       	push	r29
    1768:	cf 93       	push	r28
    176a:	cd b7       	in	r28, 0x3d	; 61
    176c:	de b7       	in	r29, 0x3e	; 62
    176e:	28 97       	sbiw	r28, 0x08	; 8
    1770:	0f b6       	in	r0, 0x3f	; 63
    1772:	f8 94       	cli
    1774:	de bf       	out	0x3e, r29	; 62
    1776:	0f be       	out	0x3f, r0	; 63
    1778:	cd bf       	out	0x3d, r28	; 61
    177a:	9c 83       	std	Y+4, r25	; 0x04
    177c:	8b 83       	std	Y+3, r24	; 0x03
    177e:	7e 83       	std	Y+6, r23	; 0x06
    1780:	6d 83       	std	Y+5, r22	; 0x05
    1782:	58 87       	std	Y+8, r21	; 0x08
    1784:	4f 83       	std	Y+7, r20	; 0x07
	char *token = strtok(string, " ");
    1786:	8b 81       	ldd	r24, Y+3	; 0x03
    1788:	9c 81       	ldd	r25, Y+4	; 0x04
    178a:	2a ed       	ldi	r18, 0xDA	; 218
    178c:	31 e0       	ldi	r19, 0x01	; 1
    178e:	b9 01       	movw	r22, r18
    1790:	0e 94 87 00 	call	0x10e	; 0x10e <strtok>
    1794:	9a 83       	std	Y+2, r25	; 0x02
    1796:	89 83       	std	Y+1, r24	; 0x01
	*a = atoi((char*) token);
    1798:	89 81       	ldd	r24, Y+1	; 0x01
    179a:	9a 81       	ldd	r25, Y+2	; 0x02
    179c:	0e 94 69 00 	call	0xd2	; 0xd2 <atoi>
    17a0:	ed 81       	ldd	r30, Y+5	; 0x05
    17a2:	fe 81       	ldd	r31, Y+6	; 0x06
    17a4:	80 83       	st	Z, r24
	token = strtok(NULL, " ");
    17a6:	2a ed       	ldi	r18, 0xDA	; 218
    17a8:	31 e0       	ldi	r19, 0x01	; 1
    17aa:	80 e0       	ldi	r24, 0x00	; 0
    17ac:	90 e0       	ldi	r25, 0x00	; 0
    17ae:	b9 01       	movw	r22, r18
    17b0:	0e 94 87 00 	call	0x10e	; 0x10e <strtok>
    17b4:	9a 83       	std	Y+2, r25	; 0x02
    17b6:	89 83       	std	Y+1, r24	; 0x01
	if (token != NULL) {
    17b8:	89 81       	ldd	r24, Y+1	; 0x01
    17ba:	9a 81       	ldd	r25, Y+2	; 0x02
    17bc:	00 97       	sbiw	r24, 0x00	; 0
    17be:	41 f0       	breq	.+16     	; 0x17d0 <stringToTwoUchars+0x6a>
		*b = atoi((char*) token);
    17c0:	89 81       	ldd	r24, Y+1	; 0x01
    17c2:	9a 81       	ldd	r25, Y+2	; 0x02
    17c4:	0e 94 69 00 	call	0xd2	; 0xd2 <atoi>
    17c8:	ef 81       	ldd	r30, Y+7	; 0x07
    17ca:	f8 85       	ldd	r31, Y+8	; 0x08
    17cc:	80 83       	st	Z, r24
    17ce:	04 c0       	rjmp	.+8      	; 0x17d8 <stringToTwoUchars+0x72>
	} else {
		*b = ADDRESS_NOT_SET;
    17d0:	ef 81       	ldd	r30, Y+7	; 0x07
    17d2:	f8 85       	ldd	r31, Y+8	; 0x08
    17d4:	8f ef       	ldi	r24, 0xFF	; 255
    17d6:	80 83       	st	Z, r24
	}
}
    17d8:	28 96       	adiw	r28, 0x08	; 8
    17da:	0f b6       	in	r0, 0x3f	; 63
    17dc:	f8 94       	cli
    17de:	de bf       	out	0x3e, r29	; 62
    17e0:	0f be       	out	0x3f, r0	; 63
    17e2:	cd bf       	out	0x3d, r28	; 61
    17e4:	cf 91       	pop	r28
    17e6:	df 91       	pop	r29
    17e8:	08 95       	ret

000017ea <handle_internal_commands>:

/**
 * Handles builtin commands.
 */
void handle_internal_commands(uchar *commandString) {
    17ea:	df 93       	push	r29
    17ec:	cf 93       	push	r28
    17ee:	cd b7       	in	r28, 0x3d	; 61
    17f0:	de b7       	in	r29, 0x3e	; 62
    17f2:	c6 54       	subi	r28, 0x46	; 70
    17f4:	d0 40       	sbci	r29, 0x00	; 0
    17f6:	0f b6       	in	r0, 0x3f	; 63
    17f8:	f8 94       	cli
    17fa:	de bf       	out	0x3e, r29	; 62
    17fc:	0f be       	out	0x3f, r0	; 63
    17fe:	cd bf       	out	0x3d, r28	; 61
    1800:	fe 01       	movw	r30, r28
    1802:	ed 5b       	subi	r30, 0xBD	; 189
    1804:	ff 4f       	sbci	r31, 0xFF	; 255
    1806:	91 83       	std	Z+1, r25	; 0x01
    1808:	80 83       	st	Z, r24
	uchar sbuf[64];
	uchar val, val1;

	switch (buf[1]) {
    180a:	80 91 47 05 	lds	r24, 0x0547
    180e:	28 2f       	mov	r18, r24
    1810:	30 e0       	ldi	r19, 0x00	; 0
    1812:	27 96       	adiw	r28, 0x07	; 7
    1814:	3f af       	std	Y+63, r19	; 0x3f
    1816:	2e af       	std	Y+62, r18	; 0x3e
    1818:	27 97       	sbiw	r28, 0x07	; 7
    181a:	27 96       	adiw	r28, 0x07	; 7
    181c:	8e ad       	ldd	r24, Y+62	; 0x3e
    181e:	9f ad       	ldd	r25, Y+63	; 0x3f
    1820:	27 97       	sbiw	r28, 0x07	; 7
    1822:	88 36       	cpi	r24, 0x68	; 104
    1824:	91 05       	cpc	r25, r1
    1826:	09 f4       	brne	.+2      	; 0x182a <handle_internal_commands+0x40>
    1828:	3e c1       	rjmp	.+636    	; 0x1aa6 <handle_internal_commands+0x2bc>
    182a:	27 96       	adiw	r28, 0x07	; 7
    182c:	2e ad       	ldd	r18, Y+62	; 0x3e
    182e:	3f ad       	ldd	r19, Y+63	; 0x3f
    1830:	27 97       	sbiw	r28, 0x07	; 7
    1832:	29 36       	cpi	r18, 0x69	; 105
    1834:	31 05       	cpc	r19, r1
    1836:	c4 f4       	brge	.+48     	; 0x1868 <handle_internal_commands+0x7e>
    1838:	27 96       	adiw	r28, 0x07	; 7
    183a:	8e ad       	ldd	r24, Y+62	; 0x3e
    183c:	9f ad       	ldd	r25, Y+63	; 0x3f
    183e:	27 97       	sbiw	r28, 0x07	; 7
    1840:	8d 32       	cpi	r24, 0x2D	; 45
    1842:	91 05       	cpc	r25, r1
    1844:	09 f4       	brne	.+2      	; 0x1848 <handle_internal_commands+0x5e>
    1846:	e6 c0       	rjmp	.+460    	; 0x1a14 <handle_internal_commands+0x22a>
    1848:	27 96       	adiw	r28, 0x07	; 7
    184a:	2e ad       	ldd	r18, Y+62	; 0x3e
    184c:	3f ad       	ldd	r19, Y+63	; 0x3f
    184e:	27 97       	sbiw	r28, 0x07	; 7
    1850:	21 36       	cpi	r18, 0x61	; 97
    1852:	31 05       	cpc	r19, r1
    1854:	d1 f0       	breq	.+52     	; 0x188a <handle_internal_commands+0xa0>
    1856:	27 96       	adiw	r28, 0x07	; 7
    1858:	8e ad       	ldd	r24, Y+62	; 0x3e
    185a:	9f ad       	ldd	r25, Y+63	; 0x3f
    185c:	27 97       	sbiw	r28, 0x07	; 7
    185e:	8b 32       	cpi	r24, 0x2B	; 43
    1860:	91 05       	cpc	r25, r1
    1862:	09 f4       	brne	.+2      	; 0x1866 <handle_internal_commands+0x7c>
    1864:	8e c0       	rjmp	.+284    	; 0x1982 <handle_internal_commands+0x198>
    1866:	25 c1       	rjmp	.+586    	; 0x1ab2 <handle_internal_commands+0x2c8>
    1868:	27 96       	adiw	r28, 0x07	; 7
    186a:	2e ad       	ldd	r18, Y+62	; 0x3e
    186c:	3f ad       	ldd	r19, Y+63	; 0x3f
    186e:	27 97       	sbiw	r28, 0x07	; 7
    1870:	29 36       	cpi	r18, 0x69	; 105
    1872:	31 05       	cpc	r19, r1
    1874:	09 f4       	brne	.+2      	; 0x1878 <handle_internal_commands+0x8e>
    1876:	1a c1       	rjmp	.+564    	; 0x1aac <handle_internal_commands+0x2c2>
    1878:	27 96       	adiw	r28, 0x07	; 7
    187a:	8e ad       	ldd	r24, Y+62	; 0x3e
    187c:	9f ad       	ldd	r25, Y+63	; 0x3f
    187e:	27 97       	sbiw	r28, 0x07	; 7
    1880:	83 37       	cpi	r24, 0x73	; 115
    1882:	91 05       	cpc	r25, r1
    1884:	09 f4       	brne	.+2      	; 0x1888 <handle_internal_commands+0x9e>
    1886:	4a c0       	rjmp	.+148    	; 0x191c <handle_internal_commands+0x132>
    1888:	14 c1       	rjmp	.+552    	; 0x1ab2 <handle_internal_commands+0x2c8>
	case 'a':
		/* set partner primary+secondary address */
		stringToTwoUchars((char*) (&(buf[2])), &val, &val1);
    188a:	88 e4       	ldi	r24, 0x48	; 72
    188c:	95 e0       	ldi	r25, 0x05	; 5
    188e:	9e 01       	movw	r18, r28
    1890:	2f 5b       	subi	r18, 0xBF	; 191
    1892:	3f 4f       	sbci	r19, 0xFF	; 255
    1894:	ae 01       	movw	r20, r28
    1896:	4e 5b       	subi	r20, 0xBE	; 190
    1898:	5f 4f       	sbci	r21, 0xFF	; 255
    189a:	b9 01       	movw	r22, r18
    189c:	0e 94 b3 0b 	call	0x1766	; 0x1766 <stringToTwoUchars>
		sprintf(sbuf, "Set partner address, primary: %u , secondary: %u\n\r",
    18a0:	fe 01       	movw	r30, r28
    18a2:	ef 5b       	subi	r30, 0xBF	; 191
    18a4:	ff 4f       	sbci	r31, 0xFF	; 255
    18a6:	80 81       	ld	r24, Z
    18a8:	28 2f       	mov	r18, r24
    18aa:	30 e0       	ldi	r19, 0x00	; 0
    18ac:	fe 01       	movw	r30, r28
    18ae:	ee 5b       	subi	r30, 0xBE	; 190
    18b0:	ff 4f       	sbci	r31, 0xFF	; 255
    18b2:	80 81       	ld	r24, Z
    18b4:	48 2f       	mov	r20, r24
    18b6:	50 e0       	ldi	r21, 0x00	; 0
    18b8:	8d b7       	in	r24, 0x3d	; 61
    18ba:	9e b7       	in	r25, 0x3e	; 62
    18bc:	08 97       	sbiw	r24, 0x08	; 8
    18be:	0f b6       	in	r0, 0x3f	; 63
    18c0:	f8 94       	cli
    18c2:	9e bf       	out	0x3e, r25	; 62
    18c4:	0f be       	out	0x3f, r0	; 63
    18c6:	8d bf       	out	0x3d, r24	; 61
    18c8:	ed b7       	in	r30, 0x3d	; 61
    18ca:	fe b7       	in	r31, 0x3e	; 62
    18cc:	31 96       	adiw	r30, 0x01	; 1
    18ce:	ce 01       	movw	r24, r28
    18d0:	01 96       	adiw	r24, 0x01	; 1
    18d2:	91 83       	std	Z+1, r25	; 0x01
    18d4:	80 83       	st	Z, r24
    18d6:	8c ed       	ldi	r24, 0xDC	; 220
    18d8:	91 e0       	ldi	r25, 0x01	; 1
    18da:	93 83       	std	Z+3, r25	; 0x03
    18dc:	82 83       	std	Z+2, r24	; 0x02
    18de:	35 83       	std	Z+5, r19	; 0x05
    18e0:	24 83       	std	Z+4, r18	; 0x04
    18e2:	57 83       	std	Z+7, r21	; 0x07
    18e4:	46 83       	std	Z+6, r20	; 0x06
    18e6:	0e 94 da 00 	call	0x1b4	; 0x1b4 <sprintf>
    18ea:	2d b7       	in	r18, 0x3d	; 61
    18ec:	3e b7       	in	r19, 0x3e	; 62
    18ee:	28 5f       	subi	r18, 0xF8	; 248
    18f0:	3f 4f       	sbci	r19, 0xFF	; 255
    18f2:	0f b6       	in	r0, 0x3f	; 63
    18f4:	f8 94       	cli
    18f6:	3e bf       	out	0x3e, r19	; 62
    18f8:	0f be       	out	0x3f, r0	; 63
    18fa:	2d bf       	out	0x3d, r18	; 61
				val, val1);
		uart_puts(sbuf);
    18fc:	ce 01       	movw	r24, r28
    18fe:	01 96       	adiw	r24, 0x01	; 1
    1900:	0e 94 3b 11 	call	0x2276	; 0x2276 <uart_puts>
		gpib_set_partner_address(val, val1);
    1904:	fe 01       	movw	r30, r28
    1906:	ef 5b       	subi	r30, 0xBF	; 191
    1908:	ff 4f       	sbci	r31, 0xFF	; 255
    190a:	80 81       	ld	r24, Z
    190c:	fe 01       	movw	r30, r28
    190e:	ee 5b       	subi	r30, 0xBE	; 190
    1910:	ff 4f       	sbci	r31, 0xFF	; 255
    1912:	90 81       	ld	r25, Z
    1914:	69 2f       	mov	r22, r25
    1916:	0e 94 a4 0a 	call	0x1548	; 0x1548 <gpib_set_partner_address>
    191a:	d1 c0       	rjmp	.+418    	; 0x1abe <handle_internal_commands+0x2d4>
		break;
	case 's':
		/* set partner secondary address */
		val = atoi((char*) (&(buf[2])));
    191c:	88 e4       	ldi	r24, 0x48	; 72
    191e:	95 e0       	ldi	r25, 0x05	; 5
    1920:	0e 94 69 00 	call	0xd2	; 0xd2 <atoi>
    1924:	fe 01       	movw	r30, r28
    1926:	ef 5b       	subi	r30, 0xBF	; 191
    1928:	ff 4f       	sbci	r31, 0xFF	; 255
    192a:	80 83       	st	Z, r24
		sprintf(sbuf, "Set partner secondary address to %u\n\r", val);
    192c:	fe 01       	movw	r30, r28
    192e:	ef 5b       	subi	r30, 0xBF	; 191
    1930:	ff 4f       	sbci	r31, 0xFF	; 255
    1932:	80 81       	ld	r24, Z
    1934:	28 2f       	mov	r18, r24
    1936:	30 e0       	ldi	r19, 0x00	; 0
    1938:	00 d0       	rcall	.+0      	; 0x193a <handle_internal_commands+0x150>
    193a:	00 d0       	rcall	.+0      	; 0x193c <handle_internal_commands+0x152>
    193c:	00 d0       	rcall	.+0      	; 0x193e <handle_internal_commands+0x154>
    193e:	ed b7       	in	r30, 0x3d	; 61
    1940:	fe b7       	in	r31, 0x3e	; 62
    1942:	31 96       	adiw	r30, 0x01	; 1
    1944:	ce 01       	movw	r24, r28
    1946:	01 96       	adiw	r24, 0x01	; 1
    1948:	91 83       	std	Z+1, r25	; 0x01
    194a:	80 83       	st	Z, r24
    194c:	8f e0       	ldi	r24, 0x0F	; 15
    194e:	92 e0       	ldi	r25, 0x02	; 2
    1950:	93 83       	std	Z+3, r25	; 0x03
    1952:	82 83       	std	Z+2, r24	; 0x02
    1954:	35 83       	std	Z+5, r19	; 0x05
    1956:	24 83       	std	Z+4, r18	; 0x04
    1958:	0e 94 da 00 	call	0x1b4	; 0x1b4 <sprintf>
    195c:	8d b7       	in	r24, 0x3d	; 61
    195e:	9e b7       	in	r25, 0x3e	; 62
    1960:	06 96       	adiw	r24, 0x06	; 6
    1962:	0f b6       	in	r0, 0x3f	; 63
    1964:	f8 94       	cli
    1966:	9e bf       	out	0x3e, r25	; 62
    1968:	0f be       	out	0x3f, r0	; 63
    196a:	8d bf       	out	0x3d, r24	; 61
		uart_puts(sbuf);
    196c:	ce 01       	movw	r24, r28
    196e:	01 96       	adiw	r24, 0x01	; 1
    1970:	0e 94 3b 11 	call	0x2276	; 0x2276 <uart_puts>
		gpib_set_partner_secondary(val);
    1974:	fe 01       	movw	r30, r28
    1976:	ef 5b       	subi	r30, 0xBF	; 191
    1978:	ff 4f       	sbci	r31, 0xFF	; 255
    197a:	80 81       	ld	r24, Z
    197c:	0e 94 b6 0a 	call	0x156c	; 0x156c <gpib_set_partner_secondary>
    1980:	9e c0       	rjmp	.+316    	; 0x1abe <handle_internal_commands+0x2d4>
		break;
	case '+':
		/* add device */
		stringToTwoUchars((char*) (&(buf[2])), &val, &val1);
    1982:	88 e4       	ldi	r24, 0x48	; 72
    1984:	95 e0       	ldi	r25, 0x05	; 5
    1986:	9e 01       	movw	r18, r28
    1988:	2f 5b       	subi	r18, 0xBF	; 191
    198a:	3f 4f       	sbci	r19, 0xFF	; 255
    198c:	ae 01       	movw	r20, r28
    198e:	4e 5b       	subi	r20, 0xBE	; 190
    1990:	5f 4f       	sbci	r21, 0xFF	; 255
    1992:	b9 01       	movw	r22, r18
    1994:	0e 94 b3 0b 	call	0x1766	; 0x1766 <stringToTwoUchars>
		sprintf(sbuf, "Add device, primary: %u , secondary: %u\n\r", val,
    1998:	fe 01       	movw	r30, r28
    199a:	ef 5b       	subi	r30, 0xBF	; 191
    199c:	ff 4f       	sbci	r31, 0xFF	; 255
    199e:	80 81       	ld	r24, Z
    19a0:	28 2f       	mov	r18, r24
    19a2:	30 e0       	ldi	r19, 0x00	; 0
    19a4:	fe 01       	movw	r30, r28
    19a6:	ee 5b       	subi	r30, 0xBE	; 190
    19a8:	ff 4f       	sbci	r31, 0xFF	; 255
    19aa:	80 81       	ld	r24, Z
    19ac:	48 2f       	mov	r20, r24
    19ae:	50 e0       	ldi	r21, 0x00	; 0
    19b0:	8d b7       	in	r24, 0x3d	; 61
    19b2:	9e b7       	in	r25, 0x3e	; 62
    19b4:	08 97       	sbiw	r24, 0x08	; 8
    19b6:	0f b6       	in	r0, 0x3f	; 63
    19b8:	f8 94       	cli
    19ba:	9e bf       	out	0x3e, r25	; 62
    19bc:	0f be       	out	0x3f, r0	; 63
    19be:	8d bf       	out	0x3d, r24	; 61
    19c0:	ed b7       	in	r30, 0x3d	; 61
    19c2:	fe b7       	in	r31, 0x3e	; 62
    19c4:	31 96       	adiw	r30, 0x01	; 1
    19c6:	ce 01       	movw	r24, r28
    19c8:	01 96       	adiw	r24, 0x01	; 1
    19ca:	91 83       	std	Z+1, r25	; 0x01
    19cc:	80 83       	st	Z, r24
    19ce:	85 e3       	ldi	r24, 0x35	; 53
    19d0:	92 e0       	ldi	r25, 0x02	; 2
    19d2:	93 83       	std	Z+3, r25	; 0x03
    19d4:	82 83       	std	Z+2, r24	; 0x02
    19d6:	35 83       	std	Z+5, r19	; 0x05
    19d8:	24 83       	std	Z+4, r18	; 0x04
    19da:	57 83       	std	Z+7, r21	; 0x07
    19dc:	46 83       	std	Z+6, r20	; 0x06
    19de:	0e 94 da 00 	call	0x1b4	; 0x1b4 <sprintf>
    19e2:	2d b7       	in	r18, 0x3d	; 61
    19e4:	3e b7       	in	r19, 0x3e	; 62
    19e6:	28 5f       	subi	r18, 0xF8	; 248
    19e8:	3f 4f       	sbci	r19, 0xFF	; 255
    19ea:	0f b6       	in	r0, 0x3f	; 63
    19ec:	f8 94       	cli
    19ee:	3e bf       	out	0x3e, r19	; 62
    19f0:	0f be       	out	0x3f, r0	; 63
    19f2:	2d bf       	out	0x3d, r18	; 61
				val1);
		uart_puts(sbuf);
    19f4:	ce 01       	movw	r24, r28
    19f6:	01 96       	adiw	r24, 0x01	; 1
    19f8:	0e 94 3b 11 	call	0x2276	; 0x2276 <uart_puts>
		gpib_add_partner_address(val, val1);
    19fc:	fe 01       	movw	r30, r28
    19fe:	ef 5b       	subi	r30, 0xBF	; 191
    1a00:	ff 4f       	sbci	r31, 0xFF	; 255
    1a02:	80 81       	ld	r24, Z
    1a04:	fe 01       	movw	r30, r28
    1a06:	ee 5b       	subi	r30, 0xBE	; 190
    1a08:	ff 4f       	sbci	r31, 0xFF	; 255
    1a0a:	90 81       	ld	r25, Z
    1a0c:	69 2f       	mov	r22, r25
    1a0e:	0e 94 14 0b 	call	0x1628	; 0x1628 <gpib_add_partner_address>
    1a12:	55 c0       	rjmp	.+170    	; 0x1abe <handle_internal_commands+0x2d4>
		break;
	case '-':
		/* add device */
		stringToTwoUchars((char*) (&(buf[2])), &val, &val1);
    1a14:	88 e4       	ldi	r24, 0x48	; 72
    1a16:	95 e0       	ldi	r25, 0x05	; 5
    1a18:	9e 01       	movw	r18, r28
    1a1a:	2f 5b       	subi	r18, 0xBF	; 191
    1a1c:	3f 4f       	sbci	r19, 0xFF	; 255
    1a1e:	ae 01       	movw	r20, r28
    1a20:	4e 5b       	subi	r20, 0xBE	; 190
    1a22:	5f 4f       	sbci	r21, 0xFF	; 255
    1a24:	b9 01       	movw	r22, r18
    1a26:	0e 94 b3 0b 	call	0x1766	; 0x1766 <stringToTwoUchars>
		sprintf(sbuf, "Remove device, primary: %u , secondary: %u\n\r", val,
    1a2a:	fe 01       	movw	r30, r28
    1a2c:	ef 5b       	subi	r30, 0xBF	; 191
    1a2e:	ff 4f       	sbci	r31, 0xFF	; 255
    1a30:	80 81       	ld	r24, Z
    1a32:	28 2f       	mov	r18, r24
    1a34:	30 e0       	ldi	r19, 0x00	; 0
    1a36:	fe 01       	movw	r30, r28
    1a38:	ee 5b       	subi	r30, 0xBE	; 190
    1a3a:	ff 4f       	sbci	r31, 0xFF	; 255
    1a3c:	80 81       	ld	r24, Z
    1a3e:	48 2f       	mov	r20, r24
    1a40:	50 e0       	ldi	r21, 0x00	; 0
    1a42:	8d b7       	in	r24, 0x3d	; 61
    1a44:	9e b7       	in	r25, 0x3e	; 62
    1a46:	08 97       	sbiw	r24, 0x08	; 8
    1a48:	0f b6       	in	r0, 0x3f	; 63
    1a4a:	f8 94       	cli
    1a4c:	9e bf       	out	0x3e, r25	; 62
    1a4e:	0f be       	out	0x3f, r0	; 63
    1a50:	8d bf       	out	0x3d, r24	; 61
    1a52:	ed b7       	in	r30, 0x3d	; 61
    1a54:	fe b7       	in	r31, 0x3e	; 62
    1a56:	31 96       	adiw	r30, 0x01	; 1
    1a58:	ce 01       	movw	r24, r28
    1a5a:	01 96       	adiw	r24, 0x01	; 1
    1a5c:	91 83       	std	Z+1, r25	; 0x01
    1a5e:	80 83       	st	Z, r24
    1a60:	8f e5       	ldi	r24, 0x5F	; 95
    1a62:	92 e0       	ldi	r25, 0x02	; 2
    1a64:	93 83       	std	Z+3, r25	; 0x03
    1a66:	82 83       	std	Z+2, r24	; 0x02
    1a68:	35 83       	std	Z+5, r19	; 0x05
    1a6a:	24 83       	std	Z+4, r18	; 0x04
    1a6c:	57 83       	std	Z+7, r21	; 0x07
    1a6e:	46 83       	std	Z+6, r20	; 0x06
    1a70:	0e 94 da 00 	call	0x1b4	; 0x1b4 <sprintf>
    1a74:	2d b7       	in	r18, 0x3d	; 61
    1a76:	3e b7       	in	r19, 0x3e	; 62
    1a78:	28 5f       	subi	r18, 0xF8	; 248
    1a7a:	3f 4f       	sbci	r19, 0xFF	; 255
    1a7c:	0f b6       	in	r0, 0x3f	; 63
    1a7e:	f8 94       	cli
    1a80:	3e bf       	out	0x3e, r19	; 62
    1a82:	0f be       	out	0x3f, r0	; 63
    1a84:	2d bf       	out	0x3d, r18	; 61
				val1);
		uart_puts(sbuf);
    1a86:	ce 01       	movw	r24, r28
    1a88:	01 96       	adiw	r24, 0x01	; 1
    1a8a:	0e 94 3b 11 	call	0x2276	; 0x2276 <uart_puts>
		gpib_remove_partner_address(val, val1);
    1a8e:	fe 01       	movw	r30, r28
    1a90:	ef 5b       	subi	r30, 0xBF	; 191
    1a92:	ff 4f       	sbci	r31, 0xFF	; 255
    1a94:	80 81       	ld	r24, Z
    1a96:	fe 01       	movw	r30, r28
    1a98:	ee 5b       	subi	r30, 0xBE	; 190
    1a9a:	ff 4f       	sbci	r31, 0xFF	; 255
    1a9c:	90 81       	ld	r25, Z
    1a9e:	69 2f       	mov	r22, r25
    1aa0:	0e 94 5d 0b 	call	0x16ba	; 0x16ba <gpib_remove_partner_address>
    1aa4:	0c c0       	rjmp	.+24     	; 0x1abe <handle_internal_commands+0x2d4>
		break;
	case 'h':
		/* print some usage infos */
		printHelp();
    1aa6:	0e 94 a2 0f 	call	0x1f44	; 0x1f44 <printHelp>
    1aaa:	09 c0       	rjmp	.+18     	; 0x1abe <handle_internal_commands+0x2d4>
		break;
	case 'i':
		gpib_info();
    1aac:	0e 94 77 08 	call	0x10ee	; 0x10ee <gpib_info>
    1ab0:	06 c0       	rjmp	.+12     	; 0x1abe <handle_internal_commands+0x2d4>
		break;
	default:
		uart_puts("unknown command\n\r");
    1ab2:	8c e8       	ldi	r24, 0x8C	; 140
    1ab4:	92 e0       	ldi	r25, 0x02	; 2
    1ab6:	0e 94 3b 11 	call	0x2276	; 0x2276 <uart_puts>
		printHelp();
    1aba:	0e 94 a2 0f 	call	0x1f44	; 0x1f44 <printHelp>
		break;
	}
}
    1abe:	ca 5b       	subi	r28, 0xBA	; 186
    1ac0:	df 4f       	sbci	r29, 0xFF	; 255
    1ac2:	0f b6       	in	r0, 0x3f	; 63
    1ac4:	f8 94       	cli
    1ac6:	de bf       	out	0x3e, r29	; 62
    1ac8:	0f be       	out	0x3f, r0	; 63
    1aca:	cd bf       	out	0x3d, r28	; 61
    1acc:	cf 91       	pop	r28
    1ace:	df 91       	pop	r29
    1ad0:	08 95       	ret

00001ad2 <send_command>:
/**
 * Sends a command.
 *
 * Returns 1 if command is a query, 0 otherwise.
 */
uchar send_command(uchar *commandString) {
    1ad2:	df 93       	push	r29
    1ad4:	cf 93       	push	r28
    1ad6:	cd b7       	in	r28, 0x3d	; 61
    1ad8:	de b7       	in	r29, 0x3e	; 62
    1ada:	2b 97       	sbiw	r28, 0x0b	; 11
    1adc:	0f b6       	in	r0, 0x3f	; 63
    1ade:	f8 94       	cli
    1ae0:	de bf       	out	0x3e, r29	; 62
    1ae2:	0f be       	out	0x3f, r0	; 63
    1ae4:	cd bf       	out	0x3d, r28	; 61
    1ae6:	9b 87       	std	Y+11, r25	; 0x0b
    1ae8:	8a 87       	std	Y+10, r24	; 0x0a
	uchar controlString[8];
	uchar is_query;

	// send UNT and UNL commands (unlisten and untalk)
	// effect: all talker stop talking and all listeners stop listening
	controlString[0] = G_CMD_UNT;
    1aea:	8f e5       	ldi	r24, 0x5F	; 95
    1aec:	8a 83       	std	Y+2, r24	; 0x02
	gpib_cmd(controlString, 1);
    1aee:	ce 01       	movw	r24, r28
    1af0:	02 96       	adiw	r24, 0x02	; 2
    1af2:	61 e0       	ldi	r22, 0x01	; 1
    1af4:	70 e0       	ldi	r23, 0x00	; 0
    1af6:	0e 94 a3 05 	call	0xb46	; 0xb46 <gpib_cmd>
	controlString[0] = G_CMD_UNL;
    1afa:	8f e3       	ldi	r24, 0x3F	; 63
    1afc:	8a 83       	std	Y+2, r24	; 0x02
	gpib_cmd(controlString, 1);
    1afe:	ce 01       	movw	r24, r28
    1b00:	02 96       	adiw	r24, 0x02	; 2
    1b02:	61 e0       	ldi	r22, 0x01	; 1
    1b04:	70 e0       	ldi	r23, 0x00	; 0
    1b06:	0e 94 a3 05 	call	0xb46	; 0xb46 <gpib_cmd>

	// set device to listener mode
	controlString[0] = address2ListenerAddress(gpib_get_partner_pad());
    1b0a:	0e 94 c3 0a 	call	0x1586	; 0x1586 <gpib_get_partner_pad>
    1b0e:	80 5e       	subi	r24, 0xE0	; 224
    1b10:	8a 83       	std	Y+2, r24	; 0x02
	gpib_cmd(controlString, 1);
    1b12:	ce 01       	movw	r24, r28
    1b14:	02 96       	adiw	r24, 0x02	; 2
    1b16:	61 e0       	ldi	r22, 0x01	; 1
    1b18:	70 e0       	ldi	r23, 0x00	; 0
    1b1a:	0e 94 a3 05 	call	0xb46	; 0xb46 <gpib_cmd>
	// send secondary address if required
	if (gpib_get_partner_sad() != ADDRESS_NOT_SET) {
    1b1e:	0e 94 cc 0a 	call	0x1598	; 0x1598 <gpib_get_partner_sad>
    1b22:	8f 3f       	cpi	r24, 0xFF	; 255
    1b24:	51 f0       	breq	.+20     	; 0x1b3a <send_command+0x68>
		controlString[0] = secondaryAdressToAdressByte(gpib_get_partner_sad());
    1b26:	0e 94 cc 0a 	call	0x1598	; 0x1598 <gpib_get_partner_sad>
    1b2a:	80 66       	ori	r24, 0x60	; 96
    1b2c:	8a 83       	std	Y+2, r24	; 0x02
		gpib_cmd(controlString, 1);
    1b2e:	ce 01       	movw	r24, r28
    1b30:	02 96       	adiw	r24, 0x02	; 2
    1b32:	61 e0       	ldi	r22, 0x01	; 1
    1b34:	70 e0       	ldi	r23, 0x00	; 0
    1b36:	0e 94 a3 05 	call	0xb46	; 0xb46 <gpib_cmd>
	}

	// set myself (controller) to talker mode
	controlString[0] = address2TalkerAddress(gpib_get_address());
    1b3a:	0e 94 d5 0a 	call	0x15aa	; 0x15aa <gpib_get_address>
    1b3e:	80 5c       	subi	r24, 0xC0	; 192
    1b40:	8a 83       	std	Y+2, r24	; 0x02
	gpib_cmd(controlString, 1);
    1b42:	ce 01       	movw	r24, r28
    1b44:	02 96       	adiw	r24, 0x02	; 2
    1b46:	61 e0       	ldi	r22, 0x01	; 1
    1b48:	70 e0       	ldi	r23, 0x00	; 0
    1b4a:	0e 94 a3 05 	call	0xb46	; 0xb46 <gpib_cmd>
	//uart_puts("\n\rcommand: ");
	//uart_puts((char*) commandString);
	//uart_puts("\n\r");
	// gpib bus write
	// put out command to listeners
	gpib_write(commandString, 0);
    1b4e:	8a 85       	ldd	r24, Y+10	; 0x0a
    1b50:	9b 85       	ldd	r25, Y+11	; 0x0b
    1b52:	60 e0       	ldi	r22, 0x00	; 0
    1b54:	70 e0       	ldi	r23, 0x00	; 0
    1b56:	0e 94 8a 05 	call	0xb14	; 0xb14 <gpib_write>

	// check if query or command only
	if (strchr((char*) commandString, '?') != NULL) {
    1b5a:	8a 85       	ldd	r24, Y+10	; 0x0a
    1b5c:	9b 85       	ldd	r25, Y+11	; 0x0b
    1b5e:	6f e3       	ldi	r22, 0x3F	; 63
    1b60:	70 e0       	ldi	r23, 0x00	; 0
    1b62:	0e 94 8c 00 	call	0x118	; 0x118 <strchr>
    1b66:	00 97       	sbiw	r24, 0x00	; 0
    1b68:	19 f0       	breq	.+6      	; 0x1b70 <send_command+0x9e>
		//uart_puts("Query. Will check for answer.\n\r");
		is_query = 1;
    1b6a:	81 e0       	ldi	r24, 0x01	; 1
    1b6c:	89 83       	std	Y+1, r24	; 0x01
    1b6e:	01 c0       	rjmp	.+2      	; 0x1b72 <send_command+0xa0>
	} else {
		//uart_puts("Command only.\n\r");
		is_query = 0;
    1b70:	19 82       	std	Y+1, r1	; 0x01
	}
	return is_query;
    1b72:	89 81       	ldd	r24, Y+1	; 0x01
}
    1b74:	2b 96       	adiw	r28, 0x0b	; 11
    1b76:	0f b6       	in	r0, 0x3f	; 63
    1b78:	f8 94       	cli
    1b7a:	de bf       	out	0x3e, r29	; 62
    1b7c:	0f be       	out	0x3f, r0	; 63
    1b7e:	cd bf       	out	0x3d, r28	; 61
    1b80:	cf 91       	pop	r28
    1b82:	df 91       	pop	r29
    1b84:	08 95       	ret

00001b86 <receiveAnswer>:

/**
 * Receives answer after command was sent.
 */
void receiveAnswer() {
    1b86:	df 93       	push	r29
    1b88:	cf 93       	push	r28
    1b8a:	cd b7       	in	r28, 0x3d	; 61
    1b8c:	de b7       	in	r29, 0x3e	; 62
    1b8e:	2a 97       	sbiw	r28, 0x0a	; 10
    1b90:	0f b6       	in	r0, 0x3f	; 63
    1b92:	f8 94       	cli
    1b94:	de bf       	out	0x3e, r29	; 62
    1b96:	0f be       	out	0x3f, r0	; 63
    1b98:	cd bf       	out	0x3d, r28	; 61
	uchar controlString[8];
	uchar b, e;

	// UNT and UNL
	controlString[0] = G_CMD_UNT;
    1b9a:	8f e5       	ldi	r24, 0x5F	; 95
    1b9c:	8a 83       	std	Y+2, r24	; 0x02
	gpib_cmd(controlString, 1);
    1b9e:	ce 01       	movw	r24, r28
    1ba0:	02 96       	adiw	r24, 0x02	; 2
    1ba2:	61 e0       	ldi	r22, 0x01	; 1
    1ba4:	70 e0       	ldi	r23, 0x00	; 0
    1ba6:	0e 94 a3 05 	call	0xb46	; 0xb46 <gpib_cmd>
	controlString[0] = G_CMD_UNL;
    1baa:	8f e3       	ldi	r24, 0x3F	; 63
    1bac:	8a 83       	std	Y+2, r24	; 0x02
	gpib_cmd(controlString, 1);
    1bae:	ce 01       	movw	r24, r28
    1bb0:	02 96       	adiw	r24, 0x02	; 2
    1bb2:	61 e0       	ldi	r22, 0x01	; 1
    1bb4:	70 e0       	ldi	r23, 0x00	; 0
    1bb6:	0e 94 a3 05 	call	0xb46	; 0xb46 <gpib_cmd>

	// set myself (controller) to listener mode
	controlString[0] = address2ListenerAddress(gpib_get_address());
    1bba:	0e 94 d5 0a 	call	0x15aa	; 0x15aa <gpib_get_address>
    1bbe:	80 5e       	subi	r24, 0xE0	; 224
    1bc0:	8a 83       	std	Y+2, r24	; 0x02
	gpib_cmd(controlString, 1);
    1bc2:	ce 01       	movw	r24, r28
    1bc4:	02 96       	adiw	r24, 0x02	; 2
    1bc6:	61 e0       	ldi	r22, 0x01	; 1
    1bc8:	70 e0       	ldi	r23, 0x00	; 0
    1bca:	0e 94 a3 05 	call	0xb46	; 0xb46 <gpib_cmd>

	// set device to talker mode
	controlString[0] = address2TalkerAddress(gpib_get_partner_pad());
    1bce:	0e 94 c3 0a 	call	0x1586	; 0x1586 <gpib_get_partner_pad>
    1bd2:	80 5c       	subi	r24, 0xC0	; 192
    1bd4:	8a 83       	std	Y+2, r24	; 0x02
	gpib_cmd(controlString, 1);
    1bd6:	ce 01       	movw	r24, r28
    1bd8:	02 96       	adiw	r24, 0x02	; 2
    1bda:	61 e0       	ldi	r22, 0x01	; 1
    1bdc:	70 e0       	ldi	r23, 0x00	; 0
    1bde:	0e 94 a3 05 	call	0xb46	; 0xb46 <gpib_cmd>
	// secondary address if required
	if (gpib_get_partner_sad() != ADDRESS_NOT_SET) {
    1be2:	0e 94 cc 0a 	call	0x1598	; 0x1598 <gpib_get_partner_sad>
    1be6:	8f 3f       	cpi	r24, 0xFF	; 255
    1be8:	51 f0       	breq	.+20     	; 0x1bfe <receiveAnswer+0x78>
		controlString[0] = secondaryAdressToAdressByte(gpib_get_partner_sad());
    1bea:	0e 94 cc 0a 	call	0x1598	; 0x1598 <gpib_get_partner_sad>
    1bee:	80 66       	ori	r24, 0x60	; 96
    1bf0:	8a 83       	std	Y+2, r24	; 0x02
		gpib_cmd(controlString, 1);
    1bf2:	ce 01       	movw	r24, r28
    1bf4:	02 96       	adiw	r24, 0x02	; 2
    1bf6:	61 e0       	ldi	r22, 0x01	; 1
    1bf8:	70 e0       	ldi	r23, 0x00	; 0
    1bfa:	0e 94 a3 05 	call	0xb46	; 0xb46 <gpib_cmd>
	}

	// read the answer until EOI is detected (then e becomes true)
	do {
		// gpib bus receive
		e = gpib_receive(&b);
    1bfe:	ce 01       	movw	r24, r28
    1c00:	0a 96       	adiw	r24, 0x0a	; 10
    1c02:	0e 94 09 04 	call	0x812	; 0x812 <gpib_receive>
    1c06:	89 83       	std	Y+1, r24	; 0x01
		// write out character
		uart_putc(b);
    1c08:	8a 85       	ldd	r24, Y+10	; 0x0a
    1c0a:	0e 94 14 11 	call	0x2228	; 0x2228 <uart_putc>
		//sprintf((char*)buf,"%02x - %c\n\r", b, b);
		//uart_puts((char*)buf);
	} while (!e);
    1c0e:	89 81       	ldd	r24, Y+1	; 0x01
    1c10:	88 23       	and	r24, r24
    1c12:	a9 f3       	breq	.-22     	; 0x1bfe <receiveAnswer+0x78>

	// send UNT and UNL commands (unlisten and untalk)
	// effect: all talker stop talking and all listeners stop listening
	controlString[0] = G_CMD_UNT;
    1c14:	8f e5       	ldi	r24, 0x5F	; 95
    1c16:	8a 83       	std	Y+2, r24	; 0x02
	gpib_cmd(controlString, 1);
    1c18:	ce 01       	movw	r24, r28
    1c1a:	02 96       	adiw	r24, 0x02	; 2
    1c1c:	61 e0       	ldi	r22, 0x01	; 1
    1c1e:	70 e0       	ldi	r23, 0x00	; 0
    1c20:	0e 94 a3 05 	call	0xb46	; 0xb46 <gpib_cmd>
	controlString[0] = G_CMD_UNL;
    1c24:	8f e3       	ldi	r24, 0x3F	; 63
    1c26:	8a 83       	std	Y+2, r24	; 0x02
	gpib_cmd(controlString, 1);
    1c28:	ce 01       	movw	r24, r28
    1c2a:	02 96       	adiw	r24, 0x02	; 2
    1c2c:	61 e0       	ldi	r22, 0x01	; 1
    1c2e:	70 e0       	ldi	r23, 0x00	; 0
    1c30:	0e 94 a3 05 	call	0xb46	; 0xb46 <gpib_cmd>
}
    1c34:	2a 96       	adiw	r28, 0x0a	; 10
    1c36:	0f b6       	in	r0, 0x3f	; 63
    1c38:	f8 94       	cli
    1c3a:	de bf       	out	0x3e, r29	; 62
    1c3c:	0f be       	out	0x3f, r0	; 63
    1c3e:	cd bf       	out	0x3d, r28	; 61
    1c40:	cf 91       	pop	r28
    1c42:	df 91       	pop	r29
    1c44:	08 95       	ret

00001c46 <srq_occured>:

/**
 * Check if a SRQ occured
 */
uchar srq_occured(int* old_time) {
    1c46:	df 93       	push	r29
    1c48:	cf 93       	push	r28
    1c4a:	00 d0       	rcall	.+0      	; 0x1c4c <srq_occured+0x6>
    1c4c:	0f 92       	push	r0
    1c4e:	cd b7       	in	r28, 0x3d	; 61
    1c50:	de b7       	in	r29, 0x3e	; 62
    1c52:	9b 83       	std	Y+3, r25	; 0x03
    1c54:	8a 83       	std	Y+2, r24	; 0x02
	uchar srq = 0;
    1c56:	19 82       	std	Y+1, r1	; 0x01
	if (*old_time == 0) {
    1c58:	ea 81       	ldd	r30, Y+2	; 0x02
    1c5a:	fb 81       	ldd	r31, Y+3	; 0x03
    1c5c:	80 81       	ld	r24, Z
    1c5e:	91 81       	ldd	r25, Z+1	; 0x01
    1c60:	00 97       	sbiw	r24, 0x00	; 0
    1c62:	49 f4       	brne	.+18     	; 0x1c76 <srq_occured+0x30>
		// old_time value initialization on first call with value s
		*old_time = s;
    1c64:	80 91 97 05 	lds	r24, 0x0597
    1c68:	88 2f       	mov	r24, r24
    1c6a:	90 e0       	ldi	r25, 0x00	; 0
    1c6c:	ea 81       	ldd	r30, Y+2	; 0x02
    1c6e:	fb 81       	ldd	r31, Y+3	; 0x03
    1c70:	91 83       	std	Z+1, r25	; 0x01
    1c72:	80 83       	st	Z, r24
    1c74:	1e c0       	rjmp	.+60     	; 0x1cb2 <srq_occured+0x6c>
	} else {
		if (s > *old_time) {
    1c76:	80 91 97 05 	lds	r24, 0x0597
    1c7a:	28 2f       	mov	r18, r24
    1c7c:	30 e0       	ldi	r19, 0x00	; 0
    1c7e:	ea 81       	ldd	r30, Y+2	; 0x02
    1c80:	fb 81       	ldd	r31, Y+3	; 0x03
    1c82:	80 81       	ld	r24, Z
    1c84:	91 81       	ldd	r25, Z+1	; 0x01
    1c86:	82 17       	cp	r24, r18
    1c88:	93 07       	cpc	r25, r19
    1c8a:	9c f4       	brge	.+38     	; 0x1cb2 <srq_occured+0x6c>
			// some time has passed - check if srq was set
			srq = bit_is_clear(PIND, G_SRQ);
    1c8c:	e0 e3       	ldi	r30, 0x30	; 48
    1c8e:	f0 e0       	ldi	r31, 0x00	; 0
    1c90:	80 81       	ld	r24, Z
    1c92:	88 2f       	mov	r24, r24
    1c94:	90 e0       	ldi	r25, 0x00	; 0
    1c96:	80 74       	andi	r24, 0x40	; 64
    1c98:	90 70       	andi	r25, 0x00	; 0
    1c9a:	19 82       	std	Y+1, r1	; 0x01
    1c9c:	00 97       	sbiw	r24, 0x00	; 0
    1c9e:	11 f4       	brne	.+4      	; 0x1ca4 <srq_occured+0x5e>
    1ca0:	81 e0       	ldi	r24, 0x01	; 1
    1ca2:	89 83       	std	Y+1, r24	; 0x01
			if (srq)
    1ca4:	89 81       	ldd	r24, Y+1	; 0x01
    1ca6:	88 23       	and	r24, r24
    1ca8:	21 f0       	breq	.+8      	; 0x1cb2 <srq_occured+0x6c>
				uart_puts("\n\rSRQ detected.\n\r");
    1caa:	8e e9       	ldi	r24, 0x9E	; 158
    1cac:	92 e0       	ldi	r25, 0x02	; 2
    1cae:	0e 94 3b 11 	call	0x2276	; 0x2276 <uart_puts>
		}
	}
	return srq;
    1cb2:	89 81       	ldd	r24, Y+1	; 0x01
}
    1cb4:	0f 90       	pop	r0
    1cb6:	0f 90       	pop	r0
    1cb8:	0f 90       	pop	r0
    1cba:	cf 91       	pop	r28
    1cbc:	df 91       	pop	r29
    1cbe:	08 95       	ret

00001cc0 <handle_srq>:

/**
 * Handles SRQs by doing serial poll
 *
 */
uchar handle_srq(uchar *buf, int *buf_ptr) {
    1cc0:	df 93       	push	r29
    1cc2:	cf 93       	push	r28
    1cc4:	00 d0       	rcall	.+0      	; 0x1cc6 <handle_srq+0x6>
    1cc6:	00 d0       	rcall	.+0      	; 0x1cc8 <handle_srq+0x8>
    1cc8:	0f 92       	push	r0
    1cca:	cd b7       	in	r28, 0x3d	; 61
    1ccc:	de b7       	in	r29, 0x3e	; 62
    1cce:	9b 83       	std	Y+3, r25	; 0x03
    1cd0:	8a 83       	std	Y+2, r24	; 0x02
    1cd2:	7d 83       	std	Y+5, r23	; 0x05
    1cd4:	6c 83       	std	Y+4, r22	; 0x04
	uchar command_ready = 0;
    1cd6:	19 82       	std	Y+1, r1	; 0x01

	// handle srq with serial poll
	// TODO: we cannot handle SRQs from devices with secondary addresses!
	gpib_set_partner_address(gpib_serial_poll(), ADDRESS_NOT_SET);
    1cd8:	0e 94 ce 09 	call	0x139c	; 0x139c <gpib_serial_poll>
    1cdc:	6f ef       	ldi	r22, 0xFF	; 255
    1cde:	0e 94 a4 0a 	call	0x1548	; 0x1548 <gpib_set_partner_address>

	if (gpib_get_flavour() == FLAVOUR_TEK) {
    1ce2:	0e 94 eb 0a 	call	0x15d6	; 0x15d6 <gpib_get_flavour>
    1ce6:	81 30       	cpi	r24, 0x01	; 1
    1ce8:	79 f5       	brne	.+94     	; 0x1d48 <handle_srq+0x88>
		// Tek: check status for reason
		buf[0] = 'E';
    1cea:	ea 81       	ldd	r30, Y+2	; 0x02
    1cec:	fb 81       	ldd	r31, Y+3	; 0x03
    1cee:	85 e4       	ldi	r24, 0x45	; 69
    1cf0:	80 83       	st	Z, r24
		buf[1] = 'V';
    1cf2:	8a 81       	ldd	r24, Y+2	; 0x02
    1cf4:	9b 81       	ldd	r25, Y+3	; 0x03
    1cf6:	fc 01       	movw	r30, r24
    1cf8:	31 96       	adiw	r30, 0x01	; 1
    1cfa:	86 e5       	ldi	r24, 0x56	; 86
    1cfc:	80 83       	st	Z, r24
		buf[2] = 'E';
    1cfe:	8a 81       	ldd	r24, Y+2	; 0x02
    1d00:	9b 81       	ldd	r25, Y+3	; 0x03
    1d02:	fc 01       	movw	r30, r24
    1d04:	32 96       	adiw	r30, 0x02	; 2
    1d06:	85 e4       	ldi	r24, 0x45	; 69
    1d08:	80 83       	st	Z, r24
		buf[3] = 'N';
    1d0a:	8a 81       	ldd	r24, Y+2	; 0x02
    1d0c:	9b 81       	ldd	r25, Y+3	; 0x03
    1d0e:	fc 01       	movw	r30, r24
    1d10:	33 96       	adiw	r30, 0x03	; 3
    1d12:	8e e4       	ldi	r24, 0x4E	; 78
    1d14:	80 83       	st	Z, r24
		buf[4] = 'T';
    1d16:	8a 81       	ldd	r24, Y+2	; 0x02
    1d18:	9b 81       	ldd	r25, Y+3	; 0x03
    1d1a:	fc 01       	movw	r30, r24
    1d1c:	34 96       	adiw	r30, 0x04	; 4
    1d1e:	84 e5       	ldi	r24, 0x54	; 84
    1d20:	80 83       	st	Z, r24
		buf[5] = '?';
    1d22:	8a 81       	ldd	r24, Y+2	; 0x02
    1d24:	9b 81       	ldd	r25, Y+3	; 0x03
    1d26:	fc 01       	movw	r30, r24
    1d28:	35 96       	adiw	r30, 0x05	; 5
    1d2a:	8f e3       	ldi	r24, 0x3F	; 63
    1d2c:	80 83       	st	Z, r24
		buf[6] = '\0';
    1d2e:	8a 81       	ldd	r24, Y+2	; 0x02
    1d30:	9b 81       	ldd	r25, Y+3	; 0x03
    1d32:	fc 01       	movw	r30, r24
    1d34:	36 96       	adiw	r30, 0x06	; 6
    1d36:	10 82       	st	Z, r1
		*buf_ptr = 6;
    1d38:	ec 81       	ldd	r30, Y+4	; 0x04
    1d3a:	fd 81       	ldd	r31, Y+5	; 0x05
    1d3c:	86 e0       	ldi	r24, 0x06	; 6
    1d3e:	90 e0       	ldi	r25, 0x00	; 0
    1d40:	91 83       	std	Z+1, r25	; 0x01
    1d42:	80 83       	st	Z, r24
		command_ready = 1;
    1d44:	81 e0       	ldi	r24, 0x01	; 1
    1d46:	89 83       	std	Y+1, r24	; 0x01
	}
	return command_ready;
    1d48:	89 81       	ldd	r24, Y+1	; 0x01
}
    1d4a:	0f 90       	pop	r0
    1d4c:	0f 90       	pop	r0
    1d4e:	0f 90       	pop	r0
    1d50:	0f 90       	pop	r0
    1d52:	0f 90       	pop	r0
    1d54:	cf 91       	pop	r28
    1d56:	df 91       	pop	r29
    1d58:	08 95       	ret

00001d5a <main>:
 * \brief Implementation of GPIB controller. Reads a command from RS232, sends it via bus.
 * If The command contains a '?', an answer from the device is expected and read in. The
 * answer then is printed out. If an SRQ occured, a serial poll is initiated.
 * 
 */
int main(void) {
    1d5a:	df 93       	push	r29
    1d5c:	cf 93       	push	r28
    1d5e:	00 d0       	rcall	.+0      	; 0x1d60 <main+0x6>
    1d60:	00 d0       	rcall	.+0      	; 0x1d62 <main+0x8>
    1d62:	0f 92       	push	r0
    1d64:	cd b7       	in	r28, 0x3d	; 61
    1d66:	de b7       	in	r29, 0x3e	; 62
	int old_time = 0;
    1d68:	1d 82       	std	Y+5, r1	; 0x05
    1d6a:	1c 82       	std	Y+4, r1	; 0x04
	uchar is_query = 0;
    1d6c:	1b 82       	std	Y+3, r1	; 0x03
	uchar command_ready = 0;
    1d6e:	1a 82       	std	Y+2, r1	; 0x02
	uchar do_prompt = 1;
    1d70:	81 e0       	ldi	r24, 0x01	; 1
    1d72:	89 83       	std	Y+1, r24	; 0x01

	/*
	 *  Initialize UART library, pass baudrate and avr cpu clock 
	 *  with the macro UART_BAUD_SELECT()
	 */DI();
    1d74:	8c e0       	ldi	r24, 0x0C	; 12
    1d76:	90 e0       	ldi	r25, 0x00	; 0
    1d78:	0e 94 a9 10 	call	0x2152	; 0x2152 <uart_init>

	/*
	 * now enable interrupt, since UART and TIMER library is interrupt controlled
	 */sei();
    1d7c:	78 94       	sei

	/** print some usage infos */
	printHelp();
    1d7e:	0e 94 a2 0f 	call	0x1f44	; 0x1f44 <printHelp>
	/*
	 * WRITE: Controller talks and listens
	 */

	// init timer for timeout detection
	timer16_init();
    1d82:	0e 94 07 10 	call	0x200e	; 0x200e <timer16_init>

	// init gpib lines
	gpib_init();
    1d86:	0e 94 b2 03 	call	0x764	; 0x764 <gpib_init>
	// init controller part - assign bus 
	gpib_controller_assign(0x00);
    1d8a:	80 e0       	ldi	r24, 0x00	; 0
    1d8c:	0e 94 f0 04 	call	0x9e0	; 0x9e0 <gpib_controller_assign>
	 * 3. if command was a query, read the answer from device (become listener and set device to talker)
	 * 	4. check if SRQ occured and handle that
	 */
	for (;;) {

		if (do_prompt) {
    1d90:	89 81       	ldd	r24, Y+1	; 0x01
    1d92:	88 23       	and	r24, r24
    1d94:	29 f0       	breq	.+10     	; 0x1da0 <main+0x46>
			uart_puts("> ");
    1d96:	80 eb       	ldi	r24, 0xB0	; 176
    1d98:	92 e0       	ldi	r25, 0x02	; 2
    1d9a:	0e 94 3b 11 	call	0x2276	; 0x2276 <uart_puts>
			do_prompt = 0;
    1d9e:	19 82       	std	Y+1, r1	; 0x01
		}
		// input processing via rs232
		// command_ready may already been set by SRQ that occured before
		if (!command_ready)
    1da0:	8a 81       	ldd	r24, Y+2	; 0x02
    1da2:	88 23       	and	r24, r24
    1da4:	19 f4       	brne	.+6      	; 0x1dac <main+0x52>
			command_ready = input_process();
    1da6:	0e 94 2d 0f 	call	0x1e5a	; 0x1e5a <input_process>
    1daa:	8a 83       	std	Y+2, r24	; 0x02

		if (command_ready) {
    1dac:	8a 81       	ldd	r24, Y+2	; 0x02
    1dae:	88 23       	and	r24, r24
    1db0:	21 f0       	breq	.+8      	; 0x1dba <main+0x60>
			uart_puts("\n\r");
    1db2:	83 eb       	ldi	r24, 0xB3	; 179
    1db4:	92 e0       	ldi	r25, 0x02	; 2
    1db6:	0e 94 3b 11 	call	0x2276	; 0x2276 <uart_puts>
		}

		// check for internal commands
		if (command_ready && buf[0] == '.') {
    1dba:	8a 81       	ldd	r24, Y+2	; 0x02
    1dbc:	88 23       	and	r24, r24
    1dbe:	81 f0       	breq	.+32     	; 0x1de0 <main+0x86>
    1dc0:	80 91 46 05 	lds	r24, 0x0546
    1dc4:	8e 32       	cpi	r24, 0x2E	; 46
    1dc6:	61 f4       	brne	.+24     	; 0x1de0 <main+0x86>
			// all internal cmds start with a '.'
			//uart_puts("\n\rInternal command: ");
			//uart_puts((char*) buf);
			//uart_puts("\n\r");
			handle_internal_commands(buf);
    1dc8:	86 e4       	ldi	r24, 0x46	; 70
    1dca:	95 e0       	ldi	r25, 0x05	; 5
    1dcc:	0e 94 f5 0b 	call	0x17ea	; 0x17ea <handle_internal_commands>
			// reset local vars for command string reading
			buf_ptr = 0;
    1dd0:	10 92 9c 04 	sts	0x049C, r1
    1dd4:	10 92 9b 04 	sts	0x049B, r1
			command_ready = 0;
    1dd8:	1a 82       	std	Y+2, r1	; 0x02
			do_prompt = 1;
    1dda:	81 e0       	ldi	r24, 0x01	; 1
    1ddc:	89 83       	std	Y+1, r24	; 0x01
			is_query = 0;
    1dde:	1b 82       	std	Y+3, r1	; 0x03
		}

		// GPIB command. Check if a partner was defined.
		if (command_ready && (gpib_get_partner_pad() == ADDRESS_NOT_SET)) {
    1de0:	8a 81       	ldd	r24, Y+2	; 0x02
    1de2:	88 23       	and	r24, r24
    1de4:	79 f0       	breq	.+30     	; 0x1e04 <main+0xaa>
    1de6:	0e 94 c3 0a 	call	0x1586	; 0x1586 <gpib_get_partner_pad>
    1dea:	8f 3f       	cpi	r24, 0xFF	; 255
    1dec:	59 f4       	brne	.+22     	; 0x1e04 <main+0xaa>
			uart_puts("Device address is not set. Will not send commands.\n\r");
    1dee:	86 eb       	ldi	r24, 0xB6	; 182
    1df0:	92 e0       	ldi	r25, 0x02	; 2
    1df2:	0e 94 3b 11 	call	0x2276	; 0x2276 <uart_puts>
			// reset local vars for command string reading
			command_ready = 0;
    1df6:	1a 82       	std	Y+2, r1	; 0x02
			buf_ptr = 0;
    1df8:	10 92 9c 04 	sts	0x049C, r1
    1dfc:	10 92 9b 04 	sts	0x049B, r1
			do_prompt = 1;
    1e00:	81 e0       	ldi	r24, 0x01	; 1
    1e02:	89 83       	std	Y+1, r24	; 0x01
		}

		// GPIB command and valid partner. Send the command.
		if (command_ready) {
    1e04:	8a 81       	ldd	r24, Y+2	; 0x02
    1e06:	88 23       	and	r24, r24
    1e08:	61 f0       	breq	.+24     	; 0x1e22 <main+0xc8>
			//uart_puts("\n\rGPIB command: ");
			//uart_puts((char*) buf);
			//uart_puts("\n\r");
			is_query = send_command(buf);
    1e0a:	86 e4       	ldi	r24, 0x46	; 70
    1e0c:	95 e0       	ldi	r25, 0x05	; 5
    1e0e:	0e 94 69 0d 	call	0x1ad2	; 0x1ad2 <send_command>
    1e12:	8b 83       	std	Y+3, r24	; 0x03
			// reset local vars for command string reading
			command_ready = 0;
    1e14:	1a 82       	std	Y+2, r1	; 0x02
			buf_ptr = 0;
    1e16:	10 92 9c 04 	sts	0x049C, r1
    1e1a:	10 92 9b 04 	sts	0x049B, r1
			do_prompt = 1;
    1e1e:	81 e0       	ldi	r24, 0x01	; 1
    1e20:	89 83       	std	Y+1, r24	; 0x01
		}

		// if we sent a query, read the answer
		if (is_query) {
    1e22:	8b 81       	ldd	r24, Y+3	; 0x03
    1e24:	88 23       	and	r24, r24
    1e26:	49 f0       	breq	.+18     	; 0x1e3a <main+0xe0>
			receiveAnswer();
    1e28:	0e 94 c3 0d 	call	0x1b86	; 0x1b86 <receiveAnswer>
			// reset for next command
			is_query = 0;
    1e2c:	1b 82       	std	Y+3, r1	; 0x03
			// some devices do not send cr,lf at command end, so create it always itself
			uart_puts("\n\r");
    1e2e:	83 eb       	ldi	r24, 0xB3	; 179
    1e30:	92 e0       	ldi	r25, 0x02	; 2
    1e32:	0e 94 3b 11 	call	0x2276	; 0x2276 <uart_puts>
			do_prompt = 1;
    1e36:	81 e0       	ldi	r24, 0x01	; 1
    1e38:	89 83       	std	Y+1, r24	; 0x01
		}

		// SRQ detection - do this every time when time value s has changed
		// s is incremented every second. So we check once a second.
		if (srq_occured(&old_time)) {
    1e3a:	ce 01       	movw	r24, r28
    1e3c:	04 96       	adiw	r24, 0x04	; 4
    1e3e:	0e 94 23 0e 	call	0x1c46	; 0x1c46 <srq_occured>
    1e42:	88 23       	and	r24, r24
    1e44:	09 f4       	brne	.+2      	; 0x1e48 <main+0xee>
    1e46:	a4 cf       	rjmp	.-184    	; 0x1d90 <main+0x36>
			command_ready = handle_srq(buf, &buf_ptr);
    1e48:	86 e4       	ldi	r24, 0x46	; 70
    1e4a:	95 e0       	ldi	r25, 0x05	; 5
    1e4c:	2b e9       	ldi	r18, 0x9B	; 155
    1e4e:	34 e0       	ldi	r19, 0x04	; 4
    1e50:	b9 01       	movw	r22, r18
    1e52:	0e 94 60 0e 	call	0x1cc0	; 0x1cc0 <handle_srq>
    1e56:	8a 83       	std	Y+2, r24	; 0x02
    1e58:	9b cf       	rjmp	.-202    	; 0x1d90 <main+0x36>

00001e5a <input_process>:
 * Processing user input
 * \brief Read in user input via rs232 using peter fleurys UART library.
 * \returns The character read in
 */

uchar input_process(void) {
    1e5a:	df 93       	push	r29
    1e5c:	cf 93       	push	r28
    1e5e:	00 d0       	rcall	.+0      	; 0x1e60 <input_process+0x6>
    1e60:	00 d0       	rcall	.+0      	; 0x1e62 <input_process+0x8>
    1e62:	0f 92       	push	r0
    1e64:	cd b7       	in	r28, 0x3d	; 61
    1e66:	de b7       	in	r29, 0x3e	; 62
	unsigned int c;
	uchar ch;
	uchar ret = 0;
    1e68:	19 82       	std	Y+1, r1	; 0x01
	 * uart_getc() returns in the lower byte the received character and 
	 * in the higher byte (bitmask) the last receive error
	 * UART_NO_DATA is returned when no data is available.
	 *
	 */
	c = uart_getc();
    1e6a:	0e 94 dd 10 	call	0x21ba	; 0x21ba <uart_getc>
    1e6e:	9c 83       	std	Y+4, r25	; 0x04
    1e70:	8b 83       	std	Y+3, r24	; 0x03
	if (c & UART_NO_DATA) {
    1e72:	8b 81       	ldd	r24, Y+3	; 0x03
    1e74:	9c 81       	ldd	r25, Y+4	; 0x04
    1e76:	80 70       	andi	r24, 0x00	; 0
    1e78:	91 70       	andi	r25, 0x01	; 1
    1e7a:	00 97       	sbiw	r24, 0x00	; 0
    1e7c:	11 f0       	breq	.+4      	; 0x1e82 <input_process+0x28>
		// no data available from UART
		return 0;
    1e7e:	1d 82       	std	Y+5, r1	; 0x05
    1e80:	58 c0       	rjmp	.+176    	; 0x1f32 <input_process+0xd8>

	/*
	 * new data available from UART
	 * check for Frame or Overrun error
	 */
	if (c & UART_FRAME_ERROR) {
    1e82:	8b 81       	ldd	r24, Y+3	; 0x03
    1e84:	9c 81       	ldd	r25, Y+4	; 0x04
    1e86:	80 70       	andi	r24, 0x00	; 0
    1e88:	98 70       	andi	r25, 0x08	; 8
    1e8a:	00 97       	sbiw	r24, 0x00	; 0
    1e8c:	21 f0       	breq	.+8      	; 0x1e96 <input_process+0x3c>
		/* Framing Error detected, i.e no stop bit detected */
		uart_puts_P("UART Frame Error: ");
    1e8e:	81 e8       	ldi	r24, 0x81	; 129
    1e90:	90 e0       	ldi	r25, 0x00	; 0
    1e92:	0e 94 58 11 	call	0x22b0	; 0x22b0 <uart_puts_p>
	}
	if (c & UART_OVERRUN_ERROR) {
    1e96:	8b 81       	ldd	r24, Y+3	; 0x03
    1e98:	9c 81       	ldd	r25, Y+4	; 0x04
    1e9a:	80 70       	andi	r24, 0x00	; 0
    1e9c:	94 70       	andi	r25, 0x04	; 4
    1e9e:	00 97       	sbiw	r24, 0x00	; 0
    1ea0:	21 f0       	breq	.+8      	; 0x1eaa <input_process+0x50>
		/* 
		 * Overrun, a character already present in the UART UDR register was 
		 * not read by the interrupt handler before the next character arrived,
		 * one or more received characters have been dropped
		 */
		uart_puts_P("UART Overrun Error: ");
    1ea2:	8c e6       	ldi	r24, 0x6C	; 108
    1ea4:	90 e0       	ldi	r25, 0x00	; 0
    1ea6:	0e 94 58 11 	call	0x22b0	; 0x22b0 <uart_puts_p>
	}
	if (c & UART_BUFFER_OVERFLOW) {
    1eaa:	8b 81       	ldd	r24, Y+3	; 0x03
    1eac:	9c 81       	ldd	r25, Y+4	; 0x04
    1eae:	80 70       	andi	r24, 0x00	; 0
    1eb0:	92 70       	andi	r25, 0x02	; 2
    1eb2:	00 97       	sbiw	r24, 0x00	; 0
    1eb4:	21 f0       	breq	.+8      	; 0x1ebe <input_process+0x64>
		/* 
		 * We are not reading the receive buffer fast enough,
		 * one or more received character have been dropped 
		 */
		uart_puts_P("Buffer overflow error: ");
    1eb6:	84 e5       	ldi	r24, 0x54	; 84
    1eb8:	90 e0       	ldi	r25, 0x00	; 0
    1eba:	0e 94 58 11 	call	0x22b0	; 0x22b0 <uart_puts_p>
	}

	/* 
	 * send received character back depending on global flag
	 */
	if (rs232_remote_echo)
    1ebe:	80 91 88 04 	lds	r24, 0x0488
    1ec2:	90 91 89 04 	lds	r25, 0x0489
    1ec6:	00 97       	sbiw	r24, 0x00	; 0
    1ec8:	19 f0       	breq	.+6      	; 0x1ed0 <input_process+0x76>
		uart_putc((unsigned char) c);
    1eca:	8b 81       	ldd	r24, Y+3	; 0x03
    1ecc:	0e 94 14 11 	call	0x2228	; 0x2228 <uart_putc>

	// make uchar from character in int value
	ch = (uchar) c;
    1ed0:	8b 81       	ldd	r24, Y+3	; 0x03
    1ed2:	8a 83       	std	Y+2, r24	; 0x02
	// add to buffer
	buf[buf_ptr++] = ch;
    1ed4:	20 91 9b 04 	lds	r18, 0x049B
    1ed8:	30 91 9c 04 	lds	r19, 0x049C
    1edc:	f9 01       	movw	r30, r18
    1ede:	ea 5b       	subi	r30, 0xBA	; 186
    1ee0:	fa 4f       	sbci	r31, 0xFA	; 250
    1ee2:	8a 81       	ldd	r24, Y+2	; 0x02
    1ee4:	80 83       	st	Z, r24
    1ee6:	c9 01       	movw	r24, r18
    1ee8:	01 96       	adiw	r24, 0x01	; 1
    1eea:	90 93 9c 04 	sts	0x049C, r25
    1eee:	80 93 9b 04 	sts	0x049B, r24
	// terminate string
	buf[buf_ptr] = '\0';
    1ef2:	80 91 9b 04 	lds	r24, 0x049B
    1ef6:	90 91 9c 04 	lds	r25, 0x049C
    1efa:	fc 01       	movw	r30, r24
    1efc:	ea 5b       	subi	r30, 0xBA	; 186
    1efe:	fa 4f       	sbci	r31, 0xFA	; 250
    1f00:	10 82       	st	Z, r1

	// <CR> means command input is complete
	if (ch == ASCII_CODE_CR) {
    1f02:	8a 81       	ldd	r24, Y+2	; 0x02
    1f04:	8d 30       	cpi	r24, 0x0D	; 13
    1f06:	99 f4       	brne	.+38     	; 0x1f2e <input_process+0xd4>
		// adjust string terminator
		buf[--buf_ptr] = '\0';
    1f08:	80 91 9b 04 	lds	r24, 0x049B
    1f0c:	90 91 9c 04 	lds	r25, 0x049C
    1f10:	01 97       	sbiw	r24, 0x01	; 1
    1f12:	90 93 9c 04 	sts	0x049C, r25
    1f16:	80 93 9b 04 	sts	0x049B, r24
    1f1a:	80 91 9b 04 	lds	r24, 0x049B
    1f1e:	90 91 9c 04 	lds	r25, 0x049C
    1f22:	fc 01       	movw	r30, r24
    1f24:	ea 5b       	subi	r30, 0xBA	; 186
    1f26:	fa 4f       	sbci	r31, 0xFA	; 250
    1f28:	10 82       	st	Z, r1
		ret = 1;
    1f2a:	81 e0       	ldi	r24, 0x01	; 1
    1f2c:	89 83       	std	Y+1, r24	; 0x01
	}

	return ret;
    1f2e:	89 81       	ldd	r24, Y+1	; 0x01
    1f30:	8d 83       	std	Y+5, r24	; 0x05
    1f32:	8d 81       	ldd	r24, Y+5	; 0x05
}
    1f34:	0f 90       	pop	r0
    1f36:	0f 90       	pop	r0
    1f38:	0f 90       	pop	r0
    1f3a:	0f 90       	pop	r0
    1f3c:	0f 90       	pop	r0
    1f3e:	cf 91       	pop	r28
    1f40:	df 91       	pop	r29
    1f42:	08 95       	ret

00001f44 <printHelp>:

#define REVISION "0.7"

void printHelp() {
    1f44:	df 93       	push	r29
    1f46:	cf 93       	push	r28
    1f48:	cd b7       	in	r28, 0x3d	; 61
    1f4a:	de b7       	in	r29, 0x3e	; 62
#ifdef WRITE
	sprintf(buf,
    1f4c:	00 d0       	rcall	.+0      	; 0x1f4e <printHelp+0xa>
    1f4e:	00 d0       	rcall	.+0      	; 0x1f50 <printHelp+0xc>
    1f50:	00 d0       	rcall	.+0      	; 0x1f52 <printHelp+0xe>
    1f52:	ed b7       	in	r30, 0x3d	; 61
    1f54:	fe b7       	in	r31, 0x3e	; 62
    1f56:	31 96       	adiw	r30, 0x01	; 1
    1f58:	86 e4       	ldi	r24, 0x46	; 70
    1f5a:	95 e0       	ldi	r25, 0x05	; 5
    1f5c:	91 83       	std	Z+1, r25	; 0x01
    1f5e:	80 83       	st	Z, r24
    1f60:	8b ee       	ldi	r24, 0xEB	; 235
    1f62:	92 e0       	ldi	r25, 0x02	; 2
    1f64:	93 83       	std	Z+3, r25	; 0x03
    1f66:	82 83       	std	Z+2, r24	; 0x02
    1f68:	8b e2       	ldi	r24, 0x2B	; 43
    1f6a:	93 e0       	ldi	r25, 0x03	; 3
    1f6c:	95 83       	std	Z+5, r25	; 0x05
    1f6e:	84 83       	std	Z+4, r24	; 0x04
    1f70:	0e 94 da 00 	call	0x1b4	; 0x1b4 <sprintf>
    1f74:	8d b7       	in	r24, 0x3d	; 61
    1f76:	9e b7       	in	r25, 0x3e	; 62
    1f78:	06 96       	adiw	r24, 0x06	; 6
    1f7a:	0f b6       	in	r0, 0x3f	; 63
    1f7c:	f8 94       	cli
    1f7e:	9e bf       	out	0x3e, r25	; 62
    1f80:	0f be       	out	0x3f, r0	; 63
    1f82:	8d bf       	out	0x3d, r24	; 61
			"\n\rGPIB Controller (T/L/C) (Rev.%s) (c) spurtikus.de 2008-2015\n\r",
			REVISION);
	uart_puts(buf);
    1f84:	86 e4       	ldi	r24, 0x46	; 70
    1f86:	95 e0       	ldi	r25, 0x05	; 5
    1f88:	0e 94 3b 11 	call	0x2276	; 0x2276 <uart_puts>
#else
	uart_puts("\n\rGPIB Listener Only (L) (Rev.%s) (c) spurtikus.de 2008-2015\n\r", REVISION);
	uart_puts(buf);
#endif
	uart_puts("Internal commands:\n\r");
    1f8c:	8f e2       	ldi	r24, 0x2F	; 47
    1f8e:	93 e0       	ldi	r25, 0x03	; 3
    1f90:	0e 94 3b 11 	call	0x2276	; 0x2276 <uart_puts>
	uart_puts(
    1f94:	84 e4       	ldi	r24, 0x44	; 68
    1f96:	93 e0       	ldi	r25, 0x03	; 3
    1f98:	0e 94 3b 11 	call	0x2276	; 0x2276 <uart_puts>
			".a <primary> [<secondary>] - set primary/secondary address of remote device\n\r");
	uart_puts(".s <secondary> - set secondary address of of remote device\n\r");
    1f9c:	82 e9       	ldi	r24, 0x92	; 146
    1f9e:	93 e0       	ldi	r25, 0x03	; 3
    1fa0:	0e 94 3b 11 	call	0x2276	; 0x2276 <uart_puts>
	uart_puts(
    1fa4:	8f ec       	ldi	r24, 0xCF	; 207
    1fa6:	93 e0       	ldi	r25, 0x03	; 3
    1fa8:	0e 94 3b 11 	call	0x2276	; 0x2276 <uart_puts>
			".+ <n> - add partner device address to list of known devices.\n\r");
	uart_puts(
    1fac:	8f e0       	ldi	r24, 0x0F	; 15
    1fae:	94 e0       	ldi	r25, 0x04	; 4
    1fb0:	0e 94 3b 11 	call	0x2276	; 0x2276 <uart_puts>
			".- <n> - remove partner device address from list of known devices.\n\r");
	uart_puts(".h - print help\n\r");
    1fb4:	84 e5       	ldi	r24, 0x54	; 84
    1fb6:	94 e0       	ldi	r25, 0x04	; 4
    1fb8:	0e 94 3b 11 	call	0x2276	; 0x2276 <uart_puts>
	uart_puts(".i - dump info about GPIB lines\n\r");
    1fbc:	86 e6       	ldi	r24, 0x66	; 102
    1fbe:	94 e0       	ldi	r25, 0x04	; 4
    1fc0:	0e 94 3b 11 	call	0x2276	; 0x2276 <uart_puts>
}
    1fc4:	cf 91       	pop	r28
    1fc6:	df 91       	pop	r29
    1fc8:	08 95       	ret

00001fca <__vector_7>:

/**
 * Interrupt Service Routine - do not call directly
 *  This routine is called when the Timer Value TCNT1 reaches the Output Compare Register Value OCR1A
 */ 
ISR(TIMER1_COMPA_vect) {
    1fca:	1f 92       	push	r1
    1fcc:	0f 92       	push	r0
    1fce:	0f b6       	in	r0, 0x3f	; 63
    1fd0:	0f 92       	push	r0
    1fd2:	11 24       	eor	r1, r1
    1fd4:	8f 93       	push	r24
    1fd6:	df 93       	push	r29
    1fd8:	cf 93       	push	r28
    1fda:	cd b7       	in	r28, 0x3d	; 61
    1fdc:	de b7       	in	r29, 0x3e	; 62
#if XTAL_CPU % DEBOUNCE
	OCR1A = XTAL_CPU / DEBOUNCE - 1;
#endif
	if (--timer==0) {
    1fde:	80 91 96 05 	lds	r24, 0x0596
    1fe2:	81 50       	subi	r24, 0x01	; 1
    1fe4:	80 93 96 05 	sts	0x0596, r24
    1fe8:	80 91 96 05 	lds	r24, 0x0596
    1fec:	88 23       	and	r24, r24
    1fee:	39 f4       	brne	.+14     	; 0x1ffe <__vector_7+0x34>
		timer=(uint8_t) DEBOUNCE;
    1ff0:	10 92 96 05 	sts	0x0596, r1
		s++;
    1ff4:	80 91 97 05 	lds	r24, 0x0597
    1ff8:	8f 5f       	subi	r24, 0xFF	; 255
    1ffa:	80 93 97 05 	sts	0x0597, r24
#if XTAL_CPU % DEBOUNCE
		OCR1A = XTAL_CPU / DEBOUNCE + XTAL_CPU % DEBOUNCE - 1;
#endif
	}
}
    1ffe:	cf 91       	pop	r28
    2000:	df 91       	pop	r29
    2002:	8f 91       	pop	r24
    2004:	0f 90       	pop	r0
    2006:	0f be       	out	0x3f, r0	; 63
    2008:	0f 90       	pop	r0
    200a:	1f 90       	pop	r1
    200c:	18 95       	reti

0000200e <timer16_init>:
/**
 * Timer initialisation.
 *  \brief initializes all registers ands sets second value 's' to zero. Timer is immediately
 * started.
 */ 
void timer16_init( void ) {
    200e:	df 93       	push	r29
    2010:	cf 93       	push	r28
    2012:	cd b7       	in	r28, 0x3d	; 61
    2014:	de b7       	in	r29, 0x3e	; 62

	// OCR1A=XTAL/DEBOUNCE-1 -> Bei Erreichen dieses Wertes (31249) wird die ISR besucht
	// die ISR wird also alle 1/256s aufgerufen. Wenn man dort also bis 256 hochzhlt, ist genau
	// 1 Sekunde um! 256 ist der Wert der Variable timer und wird ber das define DEBOUNCE festgelegt

	TCCR1B = (1<<CS10) ^ (1<<WGM12);	// Prescaler of 1 | CTC mode
    2016:	ee e4       	ldi	r30, 0x4E	; 78
    2018:	f0 e0       	ldi	r31, 0x00	; 0
    201a:	89 e0       	ldi	r24, 0x09	; 9
    201c:	80 83       	st	Z, r24
	OCR1A  = F_CPU/DEBOUNCE-1;		// Output compare register value 
    201e:	ea e4       	ldi	r30, 0x4A	; 74
    2020:	f0 e0       	ldi	r31, 0x00	; 0
    2022:	81 e1       	ldi	r24, 0x11	; 17
    2024:	9a e7       	ldi	r25, 0x7A	; 122
    2026:	91 83       	std	Z+1, r25	; 0x01
    2028:	80 83       	st	Z, r24
	TCNT1 = 0; // Start value for timer register
    202a:	ec e4       	ldi	r30, 0x4C	; 76
    202c:	f0 e0       	ldi	r31, 0x00	; 0
    202e:	11 82       	std	Z+1, r1	; 0x01
    2030:	10 82       	st	Z, r1
	s=0; // Initialize second value (s) to zero
    2032:	10 92 97 05 	sts	0x0597, r1
	timer = (uint8_t)DEBOUNCE; 
    2036:	10 92 96 05 	sts	0x0596, r1
	TIMSK |= (1<<OCIE1A);		// activate timer interrupts which starts timer run
    203a:	a9 e5       	ldi	r26, 0x59	; 89
    203c:	b0 e0       	ldi	r27, 0x00	; 0
    203e:	e9 e5       	ldi	r30, 0x59	; 89
    2040:	f0 e0       	ldi	r31, 0x00	; 0
    2042:	80 81       	ld	r24, Z
    2044:	80 61       	ori	r24, 0x10	; 16
    2046:	8c 93       	st	X, r24
}
    2048:	cf 91       	pop	r28
    204a:	df 91       	pop	r29
    204c:	08 95       	ret

0000204e <__vector_13>:
SIGNAL(UART0_RECEIVE_INTERRUPT)
/*************************************************************************
Function: UART Receive Complete interrupt
Purpose:  called when the UART has received a character
**************************************************************************/
{
    204e:	1f 92       	push	r1
    2050:	0f 92       	push	r0
    2052:	0f b6       	in	r0, 0x3f	; 63
    2054:	0f 92       	push	r0
    2056:	11 24       	eor	r1, r1
    2058:	8f 93       	push	r24
    205a:	9f 93       	push	r25
    205c:	ef 93       	push	r30
    205e:	ff 93       	push	r31
    2060:	df 93       	push	r29
    2062:	cf 93       	push	r28
    2064:	00 d0       	rcall	.+0      	; 0x2066 <__vector_13+0x18>
    2066:	00 d0       	rcall	.+0      	; 0x2068 <__vector_13+0x1a>
    2068:	cd b7       	in	r28, 0x3d	; 61
    206a:	de b7       	in	r29, 0x3e	; 62
    unsigned char usr;
    unsigned char lastRxError;
 
 
    /* read UART status register and UART data register */ 
    usr  = UART0_STATUS;
    206c:	eb e2       	ldi	r30, 0x2B	; 43
    206e:	f0 e0       	ldi	r31, 0x00	; 0
    2070:	80 81       	ld	r24, Z
    2072:	8a 83       	std	Y+2, r24	; 0x02
    data = UART0_DATA;
    2074:	ec e2       	ldi	r30, 0x2C	; 44
    2076:	f0 e0       	ldi	r31, 0x00	; 0
    2078:	80 81       	ld	r24, Z
    207a:	8b 83       	std	Y+3, r24	; 0x03
    
    /* */
#if defined( AT90_UART )
    lastRxError = (usr & (_BV(FE)|_BV(DOR)) );
#elif defined( ATMEGA_USART )
    lastRxError = (usr & (_BV(FE)|_BV(DOR)) );
    207c:	8a 81       	ldd	r24, Y+2	; 0x02
    207e:	88 71       	andi	r24, 0x18	; 24
    2080:	89 83       	std	Y+1, r24	; 0x01
#elif defined ( ATMEGA_UART )
    lastRxError = (usr & (_BV(FE)|_BV(DOR)) );
#endif
        
    /* calculate buffer index */ 
    tmphead = ( UART_RxHead + 1) & UART_RX_BUFFER_MASK;
    2082:	80 91 df 04 	lds	r24, 0x04DF
    2086:	8f 5f       	subi	r24, 0xFF	; 255
    2088:	8f 71       	andi	r24, 0x1F	; 31
    208a:	8c 83       	std	Y+4, r24	; 0x04
    
    if ( tmphead == UART_RxTail ) {
    208c:	90 91 e0 04 	lds	r25, 0x04E0
    2090:	8c 81       	ldd	r24, Y+4	; 0x04
    2092:	89 17       	cp	r24, r25
    2094:	19 f4       	brne	.+6      	; 0x209c <__vector_13+0x4e>
        /* error: receive buffer overflow */
        lastRxError = UART_BUFFER_OVERFLOW >> 8;
    2096:	82 e0       	ldi	r24, 0x02	; 2
    2098:	89 83       	std	Y+1, r24	; 0x01
    209a:	0b c0       	rjmp	.+22     	; 0x20b2 <__vector_13+0x64>
    }else{
        /* store new index */
        UART_RxHead = tmphead;
    209c:	8c 81       	ldd	r24, Y+4	; 0x04
    209e:	80 93 df 04 	sts	0x04DF, r24
        /* store received data in buffer */
        UART_RxBuf[tmphead] = data;
    20a2:	8c 81       	ldd	r24, Y+4	; 0x04
    20a4:	88 2f       	mov	r24, r24
    20a6:	90 e0       	ldi	r25, 0x00	; 0
    20a8:	fc 01       	movw	r30, r24
    20aa:	e3 54       	subi	r30, 0x43	; 67
    20ac:	fb 4f       	sbci	r31, 0xFB	; 251
    20ae:	8b 81       	ldd	r24, Y+3	; 0x03
    20b0:	80 83       	st	Z, r24
    }
    UART_LastRxError = lastRxError;   
    20b2:	89 81       	ldd	r24, Y+1	; 0x01
    20b4:	80 93 e1 04 	sts	0x04E1, r24
}
    20b8:	0f 90       	pop	r0
    20ba:	0f 90       	pop	r0
    20bc:	0f 90       	pop	r0
    20be:	0f 90       	pop	r0
    20c0:	cf 91       	pop	r28
    20c2:	df 91       	pop	r29
    20c4:	ff 91       	pop	r31
    20c6:	ef 91       	pop	r30
    20c8:	9f 91       	pop	r25
    20ca:	8f 91       	pop	r24
    20cc:	0f 90       	pop	r0
    20ce:	0f be       	out	0x3f, r0	; 63
    20d0:	0f 90       	pop	r0
    20d2:	1f 90       	pop	r1
    20d4:	18 95       	reti

000020d6 <__vector_14>:
SIGNAL(UART0_TRANSMIT_INTERRUPT)
/*************************************************************************
Function: UART Data Register Empty interrupt
Purpose:  called when the UART is ready to transmit the next byte
**************************************************************************/
{
    20d6:	1f 92       	push	r1
    20d8:	0f 92       	push	r0
    20da:	0f b6       	in	r0, 0x3f	; 63
    20dc:	0f 92       	push	r0
    20de:	11 24       	eor	r1, r1
    20e0:	8f 93       	push	r24
    20e2:	9f 93       	push	r25
    20e4:	af 93       	push	r26
    20e6:	bf 93       	push	r27
    20e8:	ef 93       	push	r30
    20ea:	ff 93       	push	r31
    20ec:	df 93       	push	r29
    20ee:	cf 93       	push	r28
    20f0:	0f 92       	push	r0
    20f2:	cd b7       	in	r28, 0x3d	; 61
    20f4:	de b7       	in	r29, 0x3e	; 62
    unsigned char tmptail;

    
    if ( UART_TxHead != UART_TxTail) {
    20f6:	90 91 dd 04 	lds	r25, 0x04DD
    20fa:	80 91 de 04 	lds	r24, 0x04DE
    20fe:	98 17       	cp	r25, r24
    2100:	99 f0       	breq	.+38     	; 0x2128 <__vector_14+0x52>
        /* calculate and store new buffer index */
        tmptail = (UART_TxTail + 1) & UART_TX_BUFFER_MASK;
    2102:	80 91 de 04 	lds	r24, 0x04DE
    2106:	8f 5f       	subi	r24, 0xFF	; 255
    2108:	8f 71       	andi	r24, 0x1F	; 31
    210a:	89 83       	std	Y+1, r24	; 0x01
        UART_TxTail = tmptail;
    210c:	89 81       	ldd	r24, Y+1	; 0x01
    210e:	80 93 de 04 	sts	0x04DE, r24
        /* get one byte from buffer and write it to UART */
        UART0_DATA = UART_TxBuf[tmptail];  /* start transmission */
    2112:	ac e2       	ldi	r26, 0x2C	; 44
    2114:	b0 e0       	ldi	r27, 0x00	; 0
    2116:	89 81       	ldd	r24, Y+1	; 0x01
    2118:	88 2f       	mov	r24, r24
    211a:	90 e0       	ldi	r25, 0x00	; 0
    211c:	fc 01       	movw	r30, r24
    211e:	e3 56       	subi	r30, 0x63	; 99
    2120:	fb 4f       	sbci	r31, 0xFB	; 251
    2122:	80 81       	ld	r24, Z
    2124:	8c 93       	st	X, r24
    2126:	07 c0       	rjmp	.+14     	; 0x2136 <__vector_14+0x60>
    }else{
        /* tx buffer empty, disable UDRE interrupt */
        UART0_CONTROL &= ~_BV(UART0_UDRIE);
    2128:	aa e2       	ldi	r26, 0x2A	; 42
    212a:	b0 e0       	ldi	r27, 0x00	; 0
    212c:	ea e2       	ldi	r30, 0x2A	; 42
    212e:	f0 e0       	ldi	r31, 0x00	; 0
    2130:	80 81       	ld	r24, Z
    2132:	8f 7d       	andi	r24, 0xDF	; 223
    2134:	8c 93       	st	X, r24
    }
}
    2136:	0f 90       	pop	r0
    2138:	cf 91       	pop	r28
    213a:	df 91       	pop	r29
    213c:	ff 91       	pop	r31
    213e:	ef 91       	pop	r30
    2140:	bf 91       	pop	r27
    2142:	af 91       	pop	r26
    2144:	9f 91       	pop	r25
    2146:	8f 91       	pop	r24
    2148:	0f 90       	pop	r0
    214a:	0f be       	out	0x3f, r0	; 63
    214c:	0f 90       	pop	r0
    214e:	1f 90       	pop	r1
    2150:	18 95       	reti

00002152 <uart_init>:
Purpose:  initialize UART and set baudrate
Input:    baudrate using macro UART_BAUD_SELECT()
Returns:  none
**************************************************************************/
void uart_init(unsigned int baudrate)
{
    2152:	df 93       	push	r29
    2154:	cf 93       	push	r28
    2156:	00 d0       	rcall	.+0      	; 0x2158 <uart_init+0x6>
    2158:	cd b7       	in	r28, 0x3d	; 61
    215a:	de b7       	in	r29, 0x3e	; 62
    215c:	9a 83       	std	Y+2, r25	; 0x02
    215e:	89 83       	std	Y+1, r24	; 0x01
    UART_TxHead = 0;
    2160:	10 92 dd 04 	sts	0x04DD, r1
    UART_TxTail = 0;
    2164:	10 92 de 04 	sts	0x04DE, r1
    UART_RxHead = 0;
    2168:	10 92 df 04 	sts	0x04DF, r1
    UART_RxTail = 0;
    216c:	10 92 e0 04 	sts	0x04E0, r1
    /* enable UART receiver and transmmitter and receive complete interrupt */
    UART0_CONTROL = _BV(RXCIE)|_BV(RXEN)|_BV(TXEN);

#elif defined (ATMEGA_USART)
    /* Set baud rate */
    if ( baudrate & 0x8000 )
    2170:	89 81       	ldd	r24, Y+1	; 0x01
    2172:	9a 81       	ldd	r25, Y+2	; 0x02
    2174:	99 23       	and	r25, r25
    2176:	4c f4       	brge	.+18     	; 0x218a <uart_init+0x38>
    {
    	 UART0_STATUS = (1<<U2X);  //Enable 2x speed 
    2178:	eb e2       	ldi	r30, 0x2B	; 43
    217a:	f0 e0       	ldi	r31, 0x00	; 0
    217c:	82 e0       	ldi	r24, 0x02	; 2
    217e:	80 83       	st	Z, r24
    	 baudrate &= ~0x8000;
    2180:	89 81       	ldd	r24, Y+1	; 0x01
    2182:	9a 81       	ldd	r25, Y+2	; 0x02
    2184:	9f 77       	andi	r25, 0x7F	; 127
    2186:	9a 83       	std	Y+2, r25	; 0x02
    2188:	89 83       	std	Y+1, r24	; 0x01
    }
    UBRRH = (unsigned char)(baudrate>>8);
    218a:	e0 e4       	ldi	r30, 0x40	; 64
    218c:	f0 e0       	ldi	r31, 0x00	; 0
    218e:	89 81       	ldd	r24, Y+1	; 0x01
    2190:	9a 81       	ldd	r25, Y+2	; 0x02
    2192:	89 2f       	mov	r24, r25
    2194:	99 27       	eor	r25, r25
    2196:	80 83       	st	Z, r24
    UBRRL = (unsigned char) baudrate;
    2198:	e9 e2       	ldi	r30, 0x29	; 41
    219a:	f0 e0       	ldi	r31, 0x00	; 0
    219c:	89 81       	ldd	r24, Y+1	; 0x01
    219e:	80 83       	st	Z, r24
   
    /* Enable USART receiver and transmitter and receive complete interrupt */
    UART0_CONTROL = _BV(RXCIE)|(1<<RXEN)|(1<<TXEN);
    21a0:	ea e2       	ldi	r30, 0x2A	; 42
    21a2:	f0 e0       	ldi	r31, 0x00	; 0
    21a4:	88 e9       	ldi	r24, 0x98	; 152
    21a6:	80 83       	st	Z, r24
    
    /* Set frame format: asynchronous, 8data, no parity, 1stop bit */
    #ifdef URSEL
    UCSRC = (1<<URSEL)|(3<<UCSZ0);
    21a8:	e0 e4       	ldi	r30, 0x40	; 64
    21aa:	f0 e0       	ldi	r31, 0x00	; 0
    21ac:	86 e8       	ldi	r24, 0x86	; 134
    21ae:	80 83       	st	Z, r24
    /* Enable UART receiver and transmitter and receive complete interrupt */
    UART0_CONTROL = _BV(RXCIE)|(1<<RXEN)|(1<<TXEN);

#endif

}/* uart_init */
    21b0:	0f 90       	pop	r0
    21b2:	0f 90       	pop	r0
    21b4:	cf 91       	pop	r28
    21b6:	df 91       	pop	r29
    21b8:	08 95       	ret

000021ba <uart_getc>:
Purpose:  return byte from ringbuffer  
Returns:  lower byte:  received byte from ringbuffer
          higher byte: last receive error
**************************************************************************/
unsigned int uart_getc(void)
{    
    21ba:	df 93       	push	r29
    21bc:	cf 93       	push	r28
    21be:	00 d0       	rcall	.+0      	; 0x21c0 <uart_getc+0x6>
    21c0:	00 d0       	rcall	.+0      	; 0x21c2 <uart_getc+0x8>
    21c2:	cd b7       	in	r28, 0x3d	; 61
    21c4:	de b7       	in	r29, 0x3e	; 62
    unsigned char tmptail;
    unsigned char data;


    if ( UART_RxHead == UART_RxTail ) {
    21c6:	90 91 df 04 	lds	r25, 0x04DF
    21ca:	80 91 e0 04 	lds	r24, 0x04E0
    21ce:	98 17       	cp	r25, r24
    21d0:	29 f4       	brne	.+10     	; 0x21dc <uart_getc+0x22>
        return UART_NO_DATA;   /* no data available */
    21d2:	80 e0       	ldi	r24, 0x00	; 0
    21d4:	91 e0       	ldi	r25, 0x01	; 1
    21d6:	9c 83       	std	Y+4, r25	; 0x04
    21d8:	8b 83       	std	Y+3, r24	; 0x03
    21da:	1d c0       	rjmp	.+58     	; 0x2216 <uart_getc+0x5c>
    }
    
    /* calculate /store buffer index */
    tmptail = (UART_RxTail + 1) & UART_RX_BUFFER_MASK;
    21dc:	80 91 e0 04 	lds	r24, 0x04E0
    21e0:	8f 5f       	subi	r24, 0xFF	; 255
    21e2:	8f 71       	andi	r24, 0x1F	; 31
    21e4:	8a 83       	std	Y+2, r24	; 0x02
    UART_RxTail = tmptail; 
    21e6:	8a 81       	ldd	r24, Y+2	; 0x02
    21e8:	80 93 e0 04 	sts	0x04E0, r24
    
    /* get data from receive buffer */
    data = UART_RxBuf[tmptail];
    21ec:	8a 81       	ldd	r24, Y+2	; 0x02
    21ee:	88 2f       	mov	r24, r24
    21f0:	90 e0       	ldi	r25, 0x00	; 0
    21f2:	fc 01       	movw	r30, r24
    21f4:	e3 54       	subi	r30, 0x43	; 67
    21f6:	fb 4f       	sbci	r31, 0xFB	; 251
    21f8:	80 81       	ld	r24, Z
    21fa:	89 83       	std	Y+1, r24	; 0x01
    
    return (UART_LastRxError << 8) + data;
    21fc:	80 91 e1 04 	lds	r24, 0x04E1
    2200:	88 2f       	mov	r24, r24
    2202:	90 e0       	ldi	r25, 0x00	; 0
    2204:	38 2f       	mov	r19, r24
    2206:	22 27       	eor	r18, r18
    2208:	89 81       	ldd	r24, Y+1	; 0x01
    220a:	88 2f       	mov	r24, r24
    220c:	90 e0       	ldi	r25, 0x00	; 0
    220e:	82 0f       	add	r24, r18
    2210:	93 1f       	adc	r25, r19
    2212:	9c 83       	std	Y+4, r25	; 0x04
    2214:	8b 83       	std	Y+3, r24	; 0x03
    2216:	8b 81       	ldd	r24, Y+3	; 0x03
    2218:	9c 81       	ldd	r25, Y+4	; 0x04

}/* uart_getc */
    221a:	0f 90       	pop	r0
    221c:	0f 90       	pop	r0
    221e:	0f 90       	pop	r0
    2220:	0f 90       	pop	r0
    2222:	cf 91       	pop	r28
    2224:	df 91       	pop	r29
    2226:	08 95       	ret

00002228 <uart_putc>:
Purpose:  write byte to ringbuffer for transmitting via UART
Input:    byte to be transmitted
Returns:  none          
**************************************************************************/
void uart_putc(unsigned char data)
{
    2228:	df 93       	push	r29
    222a:	cf 93       	push	r28
    222c:	00 d0       	rcall	.+0      	; 0x222e <uart_putc+0x6>
    222e:	cd b7       	in	r28, 0x3d	; 61
    2230:	de b7       	in	r29, 0x3e	; 62
    2232:	8a 83       	std	Y+2, r24	; 0x02
    unsigned char tmphead;

    
    tmphead  = (UART_TxHead + 1) & UART_TX_BUFFER_MASK;
    2234:	80 91 dd 04 	lds	r24, 0x04DD
    2238:	8f 5f       	subi	r24, 0xFF	; 255
    223a:	8f 71       	andi	r24, 0x1F	; 31
    223c:	89 83       	std	Y+1, r24	; 0x01
    
    while ( tmphead == UART_TxTail ){
    223e:	90 91 de 04 	lds	r25, 0x04DE
    2242:	89 81       	ldd	r24, Y+1	; 0x01
    2244:	89 17       	cp	r24, r25
    2246:	d9 f3       	breq	.-10     	; 0x223e <uart_putc+0x16>
        ;/* wait for free space in buffer */
    }
    
    UART_TxBuf[tmphead] = data;
    2248:	89 81       	ldd	r24, Y+1	; 0x01
    224a:	88 2f       	mov	r24, r24
    224c:	90 e0       	ldi	r25, 0x00	; 0
    224e:	fc 01       	movw	r30, r24
    2250:	e3 56       	subi	r30, 0x63	; 99
    2252:	fb 4f       	sbci	r31, 0xFB	; 251
    2254:	8a 81       	ldd	r24, Y+2	; 0x02
    2256:	80 83       	st	Z, r24
    UART_TxHead = tmphead;
    2258:	89 81       	ldd	r24, Y+1	; 0x01
    225a:	80 93 dd 04 	sts	0x04DD, r24

    /* enable UDRE interrupt */
    UART0_CONTROL    |= _BV(UART0_UDRIE);
    225e:	aa e2       	ldi	r26, 0x2A	; 42
    2260:	b0 e0       	ldi	r27, 0x00	; 0
    2262:	ea e2       	ldi	r30, 0x2A	; 42
    2264:	f0 e0       	ldi	r31, 0x00	; 0
    2266:	80 81       	ld	r24, Z
    2268:	80 62       	ori	r24, 0x20	; 32
    226a:	8c 93       	st	X, r24

}/* uart_putc */
    226c:	0f 90       	pop	r0
    226e:	0f 90       	pop	r0
    2270:	cf 91       	pop	r28
    2272:	df 91       	pop	r29
    2274:	08 95       	ret

00002276 <uart_puts>:
Purpose:  transmit string to UART
Input:    string to be transmitted
Returns:  none          
**************************************************************************/
void uart_puts(const char *s )
{
    2276:	df 93       	push	r29
    2278:	cf 93       	push	r28
    227a:	00 d0       	rcall	.+0      	; 0x227c <uart_puts+0x6>
    227c:	cd b7       	in	r28, 0x3d	; 61
    227e:	de b7       	in	r29, 0x3e	; 62
    2280:	9a 83       	std	Y+2, r25	; 0x02
    2282:	89 83       	std	Y+1, r24	; 0x01
    2284:	0b c0       	rjmp	.+22     	; 0x229c <uart_puts+0x26>
    while (*s) 
      uart_putc(*s++);
    2286:	e9 81       	ldd	r30, Y+1	; 0x01
    2288:	fa 81       	ldd	r31, Y+2	; 0x02
    228a:	20 81       	ld	r18, Z
    228c:	89 81       	ldd	r24, Y+1	; 0x01
    228e:	9a 81       	ldd	r25, Y+2	; 0x02
    2290:	01 96       	adiw	r24, 0x01	; 1
    2292:	9a 83       	std	Y+2, r25	; 0x02
    2294:	89 83       	std	Y+1, r24	; 0x01
    2296:	82 2f       	mov	r24, r18
    2298:	0e 94 14 11 	call	0x2228	; 0x2228 <uart_putc>
Input:    string to be transmitted
Returns:  none          
**************************************************************************/
void uart_puts(const char *s )
{
    while (*s) 
    229c:	e9 81       	ldd	r30, Y+1	; 0x01
    229e:	fa 81       	ldd	r31, Y+2	; 0x02
    22a0:	80 81       	ld	r24, Z
    22a2:	88 23       	and	r24, r24
    22a4:	81 f7       	brne	.-32     	; 0x2286 <uart_puts+0x10>
      uart_putc(*s++);

}/* uart_puts */
    22a6:	0f 90       	pop	r0
    22a8:	0f 90       	pop	r0
    22aa:	cf 91       	pop	r28
    22ac:	df 91       	pop	r29
    22ae:	08 95       	ret

000022b0 <uart_puts_p>:
Purpose:  transmit string from program memory to UART
Input:    program memory string to be transmitted
Returns:  none
**************************************************************************/
void uart_puts_p(const char *progmem_s )
{
    22b0:	df 93       	push	r29
    22b2:	cf 93       	push	r28
    22b4:	00 d0       	rcall	.+0      	; 0x22b6 <uart_puts_p+0x6>
    22b6:	00 d0       	rcall	.+0      	; 0x22b8 <uart_puts_p+0x8>
    22b8:	00 d0       	rcall	.+0      	; 0x22ba <uart_puts_p+0xa>
    22ba:	cd b7       	in	r28, 0x3d	; 61
    22bc:	de b7       	in	r29, 0x3e	; 62
    22be:	9d 83       	std	Y+5, r25	; 0x05
    22c0:	8c 83       	std	Y+4, r24	; 0x04
    22c2:	03 c0       	rjmp	.+6      	; 0x22ca <uart_puts_p+0x1a>
    register char c;
    
    while ( (c = pgm_read_byte(progmem_s++)) ) 
      uart_putc(c);
    22c4:	8e 81       	ldd	r24, Y+6	; 0x06
    22c6:	0e 94 14 11 	call	0x2228	; 0x2228 <uart_putc>
**************************************************************************/
void uart_puts_p(const char *progmem_s )
{
    register char c;
    
    while ( (c = pgm_read_byte(progmem_s++)) ) 
    22ca:	8c 81       	ldd	r24, Y+4	; 0x04
    22cc:	9d 81       	ldd	r25, Y+5	; 0x05
    22ce:	9b 83       	std	Y+3, r25	; 0x03
    22d0:	8a 83       	std	Y+2, r24	; 0x02
    22d2:	8c 81       	ldd	r24, Y+4	; 0x04
    22d4:	9d 81       	ldd	r25, Y+5	; 0x05
    22d6:	01 96       	adiw	r24, 0x01	; 1
    22d8:	9d 83       	std	Y+5, r25	; 0x05
    22da:	8c 83       	std	Y+4, r24	; 0x04
    22dc:	ea 81       	ldd	r30, Y+2	; 0x02
    22de:	fb 81       	ldd	r31, Y+3	; 0x03
    22e0:	84 91       	lpm	r24, Z+
    22e2:	89 83       	std	Y+1, r24	; 0x01
    22e4:	89 81       	ldd	r24, Y+1	; 0x01
    22e6:	8e 83       	std	Y+6, r24	; 0x06
    22e8:	8e 81       	ldd	r24, Y+6	; 0x06
    22ea:	88 23       	and	r24, r24
    22ec:	59 f7       	brne	.-42     	; 0x22c4 <uart_puts_p+0x14>
      uart_putc(c);

}/* uart_puts_p */
    22ee:	26 96       	adiw	r28, 0x06	; 6
    22f0:	0f b6       	in	r0, 0x3f	; 63
    22f2:	f8 94       	cli
    22f4:	de bf       	out	0x3e, r29	; 62
    22f6:	0f be       	out	0x3f, r0	; 63
    22f8:	cd bf       	out	0x3d, r28	; 61
    22fa:	cf 91       	pop	r28
    22fc:	df 91       	pop	r29
    22fe:	08 95       	ret

00002300 <__prologue_saves__>:
    2300:	2f 92       	push	r2
    2302:	3f 92       	push	r3
    2304:	4f 92       	push	r4
    2306:	5f 92       	push	r5
    2308:	6f 92       	push	r6
    230a:	7f 92       	push	r7
    230c:	8f 92       	push	r8
    230e:	9f 92       	push	r9
    2310:	af 92       	push	r10
    2312:	bf 92       	push	r11
    2314:	cf 92       	push	r12
    2316:	df 92       	push	r13
    2318:	ef 92       	push	r14
    231a:	ff 92       	push	r15
    231c:	0f 93       	push	r16
    231e:	1f 93       	push	r17
    2320:	cf 93       	push	r28
    2322:	df 93       	push	r29
    2324:	cd b7       	in	r28, 0x3d	; 61
    2326:	de b7       	in	r29, 0x3e	; 62
    2328:	ca 1b       	sub	r28, r26
    232a:	db 0b       	sbc	r29, r27
    232c:	0f b6       	in	r0, 0x3f	; 63
    232e:	f8 94       	cli
    2330:	de bf       	out	0x3e, r29	; 62
    2332:	0f be       	out	0x3f, r0	; 63
    2334:	cd bf       	out	0x3d, r28	; 61
    2336:	09 94       	ijmp

00002338 <__epilogue_restores__>:
    2338:	2a 88       	ldd	r2, Y+18	; 0x12
    233a:	39 88       	ldd	r3, Y+17	; 0x11
    233c:	48 88       	ldd	r4, Y+16	; 0x10
    233e:	5f 84       	ldd	r5, Y+15	; 0x0f
    2340:	6e 84       	ldd	r6, Y+14	; 0x0e
    2342:	7d 84       	ldd	r7, Y+13	; 0x0d
    2344:	8c 84       	ldd	r8, Y+12	; 0x0c
    2346:	9b 84       	ldd	r9, Y+11	; 0x0b
    2348:	aa 84       	ldd	r10, Y+10	; 0x0a
    234a:	b9 84       	ldd	r11, Y+9	; 0x09
    234c:	c8 84       	ldd	r12, Y+8	; 0x08
    234e:	df 80       	ldd	r13, Y+7	; 0x07
    2350:	ee 80       	ldd	r14, Y+6	; 0x06
    2352:	fd 80       	ldd	r15, Y+5	; 0x05
    2354:	0c 81       	ldd	r16, Y+4	; 0x04
    2356:	1b 81       	ldd	r17, Y+3	; 0x03
    2358:	aa 81       	ldd	r26, Y+2	; 0x02
    235a:	b9 81       	ldd	r27, Y+1	; 0x01
    235c:	ce 0f       	add	r28, r30
    235e:	d1 1d       	adc	r29, r1
    2360:	0f b6       	in	r0, 0x3f	; 63
    2362:	f8 94       	cli
    2364:	de bf       	out	0x3e, r29	; 62
    2366:	0f be       	out	0x3f, r0	; 63
    2368:	cd bf       	out	0x3d, r28	; 61
    236a:	ed 01       	movw	r28, r26
    236c:	08 95       	ret

0000236e <_exit>:
    236e:	f8 94       	cli

00002370 <__stop_program>:
    2370:	ff cf       	rjmp	.-2      	; 0x2370 <__stop_program>
